(lp0
(lp1
I58124
aI58125
aI58126
aI58127
aI58128
aI58129
aI58130
aI58131
aI58132
aI58133
aI58134
aI58135
aI58136
aI58137
aI58138
aI58139
aI58140
aI58141
aI58142
aI58143
aI58144
aI58145
aI58146
aI58147
aI58148
aI58149
aI58150
aI58151
aI58152
aI58153
aI58154
aI58155
aI58156
aI58157
aI58158
aI58159
aI58160
aI58161
aI58162
aI58163
aI58164
aI58165
aI58166
aI58167
aI58168
aI58169
aI58170
aI58171
aI58172
aI58173
aI58174
aI58175
aI58176
aI58177
aI58178
aI58179
aI58180
aa(lp2
I67229
aI67230
aI67231
aI67232
aI67233
aI67234
aI67235
aI67236
aI67237
aI67238
aI67239
aI67240
aI67241
aI67242
aI67243
aI67244
aI67245
aI67246
aI67247
aI67248
aI67249
aI67250
aI67251
aI67252
aI67253
aI67254
aI67255
aI67256
aI67257
aI67258
aI67259
aI67260
aI67261
aI67262
aI67263
aI67264
aI67265
aI67266
aI67267
aI67268
aI67269
aI67270
aI67271
aI67272
aI67273
aI67274
aI67275
aI67276
aI67277
aI67278
aI67279
aI67280
aI67281
aI67282
aI67283
aI67284
aI67285
aa(lp3
I67323
aI67324
aI67325
aI67326
aI67327
aI67328
aI67329
aI67330
aI67331
aI67332
aI67333
aI67334
aI67335
aI67336
aI67337
aI67338
aI67339
aI67340
aI67341
aI67342
aI67343
aI67344
aI67345
aI67346
aI67347
aI67348
aI67349
aI67350
aI67351
aI67352
aI67353
aI67354
aI67355
aI67356
aI67357
aI67358
aI67359
aI67360
aI67361
aI67362
aI67363
aI67364
aI67365
aI67366
aI67367
aI67368
aI67369
aI67370
aI67371
aI67372
aI67373
aI67374
aI67375
aI67376
aI67377
aI67378
aI67379
aI67380
aI67381
aI67382
aI67383
aI67384
aI67385
aI67386
aI67387
aI67388
aI67389
aI67390
aI67391
aI67392
aI67393
aI67394
aI67395
aI67396
aI67397
aI67398
aI67399
aI67400
aI67401
aI67402
aI67403
aI67404
aI67405
aI67406
aI67407
aI67408
aI67409
aI67410
aI67411
aI67412
aI67413
aI67414
aI67415
aI67416
aI67417
aI67418
aI67419
aI67420
aI67421
aI67422
aI67423
aI67424
aI67425
aI67426
aI67427
aI67428
aI67429
aI67430
aI67431
aI67432
aI67433
aI67434
aI67435
aI67436
aI67437
aI67438
aI67439
aI67440
aI67441
aI67442
aI67443
aI67444
aI67445
aI67446
aI67447
aI67448
aI67449
aI67450
aI67451
aI67452
aI67453
aa(lp4
I67458
aI67459
aI67460
aI67461
aI67462
aI67463
aI67464
aI67465
aI67466
aI67467
aI67468
aI67469
aI67470
aI67471
aI67472
aI67473
aI67474
aI67475
aI67476
aI67477
aI67478
aI67479
aI67480
aI67481
aI67482
aI67483
aI67484
aI67485
aI67486
aI67487
aI67488
aI67489
aI67490
aI67491
aI67492
aI67493
aI67494
aI67495
aI67496
aI67497
aI67498
aI67499
aI67500
aI67501
aI67502
aI67503
aI67504
aI67505
aI67506
aI67507
aI67508
aI67509
aI67510
aI67511
aI67512
aI67513
aI67514
aI67515
aI67516
aI67517
aI67518
aI67519
aI67520
aI67521
aI67522
aI67523
aI67524
aI67525
aI67526
aI67527
aI67528
aI67529
aI67530
aI67531
aI67532
aI67533
aI67534
aI67535
aI67536
aI67537
aI67538
aI67539
aI67540
aI67541
aI67542
aI67543
aI67544
aI67545
aI67546
aI67547
aI67548
aI67549
aI67550
aI67551
aI67552
aI67553
aI67554
aI67555
aI67556
aI67557
aI67558
aI67559
aI67560
aI67561
aI67562
aI67563
aI67564
aI67565
aI67566
aI67567
aI67568
aI67569
aI67570
aI67571
aI67572
aI67573
aI67574
aI67575
aI67576
aI67577
aI67578
aI67579
aI67580
aI67581
aI67582
aI67583
aI67584
aI67585
aI67586
aI67587
aI67588
aI67589
aI67590
aa(lp5
I67612
aI67613
aI67614
aI67615
aI67616
aI67617
aI67618
aI67619
aI67620
aI67621
aI67622
aI67623
aI67624
aI67625
aI67626
aI67627
aI67628
aI67629
aI67630
aI67631
aI67632
aI67633
aI67634
aI67635
aI67636
aI67637
aI67638
aI67639
aI67640
aI67641
aI67642
aI67643
aI67644
aI67645
aI67646
aI67647
aI67648
aI67649
aI67650
aI67651
aI67652
aI67653
aI67654
aI67655
aI67656
aI67657
aI67658
aI67659
aI67660
aI67661
aI67662
aI67663
aI67664
aI67665
aI67666
aI67667
aI67668
aI67669
aI67670
aI67671
aI67672
aI67673
aI67674
aI67675
aI67676
aI67677
aI67678
aI67679
aI67680
aI67681
aI67682
aI67683
aI67684
aI67685
aI67686
aI67687
aI67688
aI67689
aI67690
aI67691
aI67692
aI67693
aI67694
aI67695
aI67696
aI67697
aI67698
aI67699
aI67700
aI67701
aI67702
aI67703
aI67704
aI67705
aI67706
aI67707
aI67708
aI67709
aI67710
aI67711
aI67712
aI67713
aI67714
aI67715
aI67716
aI67717
aI67718
aI67719
aI67720
aI67721
aI67722
aI67723
aI67724
aI67725
aI67726
aI67727
aI67728
aI67729
aI67730
aI67731
aI67732
aI67733
aa(lp6
I67738
aI67739
aI67740
aI67741
aI67742
aI67743
aI67744
aI67745
aI67746
aI67747
aI67748
aI67749
aI67750
aI67751
aI67752
aI67753
aI67754
aI67755
aI67756
aI67757
aI67758
aI67759
aI67760
aI67761
aI67762
aI67763
aI67764
aI67765
aI67766
aI67767
aI67768
aI67769
aI67770
aI67771
aI67772
aI67773
aI67774
aI67775
aI67776
aI67777
aI67778
aI67779
aI67780
aI67781
aI67782
aI67783
aI67784
aI67785
aI67786
aI67787
aI67788
aI67789
aI67790
aI67791
aI67792
aI67793
aI67794
aI67795
aI67796
aI67797
aI67798
aI67799
aI67800
aI67801
aI67802
aI67803
aI67804
aI67805
aI67806
aI67807
aI67808
aI67809
aI67810
aI67811
aI67812
aI67813
aI67814
aI67815
aI67816
aI67817
aI67818
aI67819
aI67820
aI67821
aI67822
aI67823
aI67824
aI67825
aI67826
aI67827
aI67828
aI67829
aI67830
aI67831
aI67832
aI67833
aI67834
aI67835
aI67836
aI67837
aI67838
aI67839
aI67840
aI67841
aI67842
aI67843
aI67844
aI67845
aI67846
aI67847
aI67848
aI67849
aI67850
aI67851
aI67852
aI67853
aI67854
aI67855
aI67856
aI67857
aI67858
aI67859
aI67860
aI67861
aI67862
aI67863
aI67864
aI67865
aI67866
aI67867
aI67868
aI67869
aa(lp7
I67906
aI67907
aI67908
aI67909
aI67910
aI67911
aI67912
aI67913
aI67914
aI67915
aI67916
aI67917
aI67918
aI67919
aI67920
aI67921
aI67922
aI67923
aI67924
aI67925
aI67926
aI67927
aI67928
aI67929
aI67930
aI67931
aI67932
aI67933
aI67934
aI67935
aI67936
aI67937
aI67938
aI67939
aI67940
aI67941
aI67942
aI67943
aI67944
aI67945
aI67946
aI67947
aI67948
aI67949
aI67950
aI67951
aI67952
aI67953
aI67954
aI67955
aI67956
aI67957
aI67958
aI67959
aI67960
aI67961
aI67962
aa(lp8
I71848
aI71849
aI71850
aI71851
aI71852
aI71853
aI71854
aI71855
aI71856
aI71857
aI71858
aI71859
aI71860
aI71861
aI71862
aI71863
aI71864
aI71865
aI71866
aI71867
aI71868
aI71869
aI71870
aI71871
aI71872
aI71873
aI71874
aI71875
aI71876
aI71877
aI71878
aI71879
aI71880
aI71881
aI71882
aI71883
aI71884
aI71885
aI71886
aI71887
aI71888
aI71889
aI71890
aI71891
aI71892
aI71893
aI71894
aI71895
aI71896
aI71897
aI71898
aI71899
aI71900
aI71901
aI71902
aI71903
aI71904
aI71905
aI71906
aI71907
aI71908
aI71909
aI71910
aI71911
aI71912
aI71913
aI71914
aI71915
aI71916
aI71917
aI71918
aI71919
aI71920
aI71921
aI71922
aI71923
aI71924
aI71925
aI71926
aI71927
aI71928
aI71929
aI71930
aI71931
aI71932
aI71933
aI71934
aI71935
aI71936
aa(lp9
I72014
aI72015
aI72016
aI72017
aI72018
aI72019
aI72020
aI72021
aI72022
aI72023
aI72024
aI72025
aI72026
aI72027
aI72028
aI72029
aI72030
aI72031
aI72032
aI72033
aI72034
aI72035
aI72036
aI72037
aI72038
aI72039
aI72040
aI72041
aI72042
aI72043
aI72044
aI72045
aI72046
aI72047
aI72048
aI72049
aI72050
aI72051
aI72052
aI72053
aI72054
aI72055
aI72056
aI72057
aI72058
aI72059
aI72060
aI72061
aI72062
aI72063
aI72064
aI72065
aI72066
aI72067
aI72068
aI72069
aI72070
aI72071
aI72072
aI72073
aI72074
aI72075
aI72076
aI72077
aI72078
aI72079
aI72080
aI72081
aI72082
aI72083
aI72084
aI72085
aI72086
aI72087
aI72088
aI72089
aI72090
aI72091
aI72092
aI72093
aI72094
aI72095
aI72096
aI72097
aI72098
aI72099
aI72100
aI72101
aI72102
aI72103
aI72104
aI72105
aI72106
aI72107
aI72108
aI72109
aI72110
aI72111
aI72112
aI72113
aI72114
aI72115
aI72116
aI72117
aa(lp10
I72209
aI72210
aI72211
aI72212
aI72213
aI72214
aI72215
aI72216
aI72217
aI72218
aI72219
aI72220
aI72221
aI72222
aI72223
aI72224
aI72225
aI72226
aI72227
aI72228
aI72229
aI72230
aI72231
aI72232
aI72233
aI72234
aI72235
aI72236
aI72237
aI72238
aI72239
aI72240
aI72241
aI72242
aI72243
aI72244
aI72245
aI72246
aI72247
aI72248
aI72249
aI72250
aI72251
aI72252
aI72253
aI72254
aI72255
aI72256
aI72257
aI72258
aI72259
aI72260
aI72261
aI72262
aI72263
aI72264
aI72265
aI72266
aI72267
aI72268
aI72269
aI72270
aI72271
aI72272
aI72273
aI72274
aI72275
aI72276
aI72277
aI72278
aI72279
aI72280
aI72281
aI72282
aI72283
aI72284
aI72285
aI72286
aI72287
aI72288
aI72289
aI72290
aI72291
aI72292
aI72293
aI72294
aI72295
aI72296
aI72297
aI72298
aI72299
aI72300
aI72301
aI72302
aI72303
aI72304
aI72305
aI72306
aI72307
aI72308
aI72309
aI72310
aI72311
aI72312
aI72313
aI72314
aa(lp11
I72464
aI72465
aI72466
aI72467
aI72468
aI72469
aI72470
aI72471
aI72472
aI72473
aI72474
aI72475
aI72476
aI72477
aI72478
aI72479
aI72480
aI72481
aI72482
aI72483
aI72484
aI72485
aI72486
aI72487
aI72488
aI72489
aI72490
aI72491
aI72492
aI72493
aI72494
aI72495
aI72496
aI72497
aI72498
aI72499
aI72500
aI72501
aI72502
aI72503
aI72504
aI72505
aI72506
aI72507
aI72508
aI72509
aI72510
aI72511
aI72512
aI72513
aI72514
aI72515
aI72516
aI72517
aI72518
aI72519
aI72520
aI72521
aI72522
aI72523
aI72524
aI72525
aI72526
aI72527
aI72528
aI72529
aI72530
aI72531
aI72532
aI72533
aI72534
aI72535
aI72536
aI72537
aI72538
aI72539
aI72540
aI72541
aI72542
aI72543
aI72544
aI72545
aI72546
aI72547
aI72548
aI72549
aI72550
aI72551
aI72552
aI72553
aI72554
aI72555
aI72556
aI72557
aI72558
aI72559
aI72560
aI72561
aI72562
aI72563
aI72564
aI72565
aI72566
aI72567
aI72568
aI72569
aI72570
aI72571
aI72572
aI72573
aI72574
aI72575
aI72576
aI72577
aI72578
aI72579
aI72580
aI72581
aI72582
aI72583
aI72584
aI72585
aI72586
aI72587
aI72588
aI72589
aI72590
aI72591
aI72592
aI72593
aI72594
aa(lp12
I79724
aI79725
aI79726
aI79727
aI79728
aI79729
aI79730
aI79731
aI79732
aI79733
aI79734
aI79735
aI79736
aI79737
aI79738
aI79739
aI79740
aI79741
aI79742
aI79743
aI79744
aI79745
aI79746
aI79747
aI79748
aI79749
aI79750
aI79751
aI79752
aI79753
aI79754
aI79755
aI79756
aI79757
aI79758
aI79759
aI79760
aI79761
aI79762
aI79763
aI79764
aI79765
aI79766
aI79767
aI79768
aI79769
aI79770
aI79771
aI79772
aI79773
aI79774
aI79775
aI79776
aI79777
aI79778
aI79779
aI79780
aI79781
aI79782
aI79783
aI79784
aI79785
aI79786
aI79787
aI79788
aI79789
aI79790
aI79791
aI79792
aI79793
aI79794
aI79795
aI79796
aI79797
aI79798
aI79799
aI79800
aI79801
aI79802
aI79803
aI79804
aI79805
aI79806
aI79807
aI79808
aI79809
aI79810
aI79811
aI79812
aI79813
aI79814
aI79815
aI79816
aI79817
aI79818
aI79819
aI79820
aI79821
aI79822
aI79823
aI79824
aI79825
aI79826
aI79827
aI79828
aI79829
aI79830
aI79831
aa(lp13
I79845
aI79846
aI79847
aI79848
aI79849
aI79850
aI79851
aI79852
aI79853
aI79854
aI79855
aI79856
aI79857
aI79858
aI79859
aI79860
aI79861
aI79862
aI79863
aI79864
aI79865
aI79866
aI79867
aI79868
aI79869
aI79870
aI79871
aI79872
aI79873
aI79874
aI79875
aI79876
aI79877
aI79878
aI79879
aI79880
aI79881
aI79882
aI79883
aI79884
aI79885
aI79886
aI79887
aI79888
aI79889
aI79890
aI79891
aI79892
aI79893
aI79894
aI79895
aI79896
aI79897
aI79898
aI79899
aI79900
aI79901
aI79902
aI79903
aI79904
aI79905
aI79906
aI79907
aI79908
aI79909
aI79910
aI79911
aI79912
aI79913
aI79914
aI79915
aI79916
aI79917
aI79918
aI79919
aI79920
aI79921
aI79922
aI79923
aI79924
aI79925
aI79926
aI79927
aI79928
aI79929
aI79930
aI79931
aI79932
aI79933
aI79934
aI79935
aI79936
aI79937
aI79938
aI79939
aI79940
aI79941
aI79942
aI79943
aI79944
aI79945
aI79946
aI79947
aI79948
aI79949
aI79950
aI79951
aI79952
aI79953
aI79954
aI79955
aI79956
aI79957
aI79958
aI79959
aI79960
aI79961
aI79962
aI79963
aI79964
aI79965
aI79966
aI79967
aI79968
aI79969
aI79970
aI79971
aI79972
aI79973
aI79974
aI79975
aI79976
aI79977
aI79978
aI79979
aI79980
aI79981
aI79982
aI79983
aI79984
aI79985
aI79986
aI79987
aI79988
aI79989
aI79990
aI79991
aI79992
aI79993
aI79994
aI79995
aI79996
aI79997
aI79998
aI79999
aI80000
aa(lp14
I80013
aI80014
aI80015
aI80016
aI80017
aI80018
aI80019
aI80020
aI80021
aI80022
aI80023
aI80024
aI80025
aI80026
aI80027
aI80028
aI80029
aI80030
aI80031
aI80032
aI80033
aI80034
aI80035
aI80036
aI80037
aI80038
aI80039
aI80040
aI80041
aI80042
aI80043
aI80044
aI80045
aI80046
aI80047
aI80048
aI80049
aI80050
aI80051
aI80052
aI80053
aI80054
aI80055
aI80056
aI80057
aI80058
aI80059
aI80060
aI80061
aI80062
aI80063
aI80064
aI80065
aI80066
aI80067
aI80068
aI80069
aI80070
aI80071
aI80072
aI80073
aI80074
aI80075
aI80076
aI80077
aI80078
aI80079
aI80080
aI80081
aI80082
aI80083
aI80084
aI80085
aI80086
aI80087
aI80088
aI80089
aI80090
aI80091
aI80092
aI80093
aI80094
aI80095
aI80096
aI80097
aI80098
aI80099
aI80100
aI80101
aI80102
aI80103
aI80104
aI80105
aI80106
aI80107
aI80108
aI80109
aI80110
aI80111
aI80112
aI80113
aI80114
aI80115
aI80116
aI80117
aI80118
aI80119
aI80120
aI80121
aa(lp15
I86677
aI86678
aI86679
aI86680
aI86681
aI86682
aI86683
aI86684
aI86685
aI86686
aI86687
aI86688
aI86689
aI86690
aI86691
aI86692
aI86693
aI86694
aI86695
aI86696
aI86697
aI86698
aI86699
aI86700
aI86701
aI86702
aI86703
aI86704
aI86705
aI86706
aI86707
aI86708
aI86709
aI86710
aI86711
aI86712
aI86713
aI86714
aI86715
aI86716
aI86717
aI86718
aI86719
aI86720
aI86721
aI86722
aI86723
aI86724
aI86725
aI86726
aI86727
aI86728
aI86729
aI86730
aI86731
aI86732
aI86733
aa(lp16
I86942
aI86943
aI86944
aI86945
aI86946
aI86947
aI86948
aI86949
aI86950
aI86951
aI86952
aI86953
aI86954
aI86955
aI86956
aI86957
aI86958
aI86959
aI86960
aI86961
aI86962
aI86963
aI86964
aI86965
aI86966
aI86967
aI86968
aI86969
aI86970
aI86971
aI86972
aI86973
aI86974
aI86975
aI86976
aI86977
aI86978
aI86979
aI86980
aI86981
aI86982
aI86983
aI86984
aI86985
aI86986
aI86987
aI86988
aI86989
aI86990
aI86991
aI86992
aI86993
aI86994
aI86995
aI86996
aI86997
aI86998
aa(lp17
I89582
aI89583
aI89584
aI89585
aI89586
aI89587
aI89588
aI89589
aI89590
aI89591
aI89592
aI89593
aI89594
aI89595
aI89596
aI89597
aI89598
aI89599
aI89600
aI89601
aI89602
aI89603
aI89604
aI89605
aI89606
aI89607
aI89608
aI89609
aI89610
aI89611
aI89612
aI89613
aI89614
aI89615
aI89616
aI89617
aI89618
aI89619
aI89620
aI89621
aI89622
aI89623
aI89624
aI89625
aI89626
aI89627
aI89628
aI89629
aI89630
aI89631
aI89632
aI89633
aI89634
aI89635
aI89636
aI89637
aI89638
aI89639
aI89640
aI89641
aI89642
aI89643
aI89644
aI89645
aI89646
aI89647
aI89648
aI89649
aI89650
aI89651
aI89652
aI89653
aI89654
aI89655
aI89656
aI89657
aI89658
aa(lp18
I89843
aI89844
aI89845
aI89846
aI89847
aI89848
aI89849
aI89850
aI89851
aI89852
aI89853
aI89854
aI89855
aI89856
aI89857
aI89858
aI89859
aI89860
aI89861
aI89862
aI89863
aI89864
aI89865
aI89866
aI89867
aI89868
aI89869
aI89870
aI89871
aI89872
aI89873
aI89874
aI89875
aI89876
aI89877
aI89878
aI89879
aI89880
aI89881
aI89882
aI89883
aI89884
aI89885
aI89886
aI89887
aI89888
aI89889
aI89890
aI89891
aI89892
aI89893
aI89894
aI89895
aI89896
aI89897
aI89898
aI89899
aI89900
aI89901
aI89902
aI89903
aI89904
aI89905
aI89906
aI89907
aI89908
aI89909
aI89910
aI89911
aI89912
aI89913
aI89914
aI89915
aI89916
aI89917
aI89918
aI89919
aI89920
aI89921
aI89922
aa(lp19
I89964
aI89965
aI89966
aI89967
aI89968
aI89969
aI89970
aI89971
aI89972
aI89973
aI89974
aI89975
aI89976
aI89977
aI89978
aI89979
aI89980
aI89981
aI89982
aI89983
aI89984
aI89985
aI89986
aI89987
aI89988
aI89989
aI89990
aI89991
aI89992
aI89993
aI89994
aI89995
aI89996
aI89997
aI89998
aI89999
aI90000
aI90001
aI90002
aI90003
aI90004
aI90005
aI90006
aI90007
aI90008
aI90009
aI90010
aI90011
aI90012
aI90013
aI90014
aI90015
aI90016
aI90017
aI90018
aI90019
aI90020
aI90021
aI90022
aI90023
aI90024
aI90025
aI90026
aI90027
aI90028
aI90029
aI90030
aI90031
aI90032
aI90033
aI90034
aI90035
aa(lp20
I90070
aI90071
aI90072
aI90073
aI90074
aI90075
aI90076
aI90077
aI90078
aI90079
aI90080
aI90081
aI90082
aI90083
aI90084
aI90085
aI90086
aI90087
aI90088
aI90089
aI90090
aI90091
aI90092
aI90093
aI90094
aI90095
aI90096
aI90097
aI90098
aI90099
aI90100
aI90101
aI90102
aI90103
aI90104
aI90105
aI90106
aI90107
aI90108
aI90109
aI90110
aI90111
aI90112
aI90113
aI90114
aI90115
aI90116
aI90117
aI90118
aI90119
aI90120
aI90121
aI90122
aI90123
aI90124
aI90125
aI90126
aI90127
aI90128
aI90129
aI90130
aI90131
aI90132
aI90133
aI90134
aI90135
aI90136
aI90137
aI90138
aI90139
aI90140
aI90141
aI90142
aI90143
aI90144
aI90145
aI90146
aI90147
aI90148
aI90149
aI90150
aI90151
aI90152
aI90153
aI90154
aI90155
aI90156
aI90157
aI90158
aI90159
aI90160
aI90161
aI90162
aI90163
aI90164
aI90165
aI90166
aI90167
aI90168
aI90169
aI90170
aI90171
aI90172
aI90173
aI90174
aI90175
aI90176
aI90177
aI90178
aI90179
aI90180
aa(lp21
I90192
aI90193
aI90194
aI90195
aI90196
aI90197
aI90198
aI90199
aI90200
aI90201
aI90202
aI90203
aI90204
aI90205
aI90206
aI90207
aI90208
aI90209
aI90210
aI90211
aI90212
aI90213
aI90214
aI90215
aI90216
aI90217
aI90218
aI90219
aI90220
aI90221
aI90222
aI90223
aI90224
aI90225
aI90226
aI90227
aI90228
aI90229
aI90230
aI90231
aI90232
aI90233
aI90234
aI90235
aI90236
aI90237
aI90238
aI90239
aI90240
aI90241
aI90242
aI90243
aI90244
aI90245
aI90246
aI90247
aI90248
aI90249
aI90250
aI90251
aI90252
aI90253
aI90254
aI90255
aI90256
aI90257
aI90258
aI90259
aI90260
aI90261
aI90262
aI90263
aI90264
aI90265
aI90266
aI90267
aI90268
aI90269
aI90270
aI90271
aI90272
aI90273
aI90274
aI90275
aI90276
aI90277
aI90278
aI90279
aI90280
aI90281
aI90282
aI90283
aI90284
aI90285
aI90286
aI90287
aI90288
aI90289
aI90290
aI90291
aI90292
aI90293
aI90294
aI90295
aI90296
aI90297
aI90298
aa(lp22
I92179
aI92180
aI92181
aI92182
aI92183
aI92184
aI92185
aI92186
aI92187
aI92188
aI92189
aI92190
aI92191
aI92192
aI92193
aI92194
aI92195
aI92196
aI92197
aI92198
aI92199
aI92200
aI92201
aI92202
aI92203
aI92204
aI92205
aI92206
aI92207
aI92208
aI92209
aI92210
aI92211
aI92212
aI92213
aI92214
aI92215
aI92216
aI92217
aI92218
aI92219
aI92220
aI92221
aI92222
aI92223
aI92224
aI92225
aI92226
aI92227
aI92228
aI92229
aI92230
aI92231
aI92232
aI92233
aI92234
aI92235
aa(lp23
I92313
aI92314
aI92315
aI92316
aI92317
aI92318
aI92319
aI92320
aI92321
aI92322
aI92323
aI92324
aI92325
aI92326
aI92327
aI92328
aI92329
aI92330
aI92331
aI92332
aI92333
aI92334
aI92335
aI92336
aI92337
aI92338
aI92339
aI92340
aI92341
aI92342
aI92343
aI92344
aI92345
aI92346
aI92347
aI92348
aI92349
aI92350
aI92351
aI92352
aI92353
aI92354
aI92355
aI92356
aI92357
aI92358
aI92359
aI92360
aI92361
aI92362
aI92363
aI92364
aI92365
aI92366
aI92367
aI92368
aI92369
aa(lp24
I92404
aI92405
aI92406
aI92407
aI92408
aI92409
aI92410
aI92411
aI92412
aI92413
aI92414
aI92415
aI92416
aI92417
aI92418
aI92419
aI92420
aI92421
aI92422
aI92423
aI92424
aI92425
aI92426
aI92427
aI92428
aI92429
aI92430
aI92431
aI92432
aI92433
aI92434
aI92435
aI92436
aI92437
aI92438
aI92439
aI92440
aI92441
aI92442
aI92443
aI92444
aI92445
aI92446
aI92447
aI92448
aI92449
aI92450
aI92451
aI92452
aI92453
aI92454
aI92455
aI92456
aI92457
aI92458
aI92459
aI92460
aa(lp25
I92541
aI92542
aI92543
aI92544
aI92545
aI92546
aI92547
aI92548
aI92549
aI92550
aI92551
aI92552
aI92553
aI92554
aI92555
aI92556
aI92557
aI92558
aI92559
aI92560
aI92561
aI92562
aI92563
aI92564
aI92565
aI92566
aI92567
aI92568
aI92569
aI92570
aI92571
aI92572
aI92573
aI92574
aI92575
aI92576
aI92577
aI92578
aI92579
aI92580
aI92581
aI92582
aI92583
aI92584
aI92585
aI92586
aI92587
aI92588
aI92589
aI92590
aI92591
aI92592
aI92593
aI92594
aI92595
aI92596
aI92597
aa(lp26
I93121
aI93122
aI93123
aI93124
aI93125
aI93126
aI93127
aI93128
aI93129
aI93130
aI93131
aI93132
aI93133
aI93134
aI93135
aI93136
aI93137
aI93138
aI93139
aI93140
aI93141
aI93142
aI93143
aI93144
aI93145
aI93146
aI93147
aI93148
aI93149
aI93150
aI93151
aI93152
aI93153
aI93154
aI93155
aI93156
aI93157
aI93158
aI93159
aI93160
aI93161
aI93162
aI93163
aI93164
aI93165
aI93166
aI93167
aI93168
aI93169
aI93170
aI93171
aI93172
aI93173
aI93174
aI93175
aI93176
aI93177
aa(lp27
I93233
aI93234
aI93235
aI93236
aI93237
aI93238
aI93239
aI93240
aI93241
aI93242
aI93243
aI93244
aI93245
aI93246
aI93247
aI93248
aI93249
aI93250
aI93251
aI93252
aI93253
aI93254
aI93255
aI93256
aI93257
aI93258
aI93259
aI93260
aI93261
aI93262
aI93263
aI93264
aI93265
aI93266
aI93267
aI93268
aI93269
aI93270
aI93271
aI93272
aI93273
aI93274
aI93275
aI93276
aI93277
aI93278
aI93279
aI93280
aI93281
aI93282
aI93283
aI93284
aI93285
aI93286
aI93287
aI93288
aI93289
aI93290
aI93291
aI93292
aI93293
aI93294
aI93295
aI93296
aI93297
aI93298
aI93299
aI93300
aI93301
aI93302
aI93303
aI93304
aI93305
aI93306
aI93307
aI93308
aI93309
aI93310
aI93311
aI93312
aI93313
aI93314
aI93315
aI93316
aI93317
aI93318
aI93319
aI93320
aI93321
aI93322
aI93323
aI93324
aI93325
aI93326
aI93327
aI93328
aI93329
aI93330
aI93331
aI93332
aI93333
aI93334
aI93335
aI93336
aI93337
aI93338
aI93339
aI93340
aI93341
aI93342
aI93343
aI93344
aI93345
aI93346
aI93347
aI93348
aI93349
aI93350
aI93351
aI93352
aI93353
aI93354
aI93355
aI93356
aI93357
aI93358
aI93359
aI93360
aI93361
aI93362
aI93363
aI93364
aI93365
aI93366
aI93367
aI93368
aI93369
aI93370
aI93371
aI93372
aI93373
aI93374
aI93375
aI93376
aI93377
aI93378
aI93379
aI93380
aI93381
aI93382
aI93383
aI93384
aI93385
aI93386
aI93387
aI93388
aI93389
aI93390
aI93391
aI93392
aI93393
aI93394
aI93395
aI93396
aI93397
aI93398
aI93399
aI93400
aI93401
aI93402
aI93403
aI93404
aI93405
aI93406
aI93407
aI93408
aI93409
aI93410
aI93411
aI93412
aI93413
aI93414
aI93415
aI93416
aI93417
aI93418
aI93419
aI93420
aI93421
aI93422
aI93423
aI93424
aI93425
aI93426
aI93427
aI93428
aI93429
aI93430
aI93431
aI93432
aI93433
aI93434
aI93435
aI93436
aI93437
aI93438
aI93439
aI93440
aI93441
aI93442
aI93443
aI93444
aI93445
aI93446
aI93447
aI93448
aI93449
aI93450
aI93451
aI93452
aI93453
aI93454
aI93455
aI93456
aa(lp28
I93462
aI93463
aI93464
aI93465
aI93466
aI93467
aI93468
aI93469
aI93470
aI93471
aI93472
aI93473
aI93474
aI93475
aI93476
aI93477
aI93478
aI93479
aI93480
aI93481
aI93482
aI93483
aI93484
aI93485
aI93486
aI93487
aI93488
aI93489
aI93490
aI93491
aI93492
aI93493
aI93494
aI93495
aI93496
aI93497
aI93498
aI93499
aI93500
aI93501
aI93502
aI93503
aI93504
aI93505
aI93506
aI93507
aI93508
aI93509
aI93510
aI93511
aI93512
aI93513
aI93514
aI93515
aI93516
aI93517
aI93518
aI93519
aI93520
aI93521
aI93522
aI93523
aI93524
aI93525
aI93526
aI93527
aI93528
aI93529
aI93530
aI93531
aI93532
aI93533
aI93534
aI93535
aI93536
aI93537
aI93538
aI93539
aI93540
aI93541
aI93542
aI93543
aI93544
aI93545
aI93546
aI93547
aI93548
aI93549
aI93550
aI93551
aI93552
aI93553
aI93554
aI93555
aI93556
aI93557
aI93558
aI93559
aI93560
aI93561
aI93562
aI93563
aI93564
aI93565
aI93566
aI93567
aI93568
aI93569
aI93570
aa(lp29
I93582
aI93583
aI93584
aI93585
aI93586
aI93587
aI93588
aI93589
aI93590
aI93591
aI93592
aI93593
aI93594
aI93595
aI93596
aI93597
aI93598
aI93599
aI93600
aI93601
aI93602
aI93603
aI93604
aI93605
aI93606
aI93607
aI93608
aI93609
aI93610
aI93611
aI93612
aI93613
aI93614
aI93615
aI93616
aI93617
aI93618
aI93619
aI93620
aI93621
aI93622
aI93623
aI93624
aI93625
aI93626
aI93627
aI93628
aI93629
aI93630
aI93631
aI93632
aI93633
aI93634
aI93635
aI93636
aI93637
aI93638
aI93639
aI93640
aI93641
aI93642
aI93643
aI93644
aI93645
aI93646
aI93647
aI93648
aI93649
aI93650
aI93651
aI93652
aI93653
aI93654
aI93655
aI93656
aI93657
aI93658
aI93659
aI93660
aI93661
aI93662
aI93663
aI93664
aI93665
aI93666
aI93667
aI93668
aI93669
aI93670
aI93671
aI93672
aI93673
aI93674
aI93675
aI93676
aI93677
aI93678
aI93679
aI93680
aI93681
aI93682
aI93683
aI93684
aI93685
aI93686
aI93687
aa(lp30
I93703
aI93704
aI93705
aI93706
aI93707
aI93708
aI93709
aI93710
aI93711
aI93712
aI93713
aI93714
aI93715
aI93716
aI93717
aI93718
aI93719
aI93720
aI93721
aI93722
aI93723
aI93724
aI93725
aI93726
aI93727
aI93728
aI93729
aI93730
aI93731
aI93732
aI93733
aI93734
aI93735
aI93736
aI93737
aI93738
aI93739
aI93740
aI93741
aI93742
aI93743
aI93744
aI93745
aI93746
aI93747
aI93748
aI93749
aI93750
aI93751
aI93752
aI93753
aI93754
aI93755
aI93756
aI93757
aI93758
aI93759
aI93760
aI93761
aI93762
aI93763
aI93764
aI93765
aI93766
aI93767
aI93768
aI93769
aI93770
aI93771
aI93772
aI93773
aI93774
aI93775
aI93776
aI93777
aI93778
aI93779
aI93780
aI93781
aI93782
aI93783
aI93784
aI93785
aI93786
aI93787
aI93788
aI93789
aI93790
aI93791
aI93792
aI93793
aI93794
aI93795
aI93796
aI93797
aI93798
aI93799
aI93800
aI93801
aI93802
aI93803
aI93804
aI93805
aI93806
aI93807
aI93808
aI93809
aI93810
aa(lp31
I93825
aI93826
aI93827
aI93828
aI93829
aI93830
aI93831
aI93832
aI93833
aI93834
aI93835
aI93836
aI93837
aI93838
aI93839
aI93840
aI93841
aI93842
aI93843
aI93844
aI93845
aI93846
aI93847
aI93848
aI93849
aI93850
aI93851
aI93852
aI93853
aI93854
aI93855
aI93856
aI93857
aI93858
aI93859
aI93860
aI93861
aI93862
aI93863
aI93864
aI93865
aI93866
aI93867
aI93868
aI93869
aI93870
aI93871
aI93872
aI93873
aI93874
aI93875
aI93876
aI93877
aI93878
aI93879
aI93880
aI93881
aI93882
aI93883
aI93884
aI93885
aI93886
aI93887
aI93888
aI93889
aI93890
aI93891
aI93892
aI93893
aI93894
aI93895
aI93896
aI93897
aI93898
aI93899
aI93900
aI93901
aI93902
aI93903
aI93904
aI93905
aI93906
aI93907
aI93908
aI93909
aI93910
aI93911
aI93912
aI93913
aI93914
aI93915
aI93916
aI93917
aI93918
aI93919
aI93920
aI93921
aI93922
aI93923
aI93924
aI93925
aI93926
aI93927
aI93928
aI93929
aa(lp32
I95078
aI95079
aI95080
aI95081
aI95082
aI95083
aI95084
aI95085
aI95086
aI95087
aI95088
aI95089
aI95090
aI95091
aI95092
aI95093
aI95094
aI95095
aI95096
aI95097
aI95098
aI95099
aI95100
aI95101
aI95102
aI95103
aI95104
aI95105
aI95106
aI95107
aI95108
aI95109
aI95110
aI95111
aI95112
aI95113
aI95114
aI95115
aI95116
aI95117
aI95118
aI95119
aI95120
aI95121
aI95122
aI95123
aI95124
aI95125
aI95126
aI95127
aI95128
aI95129
aI95130
aI95131
aI95132
aI95133
aI95134
aa(lp33
I95197
aI95198
aI95199
aI95200
aI95201
aI95202
aI95203
aI95204
aI95205
aI95206
aI95207
aI95208
aI95209
aI95210
aI95211
aI95212
aI95213
aI95214
aI95215
aI95216
aI95217
aI95218
aI95219
aI95220
aI95221
aI95222
aI95223
aI95224
aI95225
aI95226
aI95227
aI95228
aI95229
aI95230
aI95231
aI95232
aI95233
aI95234
aI95235
aI95236
aI95237
aI95238
aI95239
aI95240
aI95241
aI95242
aI95243
aI95244
aI95245
aI95246
aI95247
aI95248
aI95249
aI95250
aI95251
aI95252
aI95253
aa(lp34
I95315
aI95316
aI95317
aI95318
aI95319
aI95320
aI95321
aI95322
aI95323
aI95324
aI95325
aI95326
aI95327
aI95328
aI95329
aI95330
aI95331
aI95332
aI95333
aI95334
aI95335
aI95336
aI95337
aI95338
aI95339
aI95340
aI95341
aI95342
aI95343
aI95344
aI95345
aI95346
aI95347
aI95348
aI95349
aI95350
aI95351
aI95352
aI95353
aI95354
aI95355
aI95356
aI95357
aI95358
aI95359
aI95360
aI95361
aI95362
aI95363
aI95364
aI95365
aI95366
aI95367
aI95368
aI95369
aI95370
aI95371
aa(lp35
I95434
aI95435
aI95436
aI95437
aI95438
aI95439
aI95440
aI95441
aI95442
aI95443
aI95444
aI95445
aI95446
aI95447
aI95448
aI95449
aI95450
aI95451
aI95452
aI95453
aI95454
aI95455
aI95456
aI95457
aI95458
aI95459
aI95460
aI95461
aI95462
aI95463
aI95464
aI95465
aI95466
aI95467
aI95468
aI95469
aI95470
aI95471
aI95472
aI95473
aI95474
aI95475
aI95476
aI95477
aI95478
aI95479
aI95480
aI95481
aI95482
aI95483
aI95484
aI95485
aI95486
aI95487
aI95488
aI95489
aI95490
aa(lp36
I95553
aI95554
aI95555
aI95556
aI95557
aI95558
aI95559
aI95560
aI95561
aI95562
aI95563
aI95564
aI95565
aI95566
aI95567
aI95568
aI95569
aI95570
aI95571
aI95572
aI95573
aI95574
aI95575
aI95576
aI95577
aI95578
aI95579
aI95580
aI95581
aI95582
aI95583
aI95584
aI95585
aI95586
aI95587
aI95588
aI95589
aI95590
aI95591
aI95592
aI95593
aI95594
aI95595
aI95596
aI95597
aI95598
aI95599
aI95600
aI95601
aI95602
aI95603
aI95604
aI95605
aI95606
aI95607
aI95608
aI95609
aa(lp37
I98676
aI98677
aI98678
aI98679
aI98680
aI98681
aI98682
aI98683
aI98684
aI98685
aI98686
aI98687
aI98688
aI98689
aI98690
aI98691
aI98692
aI98693
aI98694
aI98695
aI98696
aI98697
aI98698
aI98699
aI98700
aI98701
aI98702
aI98703
aI98704
aI98705
aI98706
aI98707
aI98708
aI98709
aI98710
aI98711
aI98712
aI98713
aI98714
aI98715
aI98716
aI98717
aI98718
aI98719
aI98720
aI98721
aI98722
aI98723
aI98724
aI98725
aI98726
aI98727
aI98728
aI98729
aI98730
aI98731
aI98732
aI98733
aI98734
aI98735
aI98736
aI98737
aI98738
aI98739
aI98740
aI98741
aI98742
aI98743
aI98744
aI98745
aI98746
aI98747
aI98748
aI98749
aI98750
aI98751
aI98752
aI98753
aI98754
aI98755
aI98756
aI98757
aI98758
aI98759
aI98760
aI98761
aI98762
aI98763
aI98764
aI98765
aI98766
aI98767
aI98768
aI98769
aI98770
aI98771
aI98772
aI98773
aI98774
aI98775
aI98776
aI98777
aI98778
aI98779
aI98780
aI98781
aI98782
aI98783
aI98784
aI98785
aI98786
aI98787
aa(lp38
I98854
aI98855
aI98856
aI98857
aI98858
aI98859
aI98860
aI98861
aI98862
aI98863
aI98864
aI98865
aI98866
aI98867
aI98868
aI98869
aI98870
aI98871
aI98872
aI98873
aI98874
aI98875
aI98876
aI98877
aI98878
aI98879
aI98880
aI98881
aI98882
aI98883
aI98884
aI98885
aI98886
aI98887
aI98888
aI98889
aI98890
aI98891
aI98892
aI98893
aI98894
aI98895
aI98896
aI98897
aI98898
aI98899
aI98900
aI98901
aI98902
aI98903
aI98904
aI98905
aI98906
aI98907
aI98908
aI98909
aI98910
aa(lp39
I98927
aI98928
aI98929
aI98930
aI98931
aI98932
aI98933
aI98934
aI98935
aI98936
aI98937
aI98938
aI98939
aI98940
aI98941
aI98942
aI98943
aI98944
aI98945
aI98946
aI98947
aI98948
aI98949
aI98950
aI98951
aI98952
aI98953
aI98954
aI98955
aI98956
aI98957
aI98958
aI98959
aI98960
aI98961
aI98962
aI98963
aI98964
aI98965
aI98966
aI98967
aI98968
aI98969
aI98970
aI98971
aI98972
aI98973
aI98974
aI98975
aI98976
aI98977
aI98978
aI98979
aI98980
aI98981
aI98982
aI98983
aI98984
aI98985
aI98986
aI98987
aI98988
aI98989
aI98990
aI98991
aI98992
aI98993
aI98994
aI98995
aI98996
aI98997
aI98998
aI98999
aI99000
aI99001
aI99002
aI99003
aI99004
aI99005
aI99006
aI99007
aI99008
aI99009
aI99010
aI99011
aI99012
aI99013
aI99014
aI99015
aI99016
aI99017
aI99018
aI99019
aI99020
aI99021
aI99022
aI99023
aI99024
aI99025
aI99026
aI99027
aI99028
aI99029
aI99030
aa(lp40
I99038
aI99039
aI99040
aI99041
aI99042
aI99043
aI99044
aI99045
aI99046
aI99047
aI99048
aI99049
aI99050
aI99051
aI99052
aI99053
aI99054
aI99055
aI99056
aI99057
aI99058
aI99059
aI99060
aI99061
aI99062
aI99063
aI99064
aI99065
aI99066
aI99067
aI99068
aI99069
aI99070
aI99071
aI99072
aI99073
aI99074
aI99075
aI99076
aI99077
aI99078
aI99079
aI99080
aI99081
aI99082
aI99083
aI99084
aI99085
aI99086
aI99087
aI99088
aI99089
aI99090
aI99091
aI99092
aI99093
aI99094
aa(lp41
I99095
aI99096
aI99097
aI99098
aI99099
aI99100
aI99101
aI99102
aI99103
aI99104
aI99105
aI99106
aI99107
aI99108
aI99109
aI99110
aI99111
aI99112
aI99113
aI99114
aI99115
aI99116
aI99117
aI99118
aI99119
aI99120
aI99121
aI99122
aI99123
aI99124
aI99125
aI99126
aI99127
aI99128
aI99129
aI99130
aI99131
aI99132
aI99133
aI99134
aI99135
aI99136
aI99137
aI99138
aI99139
aI99140
aI99141
aI99142
aI99143
aI99144
aI99145
aI99146
aI99147
aI99148
aI99149
aI99150
aI99151
aa(lp42
I99179
aI99180
aI99181
aI99182
aI99183
aI99184
aI99185
aI99186
aI99187
aI99188
aI99189
aI99190
aI99191
aI99192
aI99193
aI99194
aI99195
aI99196
aI99197
aI99198
aI99199
aI99200
aI99201
aI99202
aI99203
aI99204
aI99205
aI99206
aI99207
aI99208
aI99209
aI99210
aI99211
aI99212
aI99213
aI99214
aI99215
aI99216
aI99217
aI99218
aI99219
aI99220
aI99221
aI99222
aI99223
aI99224
aI99225
aI99226
aI99227
aI99228
aI99229
aI99230
aI99231
aI99232
aI99233
aI99234
aI99235
aI99236
aI99237
aI99238
aI99239
aI99240
aI99241
aI99242
aI99243
aI99244
aI99245
aI99246
aI99247
aI99248
aI99249
aI99250
aI99251
aI99252
aI99253
aI99254
aI99255
aI99256
aI99257
aI99258
aa(lp43
I99262
aI99263
aI99264
aI99265
aI99266
aI99267
aI99268
aI99269
aI99270
aI99271
aI99272
aI99273
aI99274
aI99275
aI99276
aI99277
aI99278
aI99279
aI99280
aI99281
aI99282
aI99283
aI99284
aI99285
aI99286
aI99287
aI99288
aI99289
aI99290
aI99291
aI99292
aI99293
aI99294
aI99295
aI99296
aI99297
aI99298
aI99299
aI99300
aI99301
aI99302
aI99303
aI99304
aI99305
aI99306
aI99307
aI99308
aI99309
aI99310
aI99311
aI99312
aI99313
aI99314
aI99315
aI99316
aI99317
aI99318
aI99319
aI99320
aI99321
aI99322
aI99323
aI99324
aI99325
aI99326
aI99327
aI99328
aI99329
aI99330
aI99331
aI99332
aI99333
aI99334
aI99335
aI99336
aI99337
aI99338
aI99339
aI99340
aI99341
aI99342
aI99343
aI99344
aI99345
aI99346
aI99347
aI99348
aI99349
aI99350
aI99351
aI99352
aI99353
aI99354
aI99355
aI99356
aI99357
aI99358
aI99359
aI99360
aI99361
aI99362
aI99363
aI99364
aI99365
aI99366
aI99367
aI99368
aa(lp44
I103760
aI103761
aI103762
aI103763
aI103764
aI103765
aI103766
aI103767
aI103768
aI103769
aI103770
aI103771
aI103772
aI103773
aI103774
aI103775
aI103776
aI103777
aI103778
aI103779
aI103780
aI103781
aI103782
aI103783
aI103784
aI103785
aI103786
aI103787
aI103788
aI103789
aI103790
aI103791
aI103792
aI103793
aI103794
aI103795
aI103796
aI103797
aI103798
aI103799
aI103800
aI103801
aI103802
aI103803
aI103804
aI103805
aI103806
aI103807
aI103808
aI103809
aI103810
aI103811
aI103812
aI103813
aI103814
aI103815
aI103816
aa(lp45
I104174
aI104175
aI104176
aI104177
aI104178
aI104179
aI104180
aI104181
aI104182
aI104183
aI104184
aI104185
aI104186
aI104187
aI104188
aI104189
aI104190
aI104191
aI104192
aI104193
aI104194
aI104195
aI104196
aI104197
aI104198
aI104199
aI104200
aI104201
aI104202
aI104203
aI104204
aI104205
aI104206
aI104207
aI104208
aI104209
aI104210
aI104211
aI104212
aI104213
aI104214
aI104215
aI104216
aI104217
aI104218
aI104219
aI104220
aI104221
aI104222
aI104223
aI104224
aI104225
aI104226
aI104227
aI104228
aI104229
aI104230
aI104231
aI104232
aI104233
aI104234
aI104235
aI104236
aI104237
aI104238
aI104239
aI104240
aI104241
aI104242
aI104243
aI104244
aI104245
aI104246
aI104247
aI104248
aI104249
aI104250
aI104251
aI104252
aI104253
aI104254
aI104255
aI104256
aI104257
aI104258
aI104259
aI104260
aI104261
aI104262
aI104263
aI104264
aI104265
aI104266
aI104267
aI104268
aI104269
aI104270
aI104271
aI104272
aI104273
aI104274
aI104275
aI104276
aI104277
aI104278
aI104279
aI104280
aI104281
aI104282
aI104283
aI104284
aI104285
aI104286
aI104287
aI104288
aI104289
aI104290
aI104291
aI104292
aI104293
aI104294
aI104295
aI104296
aI104297
aI104298
aI104299
aI104300
aI104301
aI104302
aI104303
aI104304
aI104305
aI104306
aI104307
aI104308
aI104309
aI104310
aI104311
aI104312
aI104313
aI104314
aI104315
aI104316
aI104317
aI104318
aI104319
aI104320
aI104321
aI104322
aI104323
aI104324
aI104325
aI104326
aI104327
aI104328
aI104329
aI104330
aI104331
aI104332
aI104333
aI104334
aI104335
aI104336
aI104337
aI104338
aI104339
aI104340
aI104341
aI104342
aI104343
aI104344
aI104345
aI104346
aI104347
aI104348
aI104349
aI104350
aI104351
aI104352
aI104353
aI104354
aI104355
aI104356
aI104357
aI104358
aI104359
aI104360
aI104361
aI104362
aI104363
aI104364
aI104365
aI104366
aI104367
aI104368
aI104369
aI104370
aI104371
aI104372
aI104373
aI104374
aI104375
aI104376
aI104377
aI104378
aI104379
aI104380
aI104381
aI104382
aI104383
aI104384
aI104385
aI104386
aI104387
aI104388
aI104389
aI104390
aI104391
aI104392
aI104393
aI104394
aI104395
aI104396
aI104397
aI104398
aI104399
aI104400
aI104401
aa(lp46
I104412
aI104413
aI104414
aI104415
aI104416
aI104417
aI104418
aI104419
aI104420
aI104421
aI104422
aI104423
aI104424
aI104425
aI104426
aI104427
aI104428
aI104429
aI104430
aI104431
aI104432
aI104433
aI104434
aI104435
aI104436
aI104437
aI104438
aI104439
aI104440
aI104441
aI104442
aI104443
aI104444
aI104445
aI104446
aI104447
aI104448
aI104449
aI104450
aI104451
aI104452
aI104453
aI104454
aI104455
aI104456
aI104457
aI104458
aI104459
aI104460
aI104461
aI104462
aI104463
aI104464
aI104465
aI104466
aI104467
aI104468
aI104469
aI104470
aI104471
aI104472
aI104473
aI104474
aI104475
aI104476
aI104477
aI104478
aI104479
aI104480
aI104481
aI104482
aI104483
aI104484
aI104485
aI104486
aI104487
aI104488
aI104489
aI104490
aI104491
aI104492
aI104493
aI104494
aI104495
aI104496
aI104497
aI104498
aI104499
aI104500
aI104501
aI104502
aI104503
aI104504
aI104505
aI104506
aI104507
aI104508
aI104509
aI104510
aI104511
aI104512
aI104513
aI104514
aI104515
aI104516
aI104517
aI104518
aI104519
aI104520
aI104521
aI104522
aI104523
aI104524
aI104525
aI104526
aI104527
aI104528
aI104529
aI104530
aI104531
aI104532
aI104533
aI104534
aI104535
aI104536
aI104537
aI104538
aI104539
aI104540
aI104541
aI104542
aI104543
aI104544
aI104545
aI104546
aI104547
aI104548
aI104549
aI104550
aI104551
aI104552
aI104553
aI104554
aI104555
aI104556
aI104557
aI104558
aI104559
aI104560
aI104561
aI104562
aI104563
aI104564
aI104565
aI104566
aI104567
aI104568
aI104569
aI104570
aI104571
aI104572
aI104573
aI104574
aI104575
aI104576
aI104577
aI104578
aI104579
aI104580
aI104581
aI104582
aI104583
aI104584
aI104585
aI104586
aI104587
aI104588
aI104589
aI104590
aI104591
aI104592
aI104593
aI104594
aI104595
aI104596
aI104597
aI104598
aI104599
aI104600
aI104601
aI104602
aI104603
aI104604
aI104605
aI104606
aI104607
aI104608
aI104609
aI104610
aI104611
aI104612
aI104613
aI104614
aI104615
aI104616
aI104617
aI104618
aI104619
aI104620
aI104621
aI104622
aI104623
aI104624
aa(lp47
I104664
aI104665
aI104666
aI104667
aI104668
aI104669
aI104670
aI104671
aI104672
aI104673
aI104674
aI104675
aI104676
aI104677
aI104678
aI104679
aI104680
aI104681
aI104682
aI104683
aI104684
aI104685
aI104686
aI104687
aI104688
aI104689
aI104690
aI104691
aI104692
aI104693
aI104694
aI104695
aI104696
aI104697
aI104698
aI104699
aI104700
aI104701
aI104702
aI104703
aI104704
aI104705
aI104706
aI104707
aI104708
aI104709
aI104710
aI104711
aI104712
aI104713
aI104714
aI104715
aI104716
aI104717
aI104718
aI104719
aI104720
aI104721
aI104722
aI104723
aI104724
aI104725
aI104726
aI104727
aI104728
aI104729
aI104730
aI104731
aI104732
aI104733
aI104734
aI104735
aI104736
aI104737
aI104738
aI104739
aI104740
aI104741
aI104742
aI104743
aI104744
aI104745
aI104746
aI104747
aI104748
aI104749
aI104750
aI104751
aI104752
aI104753
aI104754
aI104755
aI104756
aI104757
aI104758
aI104759
aI104760
aI104761
aI104762
aI104763
aI104764
aI104765
aI104766
aI104767
aI104768
aI104769
aI104770
aI104771
aI104772
aI104773
aI104774
aI104775
aI104776
aI104777
aI104778
aI104779
aI104780
aI104781
aI104782
aI104783
aI104784
aI104785
aI104786
aI104787
aI104788
aI104789
aI104790
aI104791
aI104792
aI104793
aI104794
aI104795
aI104796
aI104797
aI104798
aI104799
aI104800
aI104801
aI104802
aI104803
aI104804
aI104805
aI104806
aI104807
aI104808
aI104809
aI104810
aI104811
aI104812
aI104813
aI104814
aI104815
aI104816
aI104817
aI104818
aI104819
aI104820
aI104821
aI104822
aI104823
aI104824
aI104825
aI104826
aI104827
aI104828
aI104829
aI104830
aI104831
aI104832
aI104833
aI104834
aa(lp48
I104841
aI104842
aI104843
aI104844
aI104845
aI104846
aI104847
aI104848
aI104849
aI104850
aI104851
aI104852
aI104853
aI104854
aI104855
aI104856
aI104857
aI104858
aI104859
aI104860
aI104861
aI104862
aI104863
aI104864
aI104865
aI104866
aI104867
aI104868
aI104869
aI104870
aI104871
aI104872
aI104873
aI104874
aI104875
aI104876
aI104877
aI104878
aI104879
aI104880
aI104881
aI104882
aI104883
aI104884
aI104885
aI104886
aI104887
aI104888
aI104889
aI104890
aI104891
aI104892
aI104893
aI104894
aI104895
aI104896
aI104897
aa(lp49
I104917
aI104918
aI104919
aI104920
aI104921
aI104922
aI104923
aI104924
aI104925
aI104926
aI104927
aI104928
aI104929
aI104930
aI104931
aI104932
aI104933
aI104934
aI104935
aI104936
aI104937
aI104938
aI104939
aI104940
aI104941
aI104942
aI104943
aI104944
aI104945
aI104946
aI104947
aI104948
aI104949
aI104950
aI104951
aI104952
aI104953
aI104954
aI104955
aI104956
aI104957
aI104958
aI104959
aI104960
aI104961
aI104962
aI104963
aI104964
aI104965
aI104966
aI104967
aI104968
aI104969
aI104970
aI104971
aI104972
aI104973
aI104974
aI104975
aI104976
aI104977
aI104978
aI104979
aI104980
aI104981
aI104982
aI104983
aI104984
aI104985
aI104986
aI104987
aI104988
aI104989
aI104990
aI104991
aI104992
aI104993
aI104994
aI104995
aa(lp50
I105690
aI105691
aI105692
aI105693
aI105694
aI105695
aI105696
aI105697
aI105698
aI105699
aI105700
aI105701
aI105702
aI105703
aI105704
aI105705
aI105706
aI105707
aI105708
aI105709
aI105710
aI105711
aI105712
aI105713
aI105714
aI105715
aI105716
aI105717
aI105718
aI105719
aI105720
aI105721
aI105722
aI105723
aI105724
aI105725
aI105726
aI105727
aI105728
aI105729
aI105730
aI105731
aI105732
aI105733
aI105734
aI105735
aI105736
aI105737
aI105738
aI105739
aI105740
aI105741
aI105742
aI105743
aI105744
aI105745
aI105746
aa.