(lp0
(lp1
I5
aI11
aa(lp2
I232591
aa(lp3
I269018
aI269394
aI269563
aI269685
aI269936
aI270055
aI270141
aI270239
aI270508
aI270603
aI270693
aI270807
aI271054
aI271181
aI271350
aI271722
aa(lp4
I287492
aI287621
aI287714
aI288151
aI288244
aI288279
aI288325
aI288370
aI288835
aI288940
aI289048
aI289162
aI289952
aI290063
aI290175
aI290286
aa(lp5
I319000
aI319204
aI319482
aI319680
aI319879
aI320156
aI320360
aa(lp6
I346809
aI347872
aa(lp7
I353479
aI353627
aa(lp8
I358399
aI358510
aI359457
aI359569
aI359699
aI359961
aI360068
aI360176
aI360385
aI360493
aI360599
aI360871
aI360977
aI361085
aa(lp9
I368816
aI369352
aI369714
aI370262
aa(lp10
I372591
aI373036
aI373266
aI373483
aI373705
aI373953
aI374162
aI374432
aI374628
aI374915
aI375119
aI375404
aI375605
aa(lp11
I379938
aI380416
aI380892
aI381366
aI381840
aI382315
aI382789
aa(lp12
I389929
aI390641
aI391705
aI391918
aI392156
aa(lp13
I395520
aI395811
aI396001
aI396258
aI396484
aI396866
aI397353
aI397838
aI398102
aI398564
aa(lp14
I400007
aI400174
aI400461
aa(lp15
I415150
aa(lp16
I417513
aI417647
aI418372
aI418743
aI418951
aI419183
aI419504
aI419768
aI419866
aI420368
aI420723
aI420833
aa(lp17
I422874
aa(lp18
I523181
aa.