(lp0
(lp1
I69149
aa(lp2
I69212
aa(lp3
I69296
aI69323
aI69379
aI69407
aI69427
aa(lp4
I69491
aI69517
aa(lp5
I69602
aa(lp6
I69692
aa(lp7
I70884
aa(lp8
I71023
aa(lp9
I71085
aI71129
aa(lp10
I71187
aI71234
aI71290
aa(lp11
I71349
aI71359
aa(lp12
I71473
aa(lp13
I71577
aa(lp14
I86393
aa(lp15
I86460
aa(lp16
I86624
aa(lp17
I86690
aa(lp18
I87237
aa(lp19
I87400
aa(lp20
I87629
aa(lp21
I87804
aa(lp22
I87947
aI87980
aI88023
aI88053
aa(lp23
I88121
aI88164
aa(lp24
I88232
aa(lp25
I88320
aI88368
aa(lp26
I88475
aa(lp27
I88784
aa(lp28
I88893
aI88926
aa(lp29
I89034
aa(lp30
I89100
aa(lp31
I89425
aI89452
aI89471
aI89491
aa(lp32
I93880
aa(lp33
I93943
aI93996
aa(lp34
I94053
aa(lp35
I94117
aI94172
aa(lp36
I94264
aa(lp37
I94354
aa(lp38
I95314
aa(lp39
I97872
aI97928
aI97971
aI98027
aI98068
aa(lp40
I98125
aI98162
aa(lp41
I98220
aI98261
aI98291
aI98316
aa(lp42
I98380
aI98422
aI98472
aI98489
aI98518
aI98533
aI98580
aI98621
aa(lp43
I98940
aa(lp44
I99013
aI99039
aa(lp45
I99108
aI99136
aa(lp46
I99205
aI99232
aa(lp47
I99301
aI99328
aa(lp48
I99398
aI99420
aI99466
aI99496
aI99548
aa(lp49
I99710
aa(lp50
I100431
aa(lp51
I100523
aa(lp52
I100630
aa(lp53
I101870
aa(lp54
I101964
aa(lp55
I102056
aa(lp56
I102337
aa(lp57
I102434
aI102448
aI102486
aI102501
aI102508
aa(lp58
I102568
aa(lp59
I102666
aI102701
aa(lp60
I102769
aI102792
aI102826
aI102863
aa(lp61
I102931
aI102960
aa(lp62
I103026
aa(lp63
I106813
aa.