(lp0
I69149
aI69212
aI69296
aI69323
aI69379
aI69407
aI69427
aI69491
aI69517
aI69602
aI69692
aI70884
aI71023
aI71085
aI71129
aI71187
aI71234
aI71290
aI71349
aI71359
aI71473
aI71577
aI86393
aI86460
aI86624
aI86690
aI87237
aI87400
aI87629
aI87804
aI87947
aI87980
aI88023
aI88053
aI88121
aI88164
aI88232
aI88320
aI88368
aI88475
aI88784
aI88893
aI88926
aI89034
aI89100
aI89425
aI89452
aI89471
aI89491
aI93880
aI93943
aI93996
aI94053
aI94117
aI94172
aI94264
aI94354
aI95314
aI97872
aI97928
aI97971
aI98027
aI98068
aI98125
aI98162
aI98220
aI98261
aI98291
aI98316
aI98380
aI98422
aI98472
aI98489
aI98518
aI98533
aI98580
aI98621
aI98940
aI99013
aI99039
aI99108
aI99136
aI99205
aI99232
aI99301
aI99328
aI99398
aI99420
aI99466
aI99496
aI99548
aI99710
aI100431
aI100523
aI100630
aI101870
aI101964
aI102056
aI102337
aI102434
aI102448
aI102486
aI102501
aI102508
aI102568
aI102666
aI102701
aI102769
aI102792
aI102826
aI102863
aI102931
aI102960
aI103026
aI106813
a.