clmfit.parameter
Parameters
p0
(tRp1
(dp2
S'unique_symbols'
p3
(dp4
S'pos99466'
p5
ccopy_reg
_reconstructor
p6
(clmfit.parameter
Parameter
p7
c__builtin__
object
p8
Ntp9
Rp10
(S'pos99466'
p11
I99466
I00
NF-inf
Finf
NNNI99466
Ntp12
bsS'pos98291'
p13
g6
(g7
g8
Ntp14
Rp15
(S'pos98291'
p16
I98291
I00
NF-inf
Finf
NNNI98291
Ntp17
bsS'pos102056'
p18
g6
(g7
g8
Ntp19
Rp20
(S'pos102056'
p21
I102056
I00
NF-inf
Finf
NI0
NI102056
Ntp22
bsS'width100431'
p23
g6
(g7
g8
Ntp24
Rp25
(S'width100431'
p26
cnumpy.core.multiarray
scalar
p27
(cnumpy
dtype
p28
(S'f8'
p29
I0
I1
tp30
Rp31
(I3
S'<'
p32
NNNI-1
I-1
I0
tp33
bS'\x00\x00\x00\x00\x00\x00<@'
p34
tp35
Rp36
I01
NI7
I28
NNNI14
Ntp37
bsS'amp69407'
p38
g6
(g7
g8
Ntp39
Rp40
(S'amp69407'
p41
g27
(g31
S'\xfe\xeb.\xc4\xb8\xd3\xc2?'
p42
tp43
Rp44
I01
NI0
I1
Ng27
(g31
S'\xa4\x91\xfd\x07mEf?'
p45
tp46
Rp47
(dp48
S'width69407'
p49
g27
(g31
S'P\xbe\xea\xc7\x9f\xb0\x9c?'
p50
tp51
Rp52
sS'amp69427'
p53
g27
(g31
S'*^\xc3\xda\xe3\x13\xc0\xbf'
p54
tp55
Rp56
sS'amp69323'
p57
g27
(g31
S'\xb5\x99\xc66\xc9\xe4\x87?'
p58
tp59
Rp60
sS'width69427'
p61
g27
(g31
S'\x07zG\xfc\x8cf\xe2\xbf'
p62
tp63
Rp64
sS'amp69296'
p65
g27
(g31
S'\xf1\x0c5\xd8Jgm\xbf'
p66
tp67
Rp68
sS'amp69379'
p69
g27
(g31
S'\x18\xdc1r\xad\xe6\xac?'
p70
tp71
Rp72
sS'width69296'
p73
g27
(g31
S'2\x12\xcb2\xe7\xc3v\xbf'
p74
tp75
Rp76
sS'width69323'
p77
g27
(g31
S'\xd5\x9d\x8f\x11\xe5\xfe\xa2?'
p78
tp79
Rp80
sS'width69379'
p81
g27
(g31
S':\xfd\x18*\xa4>\xc6\xbf'
p82
tp83
Rp84
sF0.5
Ntp85
bsS'width97928'
p86
g6
(g7
g8
Ntp87
Rp88
(S'width97928'
p89
g27
(g31
S'\xde\xa8\xe7q\xf6\xff;@'
p90
tp91
Rp92
I01
NI7
I28
Ng27
(g31
S'Y\x0bkb\x9b\x1c\x11@'
p93
tp94
Rp95
(dp96
S'width97872'
p97
g27
(g31
S'\x12\xa9\x16!w\x80\xd6\xbf'
p98
tp99
Rp100
sS'width98068'
p101
g27
(g31
S'\xe9\rE\xae\xff\x92\xa4?'
p102
tp103
Rp104
sS'amp98027'
p105
g27
(g31
S'\xcc,`}}`q\xbf'
p106
tp107
Rp108
sS'amp97971'
p109
g27
(g31
S'\x14\x1arkI;\xc2\xbf'
p110
tp111
Rp112
sS'amp97928'
p113
g27
(g31
S'\xe3\x11\xf7wI\xf5\xe0\xbf'
p114
tp115
Rp116
sS'amp97872'
p117
g27
(g31
S'e|\xc5\xe5\xday\x99\xbf'
p118
tp119
Rp120
sS'width97971'
p121
g27
(g31
S'\xb6\x10LH\xf1\x05\xd7\xbf'
p122
tp123
Rp124
sS'amp98068'
p125
g27
(g31
S'\xec\xf6\xc8\xff\xbb\x8c\x94\xbf'
p126
tp127
Rp128
sS'width98027'
p129
g27
(g31
S'>-\x1f<\x8c2\xb9?'
p130
tp131
Rp132
sI14
Ntp133
bsS'amp102863'
p134
g6
(g7
g8
Ntp135
Rp136
(S'amp102863'
p137
g27
(g31
S'\xe0\x90^\xd1\xf9&\xb2?'
p138
tp139
Rp140
I01
NI0
I1
NNNF0.5
Ntp141
bsS'pos69491'
p142
g6
(g7
g8
Ntp143
Rp144
(S'pos69491'
p145
I69491
I00
NF-inf
Finf
NI0
NI69491
Ntp146
bsS'amp97928'
p147
g6
(g7
g8
Ntp148
Rp149
(g113
g27
(g31
S"@yG\x98\x1a'\x87?"
p150
tp151
Rp152
I01
NI0
I1
Ng27
(g31
S'H\xfcX\xc3\x9f\xdfN?'
p153
tp154
Rp155
(dp156
g101
g27
(g31
S'U\xb2\x8fa1\xbb\x91?'
p157
tp158
Rp159
sg105
g27
(g31
S'\xed\xf5\xdei\xf3]\x9b?'
p160
tp161
Rp162
sg109
g27
(g31
S'\xe6\x10Q\xeaZ\x19\xc4?'
p163
tp164
Rp165
sg97
g27
(g31
S'\xe2 OoY\xf7\xa3\xbf'
p166
tp167
Rp168
sg117
g27
(g31
S'5\xb6l\x16jd\xb8?'
p169
tp170
Rp171
sg89
g27
(g31
S'\xeb\x11\xf7wI\xf5\xe0\xbf'
p172
tp173
Rp174
sg121
g27
(g31
S'\xec\x86\n\x9c\xa3@\xc0\xbf'
p175
tp176
Rp177
sg125
g27
(g31
S'ph\xbbS\x02+{?'
p178
tp179
Rp180
sg129
g27
(g31
S'\xb6ep0\x05t\xa5?'
p181
tp182
Rp183
sF0.5
Ntp184
bsS'width99710'
p185
g6
(g7
g8
Ntp186
Rp187
(S'width99710'
p188
g27
(g31
S'\xc3j\xd3\xaaS&6@'
p189
tp190
Rp191
I01
NI7
I28
Ng27
(g31
S'\xfa\x7f\xa9\xce\xf8\x1c\xe0?'
p192
tp193
Rp194
(dp195
S'amp99710'
p196
g27
(g31
S'\x16\x03\xd61\xa1\xc9\xe6\xbf'
p197
tp198
Rp199
sI14
Ntp200
bsS'amp98518'
p201
g6
(g7
g8
Ntp202
Rp203
(S'amp98518'
p204
g27
(g31
S'\x10\x04\xaa\x97\xca,\x96?'
p205
tp206
Rp207
I01
NI0
I1
NNNF0.5
Ntp208
bsS'amp98162'
p209
g6
(g7
g8
Ntp210
Rp211
(S'amp98162'
p212
g27
(g31
S'\x98`\xed\x07e&\xba?'
p213
tp214
Rp215
I01
NI0
I1
Ng27
(g31
S'\xb3\xcfLx4\x96r?'
p216
tp217
Rp218
(dp219
S'amp98125'
p220
g27
(g31
S'\xe6\xe3\xed\xc6^\xdf\xcd?'
p221
tp222
Rp223
sS'width98162'
p224
g27
(g31
S'\xe2\x06\xefls\xbf\xe0?'
p225
tp226
Rp227
sS'width98125'
p228
g27
(g31
S'\xf4\x9b\x01\x98?j\xd0?'
p229
tp230
Rp231
sF0.5
Ntp232
bsS'pos97872'
p233
g6
(g7
g8
Ntp234
Rp235
(S'pos97872'
p236
I97872
I00
NF-inf
Finf
NI0
NI97872
Ntp237
bsS'width87980'
p238
g6
(g7
g8
Ntp239
Rp240
(S'width87980'
p241
g27
(g31
S'\xf0\xcc**\t\x916@'
p242
tp243
Rp244
I01
NI7
I28
Ng27
(g31
S'\xd7\x85\x0c\x9aq\x8f\xe8?'
p245
tp246
Rp247
(dp248
S'amp88023'
p249
g27
(g31
S'\xb3\xec\x1b\x0b;\x99\xb1\xbf'
p250
tp251
Rp252
sS'amp87980'
p253
g27
(g31
S'bZ$-\xba\xa2\xda\xbf'
p254
tp255
Rp256
sS'width88053'
p257
g27
(g31
S'4\xb9\xb6\xf7c*\xb3\xbf'
p258
tp259
Rp260
sS'amp87947'
p261
g27
(g31
S'}\xa5\x88\x14\x06T\xd0\xbf'
p262
tp263
Rp264
sS'amp88053'
p265
g27
(g31
S'\xfc\xacs!\x9d\xba\xc3?'
p266
tp267
Rp268
sS'width87947'
p269
g27
(g31
S'\t\x9fR\xa3U\xd1\xd4\xbf'
p270
tp271
Rp272
sS'width88023'
p273
g27
(g31
S'=\x8f\xb2!\x8b\xc3\xd9\xbf'
p274
tp275
Rp276
sI14
Ntp277
bsS'amp69491'
p278
g6
(g7
g8
Ntp279
Rp280
(S'amp69491'
p281
g27
(g31
S'\x9c\x02\xf4\x96\n\x11\xb2?'
p282
tp283
Rp284
I01
NI0
I1
Ng27
(g31
S'Rv\xec\xa2)\xb2S?'
p285
tp286
Rp287
(dp288
S'amp69517'
p289
g27
(g31
S'\xd3\xec\xd8\xba\x9e\xf1\xcb?'
p290
tp291
Rp292
sS'width69491'
p293
g27
(g31
S'3\xb1w\x8f\x13\xc6\xda\xbf'
p294
tp295
Rp296
sS'width69517'
p297
g27
(g31
S'\xc8>$\x91\x89Y\xde\xbf'
p298
tp299
Rp300
sF0.5
Ntp301
bsS'pos98027'
p302
g6
(g7
g8
Ntp303
Rp304
(S'pos98027'
p305
I98027
I00
NF-inf
Finf
NI0
NI98027
Ntp306
bsS'width88121'
p307
g6
(g7
g8
Ntp308
Rp309
(S'width88121'
p310
g27
(g31
S'\xea\xff\x00\xf4\xa9\x117@'
p311
tp312
Rp313
I01
NI7
I28
Ng27
(g31
S'\x0b\xa7\xa7\xfd/\xba\xe1?'
p314
tp315
Rp316
(dp317
S'amp88121'
p318
g27
(g31
S'\xbd\xf2\x15s\xaf;\xe4\xbf'
p319
tp320
Rp321
sS'amp88164'
p322
g27
(g31
S'.\xd8\xd3\x997\xa9\xac\xbf'
p323
tp324
Rp325
sS'width88164'
p326
g27
(g31
S'o4\xc7\xae\xd4y\xd5\xbf'
p327
tp328
Rp329
sI14
Ntp330
bsS'pos98162'
p331
g6
(g7
g8
Ntp332
Rp333
(S'pos98162'
p334
I98162
I00
NF-inf
Finf
NI0
NI98162
Ntp335
bsS'amp94354'
p336
g6
(g7
g8
Ntp337
Rp338
(S'amp94354'
p339
g27
(g31
S'\xc0\xdb\x8e\xee\x0e\xb1\x86?'
p340
tp341
Rp342
I01
NI0
I1
Ng27
(g31
S'u\xb6\xeeQ<\xd7D?'
p343
tp344
Rp345
(dp346
S'width94354'
p347
g27
(g31
S'qv9\xc4\xb0\xe1\xe6?'
p348
tp349
Rp350
sF0.5
Ntp351
bsS'False'
p352
I00
sS'width103026'
p353
g6
(g7
g8
Ntp354
Rp355
(S'width103026'
p356
g27
(g31
S'\x88\x9f\xbe\xae\x88"9@'
p357
tp358
Rp359
I01
NI7
I28
Ng27
(g31
S'%\xdf\xd9\xfd\x91]\xe5?'
p360
tp361
Rp362
(dp363
S'amp103026'
p364
g27
(g31
S'\xdf\xae\xfa<\xd9\xd5\xe6\xbf'
p365
tp366
Rp367
sI14
Ntp368
bsS'width88232'
p369
g6
(g7
g8
Ntp370
Rp371
(S'width88232'
p372
g27
(g31
S'\xc2\xbbf\xf8\xff\xff;@'
p373
tp374
Rp375
I01
NI7
I28
Ng27
(g31
S':\x1a\xe7[)\xd0\x0f@'
p376
tp377
Rp378
(dp379
S'amp88232'
p380
g27
(g31
S'j\xea\xe1\xdb\x82R\xe7\xbf'
p381
tp382
Rp383
sI14
Ntp384
bsS'amp103026'
p385
g6
(g7
g8
Ntp386
Rp387
(g364
g27
(g31
S'\x80\xb7\x1e\xa0\xe3\x13\xa3?'
p388
tp389
Rp390
I01
NI0
I1
Ng27
(g31
S'\x90\x1dgE\x11\xf0D?'
p391
tp392
Rp393
(dp394
g356
g27
(g31
S'\xdf\xae\xfa<\xd9\xd5\xe6\xbf'
p395
tp396
Rp397
sF0.5
Ntp398
bsS'width88053'
p399
g6
(g7
g8
Ntp400
Rp401
(g257
g27
(g31
S'xm\xd5\xff\xff\xff;@'
p402
tp403
Rp404
I01
NI7
I28
Ng27
(g31
S'[R\x84\xaf\xda\xd1\x04@'
p405
tp406
Rp407
(dp408
g249
g27
(g31
S'#\x97\xf1E]\x8c\xd7?'
p409
tp410
Rp411
sg253
g27
(g31
S'\xc2\xadh\xd8<$\x86?'
p412
tp413
Rp414
sg261
g27
(g31
S"\xb7'\xfdY\x8b\xb0\xa2?"
p415
tp416
Rp417
sg265
g27
(g31
S'\xce\xc0}\xfct$\xde?'
p418
tp419
Rp420
sg269
g27
(g31
S'|\x1f\xa9x\xd4\n\xa7?'
p421
tp422
Rp423
sg241
g27
(g31
S'?\xb9\xb6\xf7c*\xb3\xbf'
p424
tp425
Rp426
sg273
g27
(g31
S'\x8f\x8c\xfb>\xa1\xfe\xd1?'
p427
tp428
Rp429
sI14
Ntp430
bsS'pos88926'
p431
g6
(g7
g8
Ntp432
Rp433
(S'pos88926'
p434
I88926
I00
NF-inf
Finf
NI0
NI88926
Ntp435
bsS'amp71023'
p436
g6
(g7
g8
Ntp437
Rp438
(S'amp71023'
p439
g27
(g31
S'@-\xc1]i\x82\x87?'
p440
tp441
Rp442
I01
NI0
I1
Ng27
(g31
S'\\\x0c\x0b\xc4\xcf\x8a9?'
p443
tp444
Rp445
(dp446
S'width71023'
p447
g27
(g31
S'\xc3\xe6#\xae\xaa\xc7\xe6\xbf'
p448
tp449
Rp450
sF0.5
Ntp451
bsS'pos94117'
p452
g6
(g7
g8
Ntp453
Rp454
(S'pos94117'
p455
I94117
I00
NF-inf
Finf
NI0
NI94117
Ntp456
bsS'pos99548'
p457
g6
(g7
g8
Ntp458
Rp459
(S'pos99548'
p460
I99548
I00
NF-inf
Finf
NNNI99548
Ntp461
bsS'pos94053'
p462
g6
(g7
g8
Ntp463
Rp464
(S'pos94053'
p465
I94053
I00
NF-inf
Finf
NI0
NI94053
Ntp466
bsS'pos101870'
p467
g6
(g7
g8
Ntp468
Rp469
(S'pos101870'
p470
I101870
I00
NF-inf
Finf
NI0
NI101870
Ntp471
bsS'amp71187'
p472
g6
(g7
g8
Ntp473
Rp474
(S'amp71187'
p475
g27
(g31
S'\xb7\x04\xedlO\n\xda?'
p476
tp477
Rp478
I01
NI0
I1
NNNF0.5
Ntp479
bsS'width102826'
p480
g6
(g7
g8
Ntp481
Rp482
(S'width102826'
p483
g27
(g31
S'\xa4,w\x9b\xd5\x13\x1f@'
p484
tp485
Rp486
I01
NI7
I28
NNNI14
Ntp487
bsS'pos88475'
p488
g6
(g7
g8
Ntp489
Rp490
(S'pos88475'
p491
I88475
I00
NF-inf
Finf
NI0
NI88475
Ntp492
bsS'width69149'
p493
g6
(g7
g8
Ntp494
Rp495
(S'width69149'
p496
g27
(g31
S'\x0c\x93\xb5\xe9\x82\xf72@'
p497
tp498
Rp499
I01
NI7
I28
Ng27
(g31
S'\x95\xd9)\x1epi\xe5?'
p500
tp501
Rp502
(dp503
S'amp69149'
p504
g27
(g31
S'\x1aV\xbcQ\xb2\xbd\xe6\xbf'
p505
tp506
Rp507
sI14
Ntp508
bsS'True'
p509
I01
sS'width69407'
p510
g6
(g7
g8
Ntp511
Rp512
(g49
g27
(g31
S'\xe8\x9d;\xff\xff\xff;@'
p513
tp514
Rp515
I01
NI7
I28
Ng27
(g31
S'\xf2\xc8\x0b\x1f\x02\x9b\xd8?'
p516
tp517
Rp518
(dp519
g65
g27
(g31
S'\xcd\xba\xb0\x95~\x83b\xbf'
p520
tp521
Rp522
sg53
g27
(g31
S'\xd8h7\xa4\xef%\xe9?'
p523
tp524
Rp525
sg57
g27
(g31
S'\x05a\xc0\xae\x9e\x0c\xa8?'
p526
tp527
Rp528
sg61
g27
(g31
S'\xd7-\x88f?\xab\xba?'
p529
tp530
Rp531
sg41
g27
(g31
S'\x91\xc0\xea\xc7\x9f\xb0\x9c?'
p532
tp533
Rp534
sg69
g27
(g31
S'\x83\xb9!\xc7\xb6\xd3\xd4?'
p535
tp536
Rp537
sg73
g27
(g31
S'H2\xcb\xd4_\xcat?'
p538
tp539
Rp540
sg77
g27
(g31
S'f\xae\xd9\xcf\xec\xdf\xb5?'
p541
tp542
Rp543
sg81
g27
(g31
S'9\x9aW\xf0\x11\xca\xe2?'
p544
tp545
Rp546
sI14
Ntp547
bsS'width102701'
p548
g6
(g7
g8
Ntp549
Rp550
(S'width102701'
p551
g27
(g31
S'\xe09\x99:\xcd\xcb6@'
p552
tp553
Rp554
I01
NI7
I28
Ng27
(g31
S'U\xc32\x9b\xc0\xe0\xe0?'
p555
tp556
Rp557
(dp558
S'amp102666'
p559
g27
(g31
S'\xedA\x03$:\xe5\xc5\xbf'
p560
tp561
Rp562
sS'width102666'
p563
g27
(g31
S'\xf2\x0f\x92-\x05m\xd5\xbf'
p564
tp565
Rp566
sS'amp102701'
p567
g27
(g31
S'\xfd\xf5`k\x84\xaf\xe1\xbf'
p568
tp569
Rp570
sI14
Ntp571
bsS'width98068'
p572
g6
(g7
g8
Ntp573
Rp574
(g101
g27
(g31
S'i\x04\xf6\xff\xff\xff;@'
p575
tp576
Rp577
I01
NI7
I28
Ng27
(g31
S'R\x03)Y\xa9\x8f\xe2?'
p578
tp579
Rp580
(dp581
g97
g27
(g31
S'\x94*\xe1\x0c\xbd\x82w\xbf'
p582
tp583
Rp584
sg105
g27
(g31
S'_~0}\xd4\xce\xc6?'
p585
tp586
Rp587
sg109
g27
(g31
S'\xc1\xbd\x1a\x8a\xb7g~?'
p588
tp589
Rp590
sg117
g27
(g31
S'\xbc\xf8\x1c\xc0\x07\x98g?'
p591
tp592
Rp593
sg113
g27
(g31
S'W\xb2\x8fa1\xbb\x91?'
p594
tp595
Rp596
sg89
g27
(g31
S'\xa3\x05E\xae\xff\x92\xa4?'
p597
tp598
Rp599
sg121
g27
(g31
S'b:\xa9}7\x1a\xb7\xbf'
p600
tp601
Rp602
sg125
g27
(g31
S'\\\xa6\x0e\x9f\x82i\xe2?'
p603
tp604
Rp605
sg129
g27
(g31
S'\xaf\x8c\xff)(n\xd6?'
p606
tp607
Rp608
sI14
Ntp609
bsS'amp88121'
p610
g6
(g7
g8
Ntp611
Rp612
(g318
g27
(g31
S'\xde\xa2\x1ej\xf1\xcc\xc7?'
p613
tp614
Rp615
I01
NI0
I1
Ng27
(g31
S'D\x96\xdb\xa4f\xf4e?'
p616
tp617
Rp618
(dp619
g310
g27
(g31
S'\xbd\xf2\x15s\xaf;\xe4\xbf'
p620
tp621
Rp622
sg322
g27
(g31
S'RZV\xe0\x12\x19\xbf?'
p623
tp624
Rp625
sg326
g27
(g31
S'\xc8]\xe3Vw\xf7\xaf\xbf'
p626
tp627
Rp628
sF0.5
Ntp629
bsS'pos99013'
p630
g6
(g7
g8
Ntp631
Rp632
(S'pos99013'
p633
I99013
I00
NF-inf
Finf
NI0
NI99013
Ntp634
bsS'amp71234'
p635
g6
(g7
g8
Ntp636
Rp637
(S'amp71234'
p638
g27
(g31
S"`\x96\xdbW'\x01\x9d?"
p639
tp640
Rp641
I01
NI0
I1
NNNF0.5
Ntp642
bsS'amp98261'
p643
g6
(g7
g8
Ntp644
Rp645
(S'amp98261'
p646
g27
(g31
S'\x08\x96\xbc\xa0NG\xb6?'
p647
tp648
Rp649
I01
NI0
I1
NNNF0.5
Ntp650
bsS'width69491'
p651
g6
(g7
g8
Ntp652
Rp653
(g293
g27
(g31
S'\x0b(?\xfd\xff\xff;@'
p654
tp655
Rp656
I01
NI7
I28
Ng27
(g31
S'5\xbb\x12\xd3XZ\xea?'
p657
tp658
Rp659
(dp660
g289
g27
(g31
S'\xd3.}m\xe3\xab\xdf\xbf'
p661
tp662
Rp663
sg281
g27
(g31
S'7\xb1w\x8f\x13\xc6\xda\xbf'
p664
tp665
Rp666
sg297
g27
(g31
S';\x85\rQy\xd2\xc8\xbf'
p667
tp668
Rp669
sI14
Ntp670
bsS'pos98940'
p671
g6
(g7
g8
Ntp672
Rp673
(S'pos98940'
p674
I98940
I00
NF-inf
Finf
NI0
NI98940
Ntp675
bsS'pos102666'
p676
g6
(g7
g8
Ntp677
Rp678
(S'pos102666'
p679
I102666
I00
NF-inf
Finf
NI0
NI102666
Ntp680
bsS'amp98489'
p681
g6
(g7
g8
Ntp682
Rp683
(S'amp98489'
p684
g27
(g31
S'\xd0b[\\\x10\xfb\x97?'
p685
tp686
Rp687
I01
NI0
I1
NNNF0.5
Ntp688
bsS'pos69692'
p689
g6
(g7
g8
Ntp690
Rp691
(S'pos69692'
p692
I69692
I00
NF-inf
Finf
NI0
NI69692
Ntp693
bsS'amp102826'
p694
g6
(g7
g8
Ntp695
Rp696
(S'amp102826'
p697
g27
(g31
S'\x00\x00\x00\x00\xa8!\xb4='
p698
tp699
Rp700
I01
NI0
I1
NNNF0.5
Ntp701
bsS'amp69692'
p702
g6
(g7
g8
Ntp703
Rp704
(S'amp69692'
p705
g27
(g31
S'\x80\x05\x7f\xe2 5\x8b?'
p706
tp707
Rp708
I01
NI0
I1
Ng27
(g31
S'JH\x16%c\x8cM?'
p709
tp710
Rp711
(dp712
S'width69692'
p713
g27
(g31
S'\xfa\xc7\x0c-(\xe2\xe6?'
p714
tp715
Rp716
sF0.5
Ntp717
bsS'amp71473'
p718
g6
(g7
g8
Ntp719
Rp720
(S'amp71473'
p721
g27
(g31
S'p\xaf\xa3\xc4\x13\xe2\x99?'
p722
tp723
Rp724
I01
NI0
I1
Ng27
(g31
S'\xe7\xd1s\xfd\x8c\x9fV?'
p725
tp726
Rp727
(dp728
S'width71473'
p729
g27
(g31
S'\xa0\xa6\xad5\x87\xb7\xe5\xbf'
p730
tp731
Rp732
sF0.5
Ntp733
bsS'width94264'
p734
g6
(g7
g8
Ntp735
Rp736
(S'width94264'
p737
g27
(g31
S'\x03\xec\xf5\xfe\xff\xff;@'
p738
tp739
Rp740
I01
NI7
I28
Ng27
(g31
S'\xc2\xfe\x1c@\xb8{\xf8?'
p741
tp742
Rp743
(dp744
S'amp94264'
p745
g27
(g31
S'y\x0e\xc6\xa9G\xc9\xe6\xbf'
p746
tp747
Rp748
sI14
Ntp749
bsS'width87629'
p750
g6
(g7
g8
Ntp751
Rp752
(S'width87629'
p753
g27
(g31
S'\x87\x8b5\xfe\xff\xff;@'
p754
tp755
Rp756
I01
NI7
I28
Ng27
(g31
S'?u\xf3\x1b_\xff\xfd?'
p757
tp758
Rp759
(dp760
S'amp87629'
p761
g27
(g31
S'e\xad4}Dr\xe6\xbf'
p762
tp763
Rp764
sI14
Ntp765
bsS'width71290'
p766
g6
(g7
g8
Ntp767
Rp768
(S'width71290'
p769
g27
(g31
S'\x00\x00\x00\x00\x00\x00<@'
p770
tp771
Rp772
I01
NI7
I28
NNNI14
Ntp773
bsS'pos103026'
p774
g6
(g7
g8
Ntp775
Rp776
(S'pos103026'
p777
I103026
I00
NF-inf
Finf
NI0
NI103026
Ntp778
bsS'width98291'
p779
g6
(g7
g8
Ntp780
Rp781
(S'width98291'
p782
g27
(g31
S'\x1f[\x95\xc6\xfd\xff;@'
p783
tp784
Rp785
I01
NI7
I28
NNNI14
Ntp786
bsS'width87237'
p787
g6
(g7
g8
Ntp788
Rp789
(S'width87237'
p790
g27
(g31
S'\xa8\xfd\xff\xff\xff\xff;@'
p791
tp792
Rp793
I01
NI7
I28
Ng27
(g31
S'&\xabH\r\xc3\x1d\x81?'
p794
tp795
Rp796
(dp797
S'amp87237'
p798
g27
(g31
S'\xfb\x95.\xcf\xe6\xe1\xe6?'
p799
tp800
Rp801
sI14
Ntp802
bsS'pos98068'
p803
g6
(g7
g8
Ntp804
Rp805
(S'pos98068'
p806
I98068
I00
NF-inf
Finf
NI0
NI98068
Ntp807
bsS'pos69427'
p808
g6
(g7
g8
Ntp809
Rp810
(S'pos69427'
p811
I69427
I00
NF-inf
Finf
NI0
NI69427
Ntp812
bsS'pos89452'
p813
g6
(g7
g8
Ntp814
Rp815
(S'pos89452'
p816
I89452
I00
NF-inf
Finf
NI0
NI89452
Ntp817
bsS'width99136'
p818
g6
(g7
g8
Ntp819
Rp820
(S'width99136'
p821
g27
(g31
S'\xc7\xd2Z\x92\xad\xc7;@'
p822
tp823
Rp824
I01
NI7
I28
Ng27
(g31
S'b\x11\xd6_\xa9m\xea?'
p825
tp826
Rp827
(dp828
S'width99108'
p829
g27
(g31
S'8\xe9\x82\x9f\x05t\xca?'
p830
tp831
Rp832
sS'amp99136'
p833
g27
(g31
S'\xc5C.\xaa\xea\x88\xda\xbf'
p834
tp835
Rp836
sS'amp99108'
p837
g27
(g31
S'd\x9d\xee\xb6\xc1\x92\xdd\xbf'
p838
tp839
Rp840
sI14
Ntp841
bsS'amp88784'
p842
g6
(g7
g8
Ntp843
Rp844
(S'amp88784'
p845
g27
(g31
S'\xd2\xad\xf6\xcc\xb6\xbe\xc8?'
p846
tp847
Rp848
I01
NI0
I1
Ng27
(g31
S'|X=\xce\xfe\xc4d?'
p849
tp850
Rp851
(dp852
S'width88784'
p853
g27
(g31
S'>KG\xd4\x17\xd2\xe6\xbf'
p854
tp855
Rp856
sF0.5
Ntp857
bsS'pos102826'
p858
g6
(g7
g8
Ntp859
Rp860
(S'pos102826'
p861
I102826
I00
NF-inf
Finf
NNNI102826
Ntp862
bsS'pos98533'
p863
g6
(g7
g8
Ntp864
Rp865
(S'pos98533'
p866
I98533
I00
NF-inf
Finf
NNNI98533
Ntp867
bsS'width101870'
p868
g6
(g7
g8
Ntp869
Rp870
(S'width101870'
p871
g27
(g31
S'\x00\x00\x00\x00\x00\x00<@'
p872
tp873
Rp874
I01
NI7
I28
Ng27
(g31
S'\x12\xe4\x84\xe3\x0bT\x05?'
p875
tp876
Rp877
(dp878
S'amp101870'
p879
g27
(g31
S'\x85Uke\xf0\xe1\xe6\xbf'
p880
tp881
Rp882
sI14
Ntp883
bsS'pos102434'
p884
g6
(g7
g8
Ntp885
Rp886
(S'pos102434'
p887
I102434
I00
NF-inf
Finf
NNNI102434
Ntp888
bsS'pos98125'
p889
g6
(g7
g8
Ntp890
Rp891
(S'pos98125'
p892
I98125
I00
NF-inf
Finf
NI0
NI98125
Ntp893
bsS'pos69602'
p894
g6
(g7
g8
Ntp895
Rp896
(S'pos69602'
p897
I69602
I00
NF-inf
Finf
NI0
NI69602
Ntp898
bsS'width98621'
p899
g6
(g7
g8
Ntp900
Rp901
(S'width98621'
p902
g27
(g31
S'KH\xb60\xaa\xe0;@'
p903
tp904
Rp905
I01
NI7
I28
NNNI14
Ntp906
bsS'pos89034'
p907
g6
(g7
g8
Ntp908
Rp909
(S'pos89034'
p910
I89034
I00
NF-inf
Finf
NI0
NI89034
Ntp911
bsS'amp99328'
p912
g6
(g7
g8
Ntp913
Rp914
(S'amp99328'
p915
g27
(g31
S'\xc8\xe7\xc0P:m\xa7?'
p916
tp917
Rp918
I01
NI0
I1
Ng27
(g31
S'V\xc5\x06\xd2\xfacU?'
p919
tp920
Rp921
(dp922
S'width99328'
p923
g27
(g31
S'HE\xdf\xce\xc1\x84\xd9\xbf'
p924
tp925
Rp926
sS'width99301'
p927
g27
(g31
S'Fyw\xbe9<\xdf?'
p928
tp929
Rp930
sS'amp99301'
p931
g27
(g31
S'\xc0\xf7\xf3\xa2_\xe9\xcb?'
p932
tp933
Rp934
sF0.5
Ntp935
bsS'width71187'
p936
g6
(g7
g8
Ntp937
Rp938
(S'width71187'
p939
g27
(g31
S'!\xdf\xf8\xff\xff\xff;@'
p940
tp941
Rp942
I01
NI7
I28
NNNI14
Ntp943
bsS'amp89471'
p944
g6
(g7
g8
Ntp945
Rp946
(S'amp89471'
p947
g27
(g31
S'\x80bMlPHj?'
p948
tp949
Rp950
I01
NI0
I1
Ng27
(g31
S'\xc9r\xb1\xb8O\x85\\?'
p951
tp952
Rp953
(dp954
S'width89452'
p955
g27
(g31
S'2\xc6\xc9\xef\x99\xe9\xe4\xbf'
p956
tp957
Rp958
sS'width89425'
p959
g27
(g31
S']\x96\x94 1\x9e\xce\xbf'
p960
tp961
Rp962
sS'amp89425'
p963
g27
(g31
S'@\xe0\x03\xfd\x9dX\xe1?'
p964
tp965
Rp966
sS'width89491'
p967
g27
(g31
S'\xa9\xfc\x8b@\x80\xd7\xd1?'
p968
tp969
Rp970
sS'amp89452'
p971
g27
(g31
S'\x9e\xce\xac\xb0\x05\x0c\xb8\xbf'
p972
tp973
Rp974
sS'width89471'
p975
g27
(g31
S'\xb9\xa67J\xf3\x04\xb0\xbf'
p976
tp977
Rp978
sS'amp89491'
p979
g27
(g31
S'\x03}\x89\xdf6,\xcf?'
p980
tp981
Rp982
sF0.5
Ntp983
bsS'pos99420'
p984
g6
(g7
g8
Ntp985
Rp986
(S'pos99420'
p987
I99420
I00
NF-inf
Finf
NNNI99420
Ntp988
bsS'pos102486'
p989
g6
(g7
g8
Ntp990
Rp991
(S'pos102486'
p992
I102486
I00
NF-inf
Finf
NNNI102486
Ntp993
bsS'Inf'
p994
Finf
sS'amp87237'
p995
g6
(g7
g8
Ntp996
Rp997
(g798
g27
(g31
S'\xbc;\\\x86`\x05\xd3?'
p998
tp999
Rp1000
I01
NI0
I1
Ng27
(g31
S'TUd\t\x9f\xae\x81?'
p1001
tp1002
Rp1003
(dp1004
g790
g27
(g31
S'\xfb\x95.\xcf\xe6\xe1\xe6?'
p1005
tp1006
Rp1007
sF0.5
Ntp1008
bsS'pos100431'
p1009
g6
(g7
g8
Ntp1010
Rp1011
(S'pos100431'
p1012
I100431
I00
NF-inf
Finf
NNNI100431
Ntp1013
bsS'pos99205'
p1014
g6
(g7
g8
Ntp1015
Rp1016
(S'pos99205'
p1017
I99205
I00
NF-inf
Finf
NI0
NI99205
Ntp1018
bsS'width98533'
p1019
g6
(g7
g8
Ntp1020
Rp1021
(S'width98533'
p1022
g27
(g31
S'\x0fx\xb6o\x99\x878@'
p1023
tp1024
Rp1025
I01
NI7
I28
NNNI14
Ntp1026
bsS'amp69379'
p1027
g6
(g7
g8
Ntp1028
Rp1029
(g69
g27
(g31
S'`W%/\xf5x\x83?'
p1030
tp1031
Rp1032
I01
NI0
I1
Ng27
(g31
S'\x83\xaaDa\xed3l?'
p1033
tp1034
Rp1035
(dp1036
g65
g27
(g31
S'\xe7x\xb6\x07\xa0\x04d?'
p1037
tp1038
Rp1039
sg49
g27
(g31
S'@\xb9!\xc7\xb6\xd3\xd4?'
p1040
tp1041
Rp1042
sg53
g27
(g31
S'\x1d,\xdbs\xd0n\xd1?'
p1043
tp1044
Rp1045
sg57
g27
(g31
S'\xf12\xf2\xf1\x1d(\xa1?'
p1046
tp1047
Rp1048
sg61
g27
(g31
S'j\x13L\x1d\xed\xf9\x82\xbf'
p1049
tp1050
Rp1051
sg41
g27
(g31
S'\x8a\xdc1r\xad\xe6\xac?'
p1052
tp1053
Rp1054
sg73
g27
(g31
S"'\x8c\xcb\xa4^\xd8}\xbf"
p1055
tp1056
Rp1057
sg77
g27
(g31
S'\xc5\xbf\xa8T(O\xa4?'
p1058
tp1059
Rp1060
sg81
g27
(g31
S'A\x02\x95+w\x99\xd3\xbf'
p1061
tp1062
Rp1063
sF0.5
Ntp1064
bsS'pos102508'
p1065
g6
(g7
g8
Ntp1066
Rp1067
(S'pos102508'
p1068
I102508
I00
NF-inf
Finf
NNNI102508
Ntp1069
bsS'width69296'
p1070
g6
(g7
g8
Ntp1071
Rp1072
(g73
g27
(g31
S'\x10t"\xea\xd726@'
p1073
tp1074
Rp1075
I01
NI7
I28
Ng27
(g31
S'A\x87\n\x99\x93\x85\xf8?'
p1076
tp1077
Rp1078
(dp1079
g65
g27
(g31
S'\xd0l\x7fd&\x07\xe0\xbf'
p1080
tp1081
Rp1082
sg49
g27
(g31
S'!B\xcb\xd4_\xcat?'
p1083
tp1084
Rp1085
sg53
g27
(g31
S's7\x0b\xf4\xf2P_?'
p1086
tp1087
Rp1088
sg57
g27
(g31
S';\x15\xae\x7f\x97\x0e\xd4\xbf'
p1089
tp1090
Rp1091
sg61
g27
(g31
S'\x82\xfbC+Eyy\xbf'
p1092
tp1093
Rp1094
sg41
g27
(g31
S'h\xfa\xca2\xe7\xc3v\xbf'
p1095
tp1096
Rp1097
sg69
g27
(g31
S'\xf5\x8a\xcb\xa4^\xd8}\xbf'
p1098
tp1099
Rp1100
sg77
g27
(g31
S'\xd2AS9\xb0\x14\xd2\xbf'
p1101
tp1102
Rp1103
sg81
g27
(g31
S'\xd6\xc7\x11\xbc\xa6\xb3\x92?'
p1104
tp1105
Rp1106
sI14
Ntp1107
bsS'pos102501'
p1108
g6
(g7
g8
Ntp1109
Rp1110
(S'pos102501'
p1111
I102501
I00
NF-inf
Finf
NNNI102501
Ntp1112
bsS'width98162'
p1113
g6
(g7
g8
Ntp1114
Rp1115
(g224
g27
(g31
S'\xdb/F\xff\xff\xff;@'
p1116
tp1117
Rp1118
I01
NI7
I28
Ng27
(g31
S'Rna\x07\x18\xe5#@'
p1119
tp1120
Rp1121
(dp1122
g220
g27
(g31
S'\xab\xe2FE\xf3c\xd0?'
p1123
tp1124
Rp1125
sg212
g27
(g31
S'\xe4\x06\xefls\xbf\xe0?'
p1126
tp1127
Rp1128
sg228
g27
(g31
S'S\xcdo\xbai\xa7\xd4\xbf'
p1129
tp1130
Rp1131
sI14
Ntp1132
bsS'pos71085'
p1133
g6
(g7
g8
Ntp1134
Rp1135
(S'pos71085'
p1136
I71085
I00
NF-inf
Finf
NI0
NI71085
Ntp1137
bsS'width88475'
p1138
g6
(g7
g8
Ntp1139
Rp1140
(S'width88475'
p1141
g27
(g31
S"\xcb\xb8'\xfe\xff\xff;@"
p1142
tp1143
Rp1144
I01
NI7
I28
Ng27
(g31
S'\xbaE\x85\xd8\xc9\x17\n@'
p1145
tp1146
Rp1147
(dp1148
S'amp88475'
p1149
g27
(g31
S'>\x8c\xb0XQ\xe2\xe6?'
p1150
tp1151
Rp1152
sI14
Ntp1153
bsS'width89471'
p1154
g6
(g7
g8
Ntp1155
Rp1156
(g975
g27
(g31
S'8\x81{&\x8eD.@'
p1157
tp1158
Rp1159
I01
NI7
I28
Ng27
(g31
S'\x87BQZ7\xf1)@'
p1160
tp1161
Rp1162
(dp1163
g955
g27
(g31
S'\x83\xcc\xe1VV\x96\xce\xbf'
p1164
tp1165
Rp1166
sg959
g27
(g31
S'\xbf\xabf\x8b\r\xbc\xc2\xbf'
p1167
tp1168
Rp1169
sg963
g27
(g31
S'\xe2\x178m\x1d \xcc?'
p1170
tp1171
Rp1172
sg947
g27
(g31
S'^\xa77J\xf3\x04\xb0\xbf'
p1173
tp1174
Rp1175
sg967
g27
(g31
S'\x11\xe0"3\xbfu\xaf?'
p1176
tp1177
Rp1178
sg971
g27
(g31
S'\xdd\xfd\xd9\xf6\x01\x0e\xe2\xbf'
p1179
tp1180
Rp1181
sg979
g27
(g31
S'i\x0c\xcc\xc5\x81V\xdd\xbf'
p1182
tp1183
Rp1184
sI14
Ntp1185
bsS'amp98940'
p1186
g6
(g7
g8
Ntp1187
Rp1188
(S'amp98940'
p1189
g27
(g31
S'\xb0\xb7\x05\xb6\x19R\x96?'
p1190
tp1191
Rp1192
I01
NI0
I1
Ng27
(g31
S'\x83+4\xaf\x94\xd1%?'
p1193
tp1194
Rp1195
(dp1196
S'width98940'
p1197
g27
(g31
S'\x82\x95\x9d\xf8\xa3l\xe0\xbf'
p1198
tp1199
Rp1200
sF0.5
Ntp1201
bsS'width86393'
p1202
g6
(g7
g8
Ntp1203
Rp1204
(S'width86393'
p1205
g27
(g31
S'\xa3\x05\xba\xcc\xff\xff;@'
p1206
tp1207
Rp1208
I01
NI7
I28
Ng27
(g31
S'\x06\x14\x05\x81\xcf\\\x0c@'
p1209
tp1210
Rp1211
(dp1212
S'amp86393'
p1213
g27
(g31
S'8\xab\x10\xd0C\x82\xdc\xbf'
p1214
tp1215
Rp1216
sI14
Ntp1217
bsS'width69427'
p1218
g6
(g7
g8
Ntp1219
Rp1220
(g61
g27
(g31
S'U3\xff\xff\xff\xff;@'
p1221
tp1222
Rp1223
I01
NI7
I28
Ng27
(g31
S'+{+\x80\x1c\x13\xe8?'
p1224
tp1225
Rp1226
(dp1227
g65
g27
(g31
S':\x0e`\xd7`\x16}?'
p1228
tp1229
Rp1230
sg49
g27
(g31
S'\xc9-\x88f?\xab\xba?'
p1231
tp1232
Rp1233
sg53
g27
(g31
S' \x8c\xbeKO\xde\xc5\xbf'
p1234
tp1235
Rp1236
sg57
g27
(g31
S'j<eAZ\ty\xbf'
p1237
tp1238
Rp1239
sg41
g27
(g31
S'\x0bzG\xfc\x8cf\xe2\xbf'
p1240
tp1241
Rp1242
sg69
g27
(g31
S's\x11L\x1d\xed\xf9\x82\xbf'
p1243
tp1244
Rp1245
sg73
g27
(g31
S'\x16\xfbC+Eyy\xbf'
p1246
tp1247
Rp1248
sg77
g27
(g31
S'\xd1oV\xf7\xe1\x16\xa6\xbf'
p1249
tp1250
Rp1251
sg81
g27
(g31
S'{E\x7f\xc33Yp?'
p1252
tp1253
Rp1254
sI14
Ntp1255
bsS'width102337'
p1256
g6
(g7
g8
Ntp1257
Rp1258
(S'width102337'
p1259
g27
(g31
S'b_\xd1\xff\xff\xff;@'
p1260
tp1261
Rp1262
I01
NI7
I28
Ng27
(g31
S'\x95lf\xd9F;\xf3?'
p1263
tp1264
Rp1265
(dp1266
S'amp102337'
p1267
g27
(g31
S'u\x8e\xa9\xa5\xd8\xe5\xe6\xbf'
p1268
tp1269
Rp1270
sI14
Ntp1271
bsS'amp93996'
p1272
g6
(g7
g8
Ntp1273
Rp1274
(S'amp93996'
p1275
g27
(g31
S'\x90\x8c\x9b\xbb\xc9b\xbf?'
p1276
tp1277
Rp1278
I01
NI0
I1
Ng27
(g31
S'\\\xc0\x8a\xf6\x91\xf8r?'
p1279
tp1280
Rp1281
(dp1282
S'width93943'
p1283
g27
(g31
S'&_\xd7\xde\x96\xef\xa6\xbf'
p1284
tp1285
Rp1286
sS'amp93943'
p1287
g27
(g31
S'\x8cRF\x8b\x1a\x8a\xbd?'
p1288
tp1289
Rp1290
sS'width93996'
p1291
g27
(g31
S'M"w@\'u\xe4\xbf'
p1292
tp1293
Rp1294
sF0.5
Ntp1295
bsS'width87400'
p1296
g6
(g7
g8
Ntp1297
Rp1298
(S'width87400'
p1299
g27
(g31
S'\x82\x12\xe8\xff\xff\xff;@'
p1300
tp1301
Rp1302
I01
NI7
I28
Ng27
(g31
S'\xb3U9\x9fz\x84\xf7?'
p1303
tp1304
Rp1305
(dp1306
S'amp87400'
p1307
g27
(g31
S'\x0c\xeb\x80\x0f\xb3\xc4\xe7\xbf'
p1308
tp1309
Rp1310
sI14
Ntp1311
bsS'amp98220'
p1312
g6
(g7
g8
Ntp1313
Rp1314
(S'amp98220'
p1315
g27
(g31
S'|\x94v\xfb\xe8\xf9\xbd?'
p1316
tp1317
Rp1318
I01
NI0
I1
NNNF0.5
Ntp1319
bsS'amp101870'
p1320
g6
(g7
g8
Ntp1321
Rp1322
(g879
g27
(g31
S'\x80\x00\x0e\xf0\x9c\x16\x96?'
p1323
tp1324
Rp1325
I01
NI0
I1
Ng27
(g31
S'Y\xe7{)\x9d\xab@?'
p1326
tp1327
Rp1328
(dp1329
g871
g27
(g31
S'\x85Uke\xf0\xe1\xe6\xbf'
p1330
tp1331
Rp1332
sF0.5
Ntp1333
bsS'amp102701'
p1334
g6
(g7
g8
Ntp1335
Rp1336
(g567
g27
(g31
S'\xbc\xd1\x8d\xc2\xffY\xed?'
p1337
tp1338
Rp1339
I01
NI0
I1
Ng27
(g31
S'Z\x1e\x9e\xfe"M\x89?'
p1340
tp1341
Rp1342
(dp1343
g559
g27
(g31
S'\xde\xd1)\xf4\x15\xa6\xc9?'
p1344
tp1345
Rp1346
sg563
g27
(g31
S'5L&\xc4\xbb\x0c\xca\xbf'
p1347
tp1348
Rp1349
sg551
g27
(g31
S'\xfd\xf5`k\x84\xaf\xe1\xbf'
p1350
tp1351
Rp1352
sF0.5
Ntp1353
bsS'pos102960'
p1354
g6
(g7
g8
Ntp1355
Rp1356
(S'pos102960'
p1357
I102960
I00
NF-inf
Finf
NI0
NI102960
Ntp1358
bsS'amp88053'
p1359
g6
(g7
g8
Ntp1360
Rp1361
(g265
g27
(g31
S'p\xfc[M\x82Q\xa3?'
p1362
tp1363
Rp1364
I01
NI0
I1
Ng27
(g31
S'\xf68\x05\xb3_ a?'
p1365
tp1366
Rp1367
(dp1368
g249
g27
(g31
S'\xe1\x7f\xef\xd4\xbd\xbe\xcc?'
p1369
tp1370
Rp1371
sg253
g27
(g31
S'\xb8jc\x8bzV\xb1?'
p1372
tp1373
Rp1374
sg257
g27
(g31
S'\xdd\xc0}\xfct$\xde?'
p1375
tp1376
Rp1377
sg261
g27
(g31
S'#\x8c\xb6\xe0\x89\x86\x90\xbf'
p1378
tp1379
Rp1380
sg269
g27
(g31
S'xs.5]m\xaa\xbf'
p1381
tp1382
Rp1383
sg241
g27
(g31
S'\x89\xacs!\x9d\xba\xc3?'
p1384
tp1385
Rp1386
sg273
g27
(g31
S'\xbf\x9f\xe6\x0bp\xea\xd6\xbf'
p1387
tp1388
Rp1389
sF0.5
Ntp1390
bsS'pos94264'
p1391
g6
(g7
g8
Ntp1392
Rp1393
(S'pos94264'
p1394
I94264
I00
NF-inf
Finf
NI0
NI94264
Ntp1395
bsS'amp99108'
p1396
g6
(g7
g8
Ntp1397
Rp1398
(g837
g27
(g31
S'@\xda\x93\x85\xb7>\xb0?'
p1399
tp1400
Rp1401
I01
NI0
I1
Ng27
(g31
S'\r9Z\x0cp\xbfU?'
p1402
tp1403
Rp1404
(dp1405
g829
g27
(g31
S'\xda\x86\xca\xfez\x9a\xda?'
p1406
tp1407
Rp1408
sg833
g27
(g31
S'j(\x84\xbb\x07\xa4\xcd?'
p1409
tp1410
Rp1411
sg821
g27
(g31
S'o\x9d\xee\xb6\xc1\x92\xdd\xbf'
p1412
tp1413
Rp1414
sF0.5
Ntp1415
bsS'width98027'
p1416
g6
(g7
g8
Ntp1417
Rp1418
(g129
g27
(g31
S'\xf0#\xb3N6t:@'
p1419
tp1420
Rp1421
I01
NI7
I28
Ng27
(g31
S'\xe2\xdd\xa6\x84SG\xf3?'
p1422
tp1423
Rp1424
(dp1425
g97
g27
(g31
S'\xe6\xbch0\xab\x91\xa7\xbf'
p1426
tp1427
Rp1428
sg101
g27
(g31
S'\xdd\x8c\xff)(n\xd6?'
p1429
tp1430
Rp1431
sg105
g27
(g31
S'G\xd1A4\x1ep\xe0\xbf'
p1432
tp1433
Rp1434
sg109
g27
(g31
S'n\xbd\xa5\xba\xa8\xc3\x97\xbf'
p1435
tp1436
Rp1437
sg113
g27
(g31
S'1gp0\x05t\xa5?'
p1438
tp1439
Rp1440
sg117
g27
(g31
S'\xf8\n\xca\x12\xd4\xdfF?'
p1441
tp1442
Rp1443
sg89
g27
(g31
S'*,\x1f<\x8c2\xb9?'
p1444
tp1445
Rp1446
sg121
g27
(g31
S"k0t\xb4\x83'\xd6\xbf"
p1447
tp1448
Rp1449
sg125
g27
(g31
S'Z\x04\n\xe8\x8a\xa8\xc3\xbf'
p1450
tp1451
Rp1452
sI14
Ntp1453
bsS'amp98291'
p1454
g6
(g7
g8
Ntp1455
Rp1456
(S'amp98291'
p1457
g27
(g31
S'\xb8L\xce\x84a\xf8\xa5?'
p1458
tp1459
Rp1460
I01
NI0
I1
NNNF0.5
Ntp1461
bsS'pos98621'
p1462
g6
(g7
g8
Ntp1463
Rp1464
(S'pos98621'
p1465
I98621
I00
NF-inf
Finf
NNNI98621
Ntp1466
bsS'width98125'
p1467
g6
(g7
g8
Ntp1468
Rp1469
(g228
g27
(g31
S't\xda\xbf\xff\xff\xff;@'
p1470
tp1471
Rp1472
I01
NI7
I28
Ng27
(g31
S')\xcd\xee\xb6\x10\x15\xdc?'
p1473
tp1474
Rp1475
(dp1476
g212
g27
(g31
S'\xf4\x9b\x01\x98?j\xd0?'
p1477
tp1478
Rp1479
sg220
g27
(g31
S'\xfcF\xf4\x94\xe5\xc2\xe0?'
p1480
tp1481
Rp1482
sg224
g27
(g31
S'Z\xcdo\xbai\xa7\xd4\xbf'
p1483
tp1484
Rp1485
sI14
Ntp1486
bsS'width71234'
p1487
g6
(g7
g8
Ntp1488
Rp1489
(S'width71234'
p1490
g27
(g31
S'\xa9\x0bM:\xfb\xff;@'
p1491
tp1492
Rp1493
I01
NI7
I28
NNNI14
Ntp1494
bsS'pos98472'
p1495
g6
(g7
g8
Ntp1496
Rp1497
(S'pos98472'
p1498
I98472
I00
NF-inf
Finf
NNNI98472
Ntp1499
bsS'amp102792'
p1500
g6
(g7
g8
Ntp1501
Rp1502
(S'amp102792'
p1503
g27
(g31
S'\xfb\xc4Tse\xa9\xea?'
p1504
tp1505
Rp1506
I01
NI0
I1
NNNF0.5
Ntp1507
bsS'amp94117'
p1508
g6
(g7
g8
Ntp1509
Rp1510
(S'amp94117'
p1511
g27
(g31
S'\xf4\x89\xac+\x04\xbd\xb3?'
p1512
tp1513
Rp1514
I01
NI0
I1
Ng27
(g31
S'm\xc0\xa7\xe1\x84,]?'
p1515
tp1516
Rp1517
(dp1518
S'amp94172'
p1519
g27
(g31
S'2\xfc\xff\xa0\xea\xa5\xba?'
p1520
tp1521
Rp1522
sS'width94172'
p1523
g27
(g31
S'7\xb7"\xda\xf5c\xa0\xbf'
p1524
tp1525
Rp1526
sS'width94117'
p1527
g27
(g31
S'\x03\x8a\xed\xe3\xd0\xb6\xe4?'
p1528
tp1529
Rp1530
sF0.5
Ntp1531
bsS'pos102769'
p1532
g6
(g7
g8
Ntp1533
Rp1534
(S'pos102769'
p1535
I102769
I00
NF-inf
Finf
NNNI102769
Ntp1536
bsS'amp88023'
p1537
g6
(g7
g8
Ntp1538
Rp1539
(g249
g27
(g31
S'\x1e<e\x11\\;\xc2?'
p1540
tp1541
Rp1542
I01
NI0
I1
Ng27
(g31
S'\x91\xf8\xf6T\xd5\xa9b?'
p1543
tp1544
Rp1545
(dp1546
g253
g27
(g31
S'\x1d\x06,\xee\xd3\xe2\xbb?'
p1547
tp1548
Rp1549
sg257
g27
(g31
S'+\x97\xf1E]\x8c\xd7?'
p1550
tp1551
Rp1552
sg261
g27
(g31
S'\xe9c\xc9\xd8\x13\x94\xae?'
p1553
tp1554
Rp1555
sg265
g27
(g31
S'\xe1\x7f\xef\xd4\xbd\xbe\xcc?'
p1556
tp1557
Rp1558
sg269
g27
(g31
S'<\xd5_\x96b\xe2^\xbf'
p1559
tp1560
Rp1561
sg241
g27
(g31
S'\xc7\xec\x1b\x0b;\x99\xb1\xbf'
p1562
tp1563
Rp1564
sg273
g27
(g31
S'\xbf\x10\xf2\xcc\r|\xd8\xbf'
p1565
tp1566
Rp1567
sF0.5
Ntp1568
bsS'pos87804'
p1569
g6
(g7
g8
Ntp1570
Rp1571
(S'pos87804'
p1572
I87804
I00
NF-inf
Finf
NNNI87804
Ntp1573
bsS'width71129'
p1574
g6
(g7
g8
Ntp1575
Rp1576
(S'width71129'
p1577
g27
(g31
S'\x19\x1f7\xfb\xff\xff;@'
p1578
tp1579
Rp1580
I01
NI7
I28
Ng27
(g31
S'\t4zo\x89\x13\x97@'
p1581
tp1582
Rp1583
(dp1584
S'amp71085'
p1585
g27
(g31
S'Y\x93<\xe4\xb7\xc0\xc2?'
p1586
tp1587
Rp1588
sS'amp71129'
p1589
g27
(g31
S'W\xeb\xb4\xbb*1\xe3?'
p1590
tp1591
Rp1592
sS'width71085'
p1593
g27
(g31
S'\x0b&\x16\xf8\x07\xc1\xd5?'
p1594
tp1595
Rp1596
sI14
Ntp1597
bsS'pos99710'
p1598
g6
(g7
g8
Ntp1599
Rp1600
(S'pos99710'
p1601
I99710
I00
NF-inf
Finf
NI0
NI99710
Ntp1602
bsS'width89425'
p1603
g6
(g7
g8
Ntp1604
Rp1605
(g959
g27
(g31
S'\xc8\xbb\xff\xff\xff\xff;@'
p1606
tp1607
Rp1608
I01
NI7
I28
Ng27
(g31
S'\xf8f\xedE\xbe\x92,@'
p1609
tp1610
Rp1611
(dp1612
g955
g27
(g31
S'\xab\x9aT\xc9Ig\xd5?'
p1613
tp1614
Rp1615
sg963
g27
(g31
S'1\x8b\xba^\xd1\xf4\xb5?'
p1616
tp1617
Rp1618
sg947
g27
(g31
S'\xb9\x95\x94 1\x9e\xce\xbf'
p1619
tp1620
Rp1621
sg967
g27
(g31
S'\xbc\xae\xf2\x17XR\xa2\xbf'
p1622
tp1623
Rp1624
sg971
g27
(g31
S'"c)\x03_Q\xdf?'
p1625
tp1626
Rp1627
sg975
g27
(g31
S'\xba\xacf\x8b\r\xbc\xc2\xbf'
p1628
tp1629
Rp1630
sg979
g27
(g31
S'.\x0b\x99Vr\x94v?'
p1631
tp1632
Rp1633
sI14
Ntp1634
bsS'width98472'
p1635
g6
(g7
g8
Ntp1636
Rp1637
(S'width98472'
p1638
g27
(g31
S'\x00\x00\x00\x00\x00\x00<@'
p1639
tp1640
Rp1641
I01
NI7
I28
NNNI14
Ntp1642
bsS'amp88232'
p1643
g6
(g7
g8
Ntp1644
Rp1645
(g380
g27
(g31
S'\xc0\xd4\xfb`l\xbb\x9a?'
p1646
tp1647
Rp1648
I01
NI0
I1
Ng27
(g31
S'\xcf\xc1B\xf4w\x12c?'
p1649
tp1650
Rp1651
(dp1652
g372
g27
(g31
S'j\xea\xe1\xdb\x82R\xe7\xbf'
p1653
tp1654
Rp1655
sF0.5
Ntp1656
bsS'width98489'
p1657
g6
(g7
g8
Ntp1658
Rp1659
(S'width98489'
p1660
g27
(g31
S'\xac\xf8\xff\xff\xff\xff;@'
p1661
tp1662
Rp1663
I01
NI7
I28
NNNI14
Ntp1664
bsS'pos102863'
p1665
g6
(g7
g8
Ntp1666
Rp1667
(S'pos102863'
p1668
I102863
I00
NF-inf
Finf
NNNI102863
Ntp1669
bsS'None'
p1670
NsS'amp86393'
p1671
g6
(g7
g8
Ntp1672
Rp1673
(g1213
g27
(g31
S'@w!\xc5\x90#\x86?'
p1674
tp1675
Rp1676
I01
NI0
I1
Ng27
(g31
S'\x0eC\xc3\xe2\x1b\x82M?'
p1677
tp1678
Rp1679
(dp1680
g1205
g27
(g31
S'8\xab\x10\xd0C\x82\xdc\xbf'
p1681
tp1682
Rp1683
sF0.5
Ntp1684
bsS'width99420'
p1685
g6
(g7
g8
Ntp1686
Rp1687
(S'width99420'
p1688
g27
(g31
S'\x00\x00\x00\x00\x00\x00<@'
p1689
tp1690
Rp1691
I01
NI7
I28
NNNI14
Ntp1692
bsS'amp99420'
p1693
g6
(g7
g8
Ntp1694
Rp1695
(S'amp99420'
p1696
g27
(g31
S'\xe0:<E9`\x8d?'
p1697
tp1698
Rp1699
I01
NI0
I1
NNNF0.5
Ntp1700
bsS'pos99398'
p1701
g6
(g7
g8
Ntp1702
Rp1703
(S'pos99398'
p1704
I99398
I00
NF-inf
Finf
NNNI99398
Ntp1705
bsS'pos89100'
p1706
g6
(g7
g8
Ntp1707
Rp1708
(S'pos89100'
p1709
I89100
I00
NF-inf
Finf
NI0
NI89100
Ntp1710
bsS'pos88893'
p1711
g6
(g7
g8
Ntp1712
Rp1713
(S'pos88893'
p1714
I88893
I00
NF-inf
Finf
NI0
NI88893
Ntp1715
bsS'pos101964'
p1716
g6
(g7
g8
Ntp1717
Rp1718
(S'pos101964'
p1719
I101964
I00
NF-inf
Finf
NI0
NI101964
Ntp1720
bsS'pos88320'
p1721
g6
(g7
g8
Ntp1722
Rp1723
(S'pos88320'
p1724
I88320
I00
NF-inf
Finf
NI0
NI88320
Ntp1725
bsS'amp99496'
p1726
g6
(g7
g8
Ntp1727
Rp1728
(S'amp99496'
p1729
g27
(g31
S' \xf4\xb4B\x04m\x8e?'
p1730
tp1731
Rp1732
I01
NI0
I1
NNNF0.5
Ntp1733
bsS'newaxis'
p1734
NsS'amp93880'
p1735
g6
(g7
g8
Ntp1736
Rp1737
(S'amp93880'
p1738
g27
(g31
S'\x88X\x14p,E\xb1?'
p1739
tp1740
Rp1741
I01
NI0
I1
Ng27
(g31
S'\xee=d\xcd\xca\xacX?'
p1742
tp1743
Rp1744
(dp1745
S'width93880'
p1746
g27
(g31
S'\xfcn.\xad\x1c\xd6\xe6\xbf'
p1747
tp1748
Rp1749
sF0.5
Ntp1750
bsS'width94172'
p1751
g6
(g7
g8
Ntp1752
Rp1753
(g1523
g27
(g31
S'\xba\x80\xf9\x01\x90\xf9;@'
p1754
tp1755
Rp1756
I01
NI7
I28
Ng27
(g31
S';WU7`\xa7\x18@'
p1757
tp1758
Rp1759
(dp1760
g1519
g27
(g31
S'v\xb2\xb4R\xa1\xb5\xe4\xbf'
p1761
tp1762
Rp1763
sg1511
g27
(g31
S'J\xb7"\xda\xf5c\xa0\xbf'
p1764
tp1765
Rp1766
sg1527
g27
(g31
S'(\xd7yz\x03\x9c\xd5?'
p1767
tp1768
Rp1769
sI14
Ntp1770
bsS'pos69296'
p1771
g6
(g7
g8
Ntp1772
Rp1773
(S'pos69296'
p1774
I69296
I00
NF-inf
Finf
NI0
NI69296
Ntp1775
bsS'amp87947'
p1776
g6
(g7
g8
Ntp1777
Rp1778
(g261
g27
(g31
S'\x00\xe4\xb8Y\xa0\x16^?'
p1779
tp1780
Rp1781
I01
NI0
I1
Ng27
(g31
S'\xafT\xd4\xe1\x95\x93`?'
p1782
tp1783
Rp1784
(dp1785
g249
g27
(g31
S'\x9fd\xc9\xd8\x13\x94\xae?'
p1786
tp1787
Rp1788
sg253
g27
(g31
S'8\xb3\xe5\xcbU\x84\xcb?'
p1789
tp1790
Rp1791
sg257
g27
(g31
S'\x18)\xfdY\x8b\xb0\xa2?'
p1792
tp1793
Rp1794
sg265
g27
(g31
S'\xb5\x85\xb6\xe0\x89\x86\x90\xbf'
p1795
tp1796
Rp1797
sg269
g27
(g31
S'\xb4K\x8d\xd0\x98\xad\xe0\xbf'
p1798
tp1799
Rp1800
sg241
g27
(g31
S'f\xa5\x88\x14\x06T\xd0\xbf'
p1801
tp1802
Rp1803
sg273
g27
(g31
S'\xe8\xe7\x89\xb1\x9fv\xba?'
p1804
tp1805
Rp1806
sF0.5
Ntp1807
bsS'little_endian'
p1808
I01
sS'width87947'
p1809
g6
(g7
g8
Ntp1810
Rp1811
(g269
g27
(g31
S'I\xf5\xe0\xff\x15\xff;@'
p1812
tp1813
Rp1814
I01
NI7
I28
Ng27
(g31
S'k\x84\x13\xe4\xdc\x80K@'
p1815
tp1816
Rp1817
(dp1818
g249
g27
(g31
S'S\xbf_\x96b\xe2^\xbf'
p1819
tp1820
Rp1821
sg253
g27
(g31
S'\xbaKo`u\x89\xd2\xbf'
p1822
tp1823
Rp1824
sg257
g27
(g31
S'\xa5\x1f\xa9x\xd4\n\xa7?'
p1825
tp1826
Rp1827
sg261
g27
(g31
S'\xacK\x8d\xd0\x98\xad\xe0\xbf'
p1828
tp1829
Rp1830
sg265
g27
(g31
S'Nx.5]m\xaa\xbf'
p1831
tp1832
Rp1833
sg241
g27
(g31
S',\x9fR\xa3U\xd1\xd4\xbf'
p1834
tp1835
Rp1836
sg273
g27
(g31
S'D\xe1\xea\xb2\td\xb8?'
p1837
tp1838
Rp1839
sI14
Ntp1840
bsS'pos93880'
p1841
g6
(g7
g8
Ntp1842
Rp1843
(S'pos93880'
p1844
I93880
I00
NF-inf
Finf
NI0
NI93880
Ntp1845
bsS'amp98316'
p1846
g6
(g7
g8
Ntp1847
Rp1848
(S'amp98316'
p1849
g27
(g31
S'\xa0\xf3\xed<\xf9F\xc1?'
p1850
tp1851
Rp1852
I01
NI0
I1
NNNF0.5
Ntp1853
bsS'amp93943'
p1854
g6
(g7
g8
Ntp1855
Rp1856
(g1287
g27
(g31
S'\x88\xafO\x83\xe7\x9c\xbe?'
p1857
tp1858
Rp1859
I01
NI0
I1
Ng27
(g31
S'5\x16<P}\xf8r?'
p1860
tp1861
Rp1862
(dp1863
g1283
g27
(g31
S'6t\xb1\xe1\xe9t\xe4\xbf'
p1864
tp1865
Rp1866
sg1275
g27
(g31
S'\x87RF\x8b\x1a\x8a\xbd?'
p1867
tp1868
Rp1869
sg1291
g27
(g31
S'\xbb\xf6\xe2i^\xf5\xa6\xbf'
p1870
tp1871
Rp1872
sF0.5
Ntp1873
bsS'amp70884'
p1874
g6
(g7
g8
Ntp1875
Rp1876
(S'amp70884'
p1877
g27
(g31
S'\x00\x00\x00\x00\x00\x00\x00\x00'
p1878
tp1879
Rp1880
I01
NI0
I1
Ng27
(g31
S'\x01J\xb3\xaf\x0e|\xa8>'
p1881
tp1882
Rp1883
(dp1884
S'width70884'
p1885
g27
(g31
S'\x12DB\x0b\x00\x9b\xe4?'
p1886
tp1887
Rp1888
sF0.5
Ntp1889
bsS'pos87980'
p1890
g6
(g7
g8
Ntp1891
Rp1892
(S'pos87980'
p1893
I87980
I00
NF-inf
Finf
NI0
NI87980
Ntp1894
bsS'amp71085'
p1895
g6
(g7
g8
Ntp1896
Rp1897
(g1585
g27
(g31
S'\xe4\xdbj\\\x0ce\xcd?'
p1898
tp1899
Rp1900
I01
NI0
I1
Ng27
(g31
S'\x19\x1d\xfdz\xe6\xebx?'
p1901
tp1902
Rp1903
(dp1904
g1577
g27
(g31
S'j\x93<\xe4\xb7\xc0\xc2?'
p1905
tp1906
Rp1907
sg1589
g27
(g31
S'Z\x05i>\x89v\xc7?'
p1908
tp1909
Rp1910
sg1593
g27
(g31
S'\x95\xe5\xaa\x99q\xd4\xe2\xbf'
p1911
tp1912
Rp1913
sF0.5
Ntp1914
bsS'width69379'
p1915
g6
(g7
g8
Ntp1916
Rp1917
(g81
g27
(g31
S"$p\xeag\xc4l'@"
p1918
tp1919
Rp1920
I01
NI7
I28
Ng27
(g31
S'\xb9\xbe\x7f\x16\x8c7\x1f@'
p1921
tp1922
Rp1923
(dp1924
g65
g27
(g31
S'\xd8\xad\r\xcc\x90\xc0\xad?'
p1925
tp1926
Rp1927
sg49
g27
(g31
S'^\x9aW\xf0\x11\xca\xe2?'
p1928
tp1929
Rp1930
sg53
g27
(g31
S'gc:\x1d\xb6\x9f\xe0?'
p1931
tp1932
Rp1933
sg57
g27
(g31
S'!\x9f4!\xa4@\xad?'
p1934
tp1935
Rp1936
sg61
g27
(g31
S'\xfbE\x7f\xc33Yp?'
p1937
tp1938
Rp1939
sg41
g27
(g31
S'\x18\xfd\x18*\xa4>\xc6\xbf'
p1940
tp1941
Rp1942
sg69
g27
(g31
S'\x02\x02\x95+w\x99\xd3\xbf'
p1943
tp1944
Rp1945
sg73
g27
(g31
S'$\xc5\x11\xbc\xa6\xb3\x92?'
p1946
tp1947
Rp1948
sg77
g27
(g31
S'~\xa8\xe9\xdd\xdc\xf5\xb8\xbf'
p1949
tp1950
Rp1951
sI14
Ntp1952
bsS'width102960'
p1953
g6
(g7
g8
Ntp1954
Rp1955
(S'width102960'
p1956
g27
(g31
S' c\xba4bj7@'
p1957
tp1958
Rp1959
I01
NI7
I28
Ng27
(g31
S'\xfb\xe6\xde\x0f\xa1\x86\xf8?'
p1960
tp1961
Rp1962
(dp1963
S'amp102931'
p1964
g27
(g31
S'\xc5\xea\xdd\x1d\xf8\x1f\xd6\xbf'
p1965
tp1966
Rp1967
sS'amp102960'
p1968
g27
(g31
S'\xb8\xe18\x1cr\xda\xdc\xbf'
p1969
tp1970
Rp1971
sS'width102931'
p1972
g27
(g31
S'\x822\r\xe5y\xf4\xd0?'
p1973
tp1974
Rp1975
sI14
Ntp1976
bsS'width102568'
p1977
g6
(g7
g8
Ntp1978
Rp1979
(S'width102568'
p1980
g27
(g31
S'\xdc\xc5^\xf1r\x9a:@'
p1981
tp1982
Rp1983
I01
NI7
I28
Ng27
(g31
S'2\x99\xbd\xdf\xf3\x9a\xe1?'
p1984
tp1985
Rp1986
(dp1987
S'amp102568'
p1988
g27
(g31
S'7A\\\xc9\x1a\xdc\xe6\xbf'
p1989
tp1990
Rp1991
sI14
Ntp1992
bsS'amp98533'
p1993
g6
(g7
g8
Ntp1994
Rp1995
(S'amp98533'
p1996
g27
(g31
S'pu&&\xf9[\x92?'
p1997
tp1998
Rp1999
I01
NI0
I1
NNNF0.5
Ntp2000
bsS'pos86460'
p2001
g6
(g7
g8
Ntp2002
Rp2003
(S'pos86460'
p2004
I86460
I00
NF-inf
Finf
NI0
NI86460
Ntp2005
bsS'amp102448'
p2006
g6
(g7
g8
Ntp2007
Rp2008
(S'amp102448'
p2009
g27
(g31
S'\xa0\x8d\xd0\xc3\x03\x17\x8c?'
p2010
tp2011
Rp2012
I01
NI0
I1
NNNF0.5
Ntp2013
bsS'width102769'
p2014
g6
(g7
g8
Ntp2015
Rp2016
(S'width102769'
p2017
g27
(g31
S'\x9aW\x0b\xff\xff\xff;@'
p2018
tp2019
Rp2020
I01
NI7
I28
NNNI14
Ntp2021
bsS'width71349'
p2022
g6
(g7
g8
Ntp2023
Rp2024
(S'width71349'
p2025
g27
(g31
S'\\Y\xce\xd9\xff\xff;@'
p2026
tp2027
Rp2028
I01
NI7
I28
Ng27
(g31
S'm\xb9\x1c\x15=="@'
p2029
tp2030
Rp2031
(dp2032
S'amp71349'
p2033
g27
(g31
S'|\xe5\x84\xf8q\x87\xd3?'
p2034
tp2035
Rp2036
sS'amp71359'
p2037
g27
(g31
S'\x93\x19\xa0g5\x8a\xe1\xbf'
p2038
tp2039
Rp2040
sS'width71359'
p2041
g27
(g31
S'L\xc1\xa5e\xf6\xd5\xe3\xbf'
p2042
tp2043
Rp2044
sI14
Ntp2045
bsS'pos98489'
p2046
g6
(g7
g8
Ntp2047
Rp2048
(S'pos98489'
p2049
I98489
I00
NF-inf
Finf
NNNI98489
Ntp2050
bsS'pos94354'
p2051
g6
(g7
g8
Ntp2052
Rp2053
(S'pos94354'
p2054
I94354
I00
NF-inf
Finf
NI0
NI94354
Ntp2055
bsS'amp99136'
p2056
g6
(g7
g8
Ntp2057
Rp2058
(g833
g27
(g31
S'8\rM\xa33\xd4\xb3?'
p2059
tp2060
Rp2061
I01
NI0
I1
Ng27
(g31
S'\x10\x9fo\x19"\xdaU?'
p2062
tp2063
Rp2064
(dp2065
g829
g27
(g31
S'I\xd2\x9d\xcdh\xb2\xdd?'
p2066
tp2067
Rp2068
sg821
g27
(g31
S'\xc6C.\xaa\xea\x88\xda\xbf'
p2069
tp2070
Rp2071
sg837
g27
(g31
S'^(\x84\xbb\x07\xa4\xcd?'
p2072
tp2073
Rp2074
sF0.5
Ntp2075
bsS'amp99039'
p2076
g6
(g7
g8
Ntp2077
Rp2078
(S'amp99039'
p2079
g27
(g31
S'T\xb2\xd1\xe2VL\xb0?'
p2080
tp2081
Rp2082
I01
NI0
I1
Ng27
(g31
S'F\xf1\x11\x0c\xba>L?'
p2083
tp2084
Rp2085
(dp2086
S'width99013'
p2087
g27
(g31
S'\xe3%\xae\xc2)\x00\xe0\xbf'
p2088
tp2089
Rp2090
sS'width99039'
p2091
g27
(g31
S':\xa9w7\xda\xe8\xd8\xbf'
p2092
tp2093
Rp2094
sS'amp99013'
p2095
g27
(g31
S'v\xb2L\xfa[\x88\xca?'
p2096
tp2097
Rp2098
sF0.5
Ntp2099
bsS'pos88368'
p2100
g6
(g7
g8
Ntp2101
Rp2102
(S'pos88368'
p2103
I88368
I00
NF-inf
Finf
NI0
NI88368
Ntp2104
bsS'width86624'
p2105
g6
(g7
g8
Ntp2106
Rp2107
(S'width86624'
p2108
g27
(g31
S'\x84wo\xfa\xff\xff;@'
p2109
tp2110
Rp2111
I01
NI7
I28
Ng27
(g31
S'81\xf0Oh\xdb\xf5?'
p2112
tp2113
Rp2114
(dp2115
S'amp86624'
p2116
g27
(g31
S'X\xd0\x9b\xfb+\xed\xe6\xbf'
p2117
tp2118
Rp2119
sI14
Ntp2120
bsS'amp98621'
p2121
g6
(g7
g8
Ntp2122
Rp2123
(S'amp98621'
p2124
g27
(g31
S'`\xf1\xfc\x08\n\xa2\x83?'
p2125
tp2126
Rp2127
I01
NI0
I1
NNNF0.5
Ntp2128
bsS'pos98220'
p2129
g6
(g7
g8
Ntp2130
Rp2131
(S'pos98220'
p2132
I98220
I00
NF-inf
Finf
NNNI98220
Ntp2133
bsS'pos71290'
p2134
g6
(g7
g8
Ntp2135
Rp2136
(S'pos71290'
p2137
I71290
I00
NF-inf
Finf
NNNI71290
Ntp2138
bsS'width101964'
p2139
g6
(g7
g8
Ntp2140
Rp2141
(S'width101964'
p2142
g27
(g31
S'$\xe9\xff\xff\xff\xff;@'
p2143
tp2144
Rp2145
I01
NI7
I28
Ng27
(g31
S'"N\xe7"+\xb5\x8e?'
p2146
tp2147
Rp2148
(dp2149
S'amp101964'
p2150
g27
(g31
S'\x1dT\xb4 \xf3\xe1\xe6?'
p2151
tp2152
Rp2153
sI14
Ntp2154
bsS'amp102960'
p2155
g6
(g7
g8
Ntp2156
Rp2157
(g1968
g27
(g31
S'\xb0&\xda\xd5\x17\x1b\x9b?'
p2158
tp2159
Rp2160
I01
NI0
I1
Ng27
(g31
S'T\x90\xd3\x91\xaf\xc7P?'
p2161
tp2162
Rp2163
(dp2164
g1964
g27
(g31
S'\xc2\x03\xc9E\xb8\xf5\xce?'
p2165
tp2166
Rp2167
sg1956
g27
(g31
S'\xb7\xe18\x1cr\xda\xdc\xbf'
p2168
tp2169
Rp2170
sg1972
g27
(g31
S'J\x9c\xf6\xb3v\x1b\xd9?'
p2171
tp2172
Rp2173
sF0.5
Ntp2174
bsS'width88368'
p2175
g6
(g7
g8
Ntp2176
Rp2177
(S'width88368'
p2178
g27
(g31
S'L\xeac\xf2\xff\xff;@'
p2179
tp2180
Rp2181
I01
NI7
I28
Ng27
(g31
S't+4\xed\x12\xd9\r@'
p2182
tp2183
Rp2184
(dp2185
S'amp88320'
p2186
g27
(g31
S'\x87\xc3\x85\xb9&\x18\xb6\xbf'
p2187
tp2188
Rp2189
sS'amp88368'
p2190
g27
(g31
S'\x88vNUA\xa8\xe3\xbf'
p2191
tp2192
Rp2193
sS'width88320'
p2194
g27
(g31
S'\x9c\xda\xef\x9c\xdf\x99\xd6\xbf'
p2195
tp2196
Rp2197
sI14
Ntp2198
bsS'amp89452'
p2199
g6
(g7
g8
Ntp2200
Rp2201
(g971
g27
(g31
S'\x00\xc0\xc5\x9f]Kz?'
p2202
tp2203
Rp2204
I01
NI0
I1
Ng27
(g31
S'|\xbd\xc0\x11\xd9~T?'
p2205
tp2206
Rp2207
(dp2208
g955
g27
(g31
S'Gi\xf6\xc1\x04\xf3\xba?'
p2209
tp2210
Rp2211
sg959
g27
(g31
S'\xedb)\x03_Q\xdf?'
p2212
tp2213
Rp2214
sg963
g27
(g31
S"\x18\x15'?\xadk\xbd\xbf"
p2215
tp2216
Rp2217
sg947
g27
(g31
S'\xb0\xce\xac\xb0\x05\x0c\xb8\xbf'
p2218
tp2219
Rp2220
sg967
g27
(g31
S'\xe9\xdc\xc4\xad8Q\xbb?'
p2221
tp2222
Rp2223
sg975
g27
(g31
S'\xdc\xfd\xd9\xf6\x01\x0e\xe2\xbf'
p2224
tp2225
Rp2226
sg979
g27
(g31
S'\xcb\xfd\xa9\xa8\xac\x0e\xd6?'
p2227
tp2228
Rp2229
sF0.5
Ntp2230
bsS'width98940'
p2231
g6
(g7
g8
Ntp2232
Rp2233
(g1197
g27
(g31
S'\xc7\x1a\x92\xff\xff\xff;@'
p2234
tp2235
Rp2236
I01
NI7
I28
Ng27
(g31
S'[\xe0\x10\x92|\xcc\xd0?'
p2237
tp2238
Rp2239
(dp2240
g1189
g27
(g31
S'\x82\x95\x9d\xf8\xa3l\xe0\xbf'
p2241
tp2242
Rp2243
sI14
Ntp2244
bsS'width99466'
p2245
g6
(g7
g8
Ntp2246
Rp2247
(S'width99466'
p2248
g27
(g31
S'\x00\x00\x00\x00\x00\x00<@'
p2249
tp2250
Rp2251
I01
NI7
I28
NNNI14
Ntp2252
bsS'width99548'
p2253
g6
(g7
g8
Ntp2254
Rp2255
(S'width99548'
p2256
g27
(g31
S'\x00\x00\x00\x00\x00\x00<@'
p2257
tp2258
Rp2259
I01
NI7
I28
NNNI14
Ntp2260
bsS'amp88475'
p2261
g6
(g7
g8
Ntp2262
Rp2263
(g1149
g27
(g31
S'\x80\x1aU\xb7\x0e`\x90?'
p2264
tp2265
Rp2266
I01
NI0
I1
Ng27
(g31
S"'D\xbf\xf9\x188J?"
p2267
tp2268
Rp2269
(dp2270
g1141
g27
(g31
S'>\x8c\xb0XQ\xe2\xe6?'
p2271
tp2272
Rp2273
sF0.5
Ntp2274
bsS'width99013'
p2275
g6
(g7
g8
Ntp2276
Rp2277
(g2087
g27
(g31
S'J\x83\xbd\xfe\xff\xff;@'
p2278
tp2279
Rp2280
I01
NI7
I28
Ng27
(g31
S'\xbf|\xb9\x8e\x84h\x00@'
p2281
tp2282
Rp2283
(dp2284
g2079
g27
(g31
S'\xe3%\xae\xc2)\x00\xe0\xbf'
p2285
tp2286
Rp2287
sg2091
g27
(g31
S'S?l&JA\xc7\xbf'
p2288
tp2289
Rp2290
sg2095
g27
(g31
S'\x99\xad\xc3"[%\xd9\xbf'
p2291
tp2292
Rp2293
sI14
Ntp2294
bsS'width98422'
p2295
g6
(g7
g8
Ntp2296
Rp2297
(S'width98422'
p2298
g27
(g31
S'\x00\x00\x00\x00\x00\x00<@'
p2299
tp2300
Rp2301
I01
NI7
I28
NNNI14
Ntp2302
bsS'amp69149'
p2303
g6
(g7
g8
Ntp2304
Rp2305
(g504
g27
(g31
S't\x88\x94\xa3\xed8\xc5?'
p2306
tp2307
Rp2308
I01
NI0
I1
Ng27
(g31
S'\xb7\xc2a\xeaU5p?'
p2309
tp2310
Rp2311
(dp2312
g496
g27
(g31
S'\x1aV\xbcQ\xb2\xbd\xe6\xbf'
p2313
tp2314
Rp2315
sF0.5
Ntp2316
bsS'width99496'
p2317
g6
(g7
g8
Ntp2318
Rp2319
(S'width99496'
p2320
g27
(g31
S'\x19\x84ak\xc6\xff;@'
p2321
tp2322
Rp2323
I01
NI7
I28
NNNI14
Ntp2324
bsS'pos99328'
p2325
g6
(g7
g8
Ntp2326
Rp2327
(S'pos99328'
p2328
I99328
I00
NF-inf
Finf
NI0
NI99328
Ntp2329
bsS'amp88368'
p2330
g6
(g7
g8
Ntp2331
Rp2332
(g2190
g27
(g31
S'\xc0Lp\xeb\xc7^\x85?'
p2333
tp2334
Rp2335
I01
NI0
I1
Ng27
(g31
S'\x93\xe1\xff\xb5\xaa,J?'
p2336
tp2337
Rp2338
(dp2339
g2186
g27
(g31
S'\x8d\xef\xcc"0\x07\xc3?'
p2340
tp2341
Rp2342
sg2178
g27
(g31
S'\x89vNUA\xa8\xe3\xbf'
p2343
tp2344
Rp2345
sg2194
g27
(g31
S'js\xed\xf5Ud\xb6\xbf'
p2346
tp2347
Rp2348
sF0.5
Ntp2349
bsS'width71085'
p2350
g6
(g7
g8
Ntp2351
Rp2352
(g1593
g27
(g31
S'\x1fh\x14\x99>*;@'
p2353
tp2354
Rp2355
I01
NI7
I28
Ng27
(g31
S'~\xf2\xe9\x1e.\x08\xf4?'
p2356
tp2357
Rp2358
(dp2359
g1577
g27
(g31
S'\xff%\x16\xf8\x07\xc1\xd5?'
p2360
tp2361
Rp2362
sg1585
g27
(g31
S'\x98\xe5\xaa\x99q\xd4\xe2\xbf'
p2363
tp2364
Rp2365
sg1589
g27
(g31
S'\xfd\xc5\x13\xa7\x9aS\xc0\xbf'
p2366
tp2367
Rp2368
sI14
Ntp2369
bsS'width98220'
p2370
g6
(g7
g8
Ntp2371
Rp2372
(S'width98220'
p2373
g27
(g31
S'\x00\x00\x00\x00\x00\x00<@'
p2374
tp2375
Rp2376
I01
NI7
I28
NNNI14
Ntp2377
bsS'amp87980'
p2378
g6
(g7
g8
Ntp2379
Rp2380
(g253
g27
(g31
S'\xe2\xd7d\x02hB\xc0?'
p2381
tp2382
Rp2383
I01
NI0
I1
Ng27
(g31
S'\xab\x07\xbf\x82>jb?'
p2384
tp2385
Rp2386
(dp2387
g249
g27
(g31
S'\xf3\x05,\xee\xd3\xe2\xbb?'
p2388
tp2389
Rp2390
sg257
g27
(g31
S'\x0c\xafh\xd8<$\x86?'
p2391
tp2392
Rp2393
sg261
g27
(g31
S'.\xb3\xe5\xcbU\x84\xcb?'
p2394
tp2395
Rp2396
sg265
g27
(g31
S'Kkc\x8bzV\xb1?'
p2397
tp2398
Rp2399
sg269
g27
(g31
S'\xb7Ko`u\x89\xd2\xbf'
p2400
tp2401
Rp2402
sg241
g27
(g31
S'`Z$-\xba\xa2\xda\xbf'
p2403
tp2404
Rp2405
sg273
g27
(g31
S'To\x10\xc0\x18\x8f\xb3\xbf'
p2406
tp2407
Rp2408
sF0.5
Ntp2409
bsS'amp89034'
p2410
g6
(g7
g8
Ntp2411
Rp2412
(S'amp89034'
p2413
g27
(g31
S'\xd4\x11\xb0l\xea}\xc2?'
p2414
tp2415
Rp2416
I01
NI0
I1
Ng27
(g31
S'\x16\xf9/\xe9\xa5\xa9V?'
p2417
tp2418
Rp2419
(dp2420
S'width89034'
p2421
g27
(g31
S'cD\xb8\xc1v\xd6\xe6\xbf'
p2422
tp2423
Rp2424
sF0.5
Ntp2425
bsS'amp86690'
p2426
g6
(g7
g8
Ntp2427
Rp2428
(S'amp86690'
p2429
g27
(g31
S'`\x98\x99\xce3M\x96?'
p2430
tp2431
Rp2432
I01
NI0
I1
Ng27
(g31
S'\x1eq\xb6\xbe\xcd"i?'
p2433
tp2434
Rp2435
(dp2436
S'width86690'
p2437
g27
(g31
S'PH\xa9Xg\xe6\xe6\xbf'
p2438
tp2439
Rp2440
sF0.5
Ntp2441
bsS'width99301'
p2442
g6
(g7
g8
Ntp2443
Rp2444
(g927
g27
(g31
S'=\xb9\xfd\xff\xff\xff;@'
p2445
tp2446
Rp2447
I01
NI7
I28
Ng27
(g31
S'\x97\xfc\xd1\xef\x92\x91\xb6?'
p2448
tp2449
Rp2450
(dp2451
g923
g27
(g31
S'\xd9\xedK;\x9f+\xc8?'
p2452
tp2453
Rp2454
sg915
g27
(g31
S'Pyw\xbe9<\xdf?'
p2455
tp2456
Rp2457
sg931
g27
(g31
S'\x14\xaf\xc0\r.\x87\xd9?'
p2458
tp2459
Rp2460
sI14
Ntp2461
bsS'pos97971'
p2462
g6
(g7
g8
Ntp2463
Rp2464
(S'pos97971'
p2465
I97971
I00
NF-inf
Finf
NI0
NI97971
Ntp2466
bsS'pos99108'
p2467
g6
(g7
g8
Ntp2468
Rp2469
(S'pos99108'
p2470
I99108
I00
NF-inf
Finf
NI0
NI99108
Ntp2471
bsS'width88893'
p2472
g6
(g7
g8
Ntp2473
Rp2474
(S'width88893'
p2475
g27
(g31
S'\xe5\x95\xf8\xc7\xf8\xb99@'
p2476
tp2477
Rp2478
I01
NI7
I28
Ng27
(g31
S'\xc8\xad\x8fj\xe3,\xe3?'
p2479
tp2480
Rp2481
(dp2482
S'amp88893'
p2483
g27
(g31
S'\xfb/\xc2\x8e\xb3Q\xe1\xbf'
p2484
tp2485
Rp2486
sS'amp88926'
p2487
g27
(g31
S'D\xe1\x8f\\\x16\x1e\xd0\xbf'
p2488
tp2489
Rp2490
sS'width88926'
p2491
g27
(g31
S']\xe7\xa5E\xbev\xd4\xbf'
p2492
tp2493
Rp2494
sI14
Ntp2495
bsS'width102666'
p2496
g6
(g7
g8
Ntp2497
Rp2498
(g563
g27
(g31
S'z6\x13\x82n\xc59@'
p2499
tp2500
Rp2501
I01
NI7
I28
Ng27
(g31
S'\xe3\x93r\xd0d\x92\xe2?'
p2502
tp2503
Rp2504
(dp2505
g559
g27
(g31
S'5\x8b\xc3\xf8\xe8>\xe2\xbf'
p2506
tp2507
Rp2508
sg567
g27
(g31
S'-L&\xc4\xbb\x0c\xca\xbf'
p2509
tp2510
Rp2511
sg551
g27
(g31
S'\xf7\x0f\x92-\x05m\xd5\xbf'
p2512
tp2513
Rp2514
sI14
Ntp2515
bsS'pos87947'
p2516
g6
(g7
g8
Ntp2517
Rp2518
(S'pos87947'
p2519
I87947
I00
NF-inf
Finf
NI0
NI87947
Ntp2520
bsS'width69602'
p2521
g6
(g7
g8
Ntp2522
Rp2523
(S'width69602'
p2524
g27
(g31
S'\x81\xf0\xf3\xff\xff\xff;@'
p2525
tp2526
Rp2527
I01
NI7
I28
Ng27
(g31
S'\xe9\xe3\x96\x1c\x93Y\xdc?'
p2528
tp2529
Rp2530
(dp2531
S'amp69602'
p2532
g27
(g31
S'\xae\xff\xd2R\x1b\xe3\xe6?'
p2533
tp2534
Rp2535
sI14
Ntp2536
bsS'width88784'
p2537
g6
(g7
g8
Ntp2538
Rp2539
(g853
g27
(g31
S'\xfb\x7fp\x81R<8@'
p2540
tp2541
Rp2542
I01
NI7
I28
Ng27
(g31
S'Jp\xb5t)E\xdf?'
p2543
tp2544
Rp2545
(dp2546
g845
g27
(g31
S'>KG\xd4\x17\xd2\xe6\xbf'
p2547
tp2548
Rp2549
sI14
Ntp2550
bsS'width88023'
p2551
g6
(g7
g8
Ntp2552
Rp2553
(g273
g27
(g31
S'\xb3\xc4\xd8s\xcf:7@'
p2554
tp2555
Rp2556
I01
NI7
I28
Ng27
(g31
S'\r\xc3xp\xf5\xc9\xe6?'
p2557
tp2558
Rp2559
(dp2560
g249
g27
(g31
S'\xc7\x10\xf2\xcc\r|\xd8\xbf'
p2561
tp2562
Rp2563
sg253
g27
(g31
S'2o\x10\xc0\x18\x8f\xb3\xbf'
p2564
tp2565
Rp2566
sg257
g27
(g31
S'|\x8c\xfb>\xa1\xfe\xd1?'
p2567
tp2568
Rp2569
sg261
g27
(g31
S'\x84\xe8\x89\xb1\x9fv\xba?'
p2570
tp2571
Rp2572
sg265
g27
(g31
S'\xd4\x9f\xe6\x0bp\xea\xd6\xbf'
p2573
tp2574
Rp2575
sg269
g27
(g31
S'\x0e\xe0\xea\xb2\td\xb8?'
p2576
tp2577
Rp2578
sg241
g27
(g31
S'\x14\x8f\xb2!\x8b\xc3\xd9\xbf'
p2579
tp2580
Rp2581
sI14
Ntp2582
bsS'amp99466'
p2583
g6
(g7
g8
Ntp2584
Rp2585
(S'amp99466'
p2586
g27
(g31
S'@\x81\xe7\xd1{\x1c\x8d?'
p2587
tp2588
Rp2589
I01
NI0
I1
NNNF0.5
Ntp2590
bsS'pos71129'
p2591
g6
(g7
g8
Ntp2592
Rp2593
(S'pos71129'
p2594
I71129
I00
NF-inf
Finf
NI0
NI71129
Ntp2595
bsS'infty'
p2596
Finf
sS'width100630'
p2597
g6
(g7
g8
Ntp2598
Rp2599
(S'width100630'
p2600
g27
(g31
S'"\x88\xe9\xff\xff\xff;@'
p2601
tp2602
Rp2603
I01
NI7
I28
Ng27
(g31
S'J$\xde\r\xbd\xc4\xd3?'
p2604
tp2605
Rp2606
(dp2607
S'amp100630'
p2608
g27
(g31
S'\xc5\xf3\x95\xcf\r\xe2\xe6?'
p2609
tp2610
Rp2611
sI14
Ntp2612
bsS'pos69407'
p2613
g6
(g7
g8
Ntp2614
Rp2615
(S'pos69407'
p2616
I69407
I00
NF-inf
Finf
NI0
NI69407
Ntp2617
bsS'width102448'
p2618
g6
(g7
g8
Ntp2619
Rp2620
(S'width102448'
p2621
g27
(g31
S'\x00\x00\x00\x00\x00\x00<@'
p2622
tp2623
Rp2624
I01
NI7
I28
NNNI14
Ntp2625
bsS'pos87400'
p2626
g6
(g7
g8
Ntp2627
Rp2628
(S'pos87400'
p2629
I87400
I00
NF-inf
Finf
NI0
NI87400
Ntp2630
bsS'NAN'
p2631
Fnan
sS'width93880'
p2632
g6
(g7
g8
Ntp2633
Rp2634
(g1746
g27
(g31
S';\x02\x06\xfd\xff\xff;@'
p2635
tp2636
Rp2637
I01
NI7
I28
Ng27
(g31
S'0\xbb8N\xaa\x9b\xef?'
p2638
tp2639
Rp2640
(dp2641
g1738
g27
(g31
S'\xfcn.\xad\x1c\xd6\xe6\xbf'
p2642
tp2643
Rp2644
sI14
Ntp2645
bsS'amp94053'
p2646
g6
(g7
g8
Ntp2647
Rp2648
(S'amp94053'
p2649
g27
(g31
S'\xba\x9e\xae\xa8\x83\\\xc2?'
p2650
tp2651
Rp2652
I01
NI0
I1
Ng27
(g31
S'\x83\x16\xfb\xe2\x17\xebv?'
p2653
tp2654
Rp2655
(dp2656
S'width94053'
p2657
g27
(g31
S'\xdfj\xc6\x81N\xe2\xe6\xbf'
p2658
tp2659
Rp2660
sF0.5
Ntp2661
bsS'width86460'
p2662
g6
(g7
g8
Ntp2663
Rp2664
(S'width86460'
p2665
g27
(g31
S'\x9cr\xd5\xff\xff\xff;@'
p2666
tp2667
Rp2668
I01
NI7
I28
Ng27
(g31
S'f\x1cH\n\xfcN\xf5?'
p2669
tp2670
Rp2671
(dp2672
S'amp86460'
p2673
g27
(g31
S'+oqyk!\xe7\xbf'
p2674
tp2675
Rp2676
sI14
Ntp2677
bsS'amp71359'
p2678
g6
(g7
g8
Ntp2679
Rp2680
(g2037
g27
(g31
S'\x802\xbfx\xcfa\xa2?'
p2681
tp2682
Rp2683
I01
NI0
I1
Ng27
(g31
S'\x9dL\xe8\x8f\x90\x8b\x80?'
p2684
tp2685
Rp2686
(dp2687
g2033
g27
(g31
S'\x8c\xb7\x966a~\xe8\xbf'
p2688
tp2689
Rp2690
sg2025
g27
(g31
S'\x92\x19\xa0g5\x8a\xe1\xbf'
p2691
tp2692
Rp2693
sg2041
g27
(g31
S'\xbbY\xe1\xe5\x86\x8f\xd3?'
p2694
tp2695
Rp2696
sF0.5
Ntp2697
bsS'amp102666'
p2698
g6
(g7
g8
Ntp2699
Rp2700
(g559
g27
(g31
S'\xfa\xd9\xc9\xab\xb7T\xed?'
p2701
tp2702
Rp2703
I01
NI0
I1
Ng27
(g31
S'<\xe8\xc4\xcdl\xca\x87?'
p2704
tp2705
Rp2706
(dp2707
g563
g27
(g31
S'6\x8b\xc3\xf8\xe8>\xe2\xbf'
p2708
tp2709
Rp2710
sg567
g27
(g31
S'\xe4\xd1)\xf4\x15\xa6\xc9?'
p2711
tp2712
Rp2713
sg551
g27
(g31
S'\xedA\x03$:\xe5\xc5\xbf'
p2714
tp2715
Rp2716
sF0.5
Ntp2717
bsS'width100523'
p2718
g6
(g7
g8
Ntp2719
Rp2720
(S'width100523'
p2721
g27
(g31
S'\x14\x9d\xb3\xf9\xff\xff;@'
p2722
tp2723
Rp2724
I01
NI7
I28
Ng27
(g31
S'd\xb9\x96\xf1\xde\xfb\x00@'
p2725
tp2726
Rp2727
(dp2728
S'amp100523'
p2729
g27
(g31
S'\x9f\x94 \xea\x13\xe2\xe6\xbf'
p2730
tp2731
Rp2732
sI14
Ntp2733
bsS'width98261'
p2734
g6
(g7
g8
Ntp2735
Rp2736
(S'width98261'
p2737
g27
(g31
S'\x00\x00\x00\x00\x00\x00<@'
p2738
tp2739
Rp2740
I01
NI7
I28
NNNI14
Ntp2741
bsS'amp69427'
p2742
g6
(g7
g8
Ntp2743
Rp2744
(g53
g27
(g31
S' }\xafH//\xa1?'
p2745
tp2746
Rp2747
I01
NI0
I1
Ng27
(g31
S'\x96x\x83#hJm?'
p2748
tp2749
Rp2750
(dp2751
g65
g27
(g31
S'6\x87\xf35\x07\xbcu?'
p2752
tp2753
Rp2754
sg49
g27
(g31
S'\xe3h7\xa4\xef%\xe9?'
p2755
tp2756
Rp2757
sg57
g27
(g31
S'(\xf3\xd4\xf2\xb7\x13\xa8?'
p2758
tp2759
Rp2760
sg61
g27
(g31
S'#\x8c\xbeKO\xde\xc5\xbf'
p2761
tp2762
Rp2763
sg41
g27
(g31
S'\xf3]\xc3\xda\xe3\x13\xc0\xbf'
p2764
tp2765
Rp2766
sg69
g27
(g31
S'N,\xdbs\xd0n\xd1?'
p2767
tp2768
Rp2769
sg73
g27
(g31
S'm+\x0b\xf4\xf2P_?'
p2770
tp2771
Rp2772
sg77
g27
(g31
S'\x89\x19\x9a\x89 /\xb0?'
p2773
tp2774
Rp2775
sg81
g27
(g31
S'Kc:\x1d\xb6\x9f\xe0?'
p2776
tp2777
Rp2778
sF0.5
Ntp2779
bsS'amp102434'
p2780
g6
(g7
g8
Ntp2781
Rp2782
(S'amp102434'
p2783
g27
(g31
S'\x00\xf3\xc3i\xba\xfb\x91?'
p2784
tp2785
Rp2786
I01
NI0
I1
NNNF0.5
Ntp2787
bsS'amp99398'
p2788
g6
(g7
g8
Ntp2789
Rp2790
(S'amp99398'
p2791
g27
(g31
S'\x00\x10\xff\xe0hW\xac?'
p2792
tp2793
Rp2794
I01
NI0
I1
NNNF0.5
Ntp2795
bsS'width102434'
p2796
g6
(g7
g8
Ntp2797
Rp2798
(S'width102434'
p2799
g27
(g31
S'\x00\x00\x00\x00\x00\x00<@'
p2800
tp2801
Rp2802
I01
NI7
I28
NNNI14
Ntp2803
bsS'width88320'
p2804
g6
(g7
g8
Ntp2805
Rp2806
(g2194
g27
(g31
S'\xf3\xa5\xbb\xff\xff\xff;@'
p2807
tp2808
Rp2809
I01
NI7
I28
Ng27
(g31
S'\xdf\x03\x08\xc7\xbb\x9f\x06@'
p2810
tp2811
Rp2812
(dp2813
g2190
g27
(g31
S'\x99s\xed\xf5Ud\xb6\xbf'
p2814
tp2815
Rp2816
sg2178
g27
(g31
S'\x98\xda\xef\x9c\xdf\x99\xd6\xbf'
p2817
tp2818
Rp2819
sg2186
g27
(g31
S'\x8a"\xfee\x0f\xb1\xe3\xbf'
p2820
tp2821
Rp2822
sI14
Ntp2823
bsS'amp89425'
p2824
g6
(g7
g8
Ntp2825
Rp2826
(g963
g27
(g31
S'\xe0\xa1\x13\xfa\x9a}\x85?'
p2827
tp2828
Rp2829
I01
NI0
I1
Ng27
(g31
S'79\xa2b\x8a#V?'
p2830
tp2831
Rp2832
(dp2833
g955
g27
(g31
S'c\xfa\xdf\x80h;\xe8\xbf'
p2834
tp2835
Rp2836
sg959
g27
(g31
S'%\x8a\xba^\xd1\xf4\xb5?'
p2837
tp2838
Rp2839
sg947
g27
(g31
S'J\xe0\x03\xfd\x9dX\xe1?'
p2840
tp2841
Rp2842
sg967
g27
(g31
S';\r\x8e\x1f]\\\x9a\xbf'
p2843
tp2844
Rp2845
sg971
g27
(g31
S"\xf5\x14'?\xadk\xbd\xbf"
p2846
tp2847
Rp2848
sg975
g27
(g31
S'\xd3\x178m\x1d \xcc?'
p2849
tp2850
Rp2851
sg979
g27
(g31
S'\xa6<X\xb1\xfb\x94\xc5?'
p2852
tp2853
Rp2854
sF0.5
Ntp2855
bsS'width95314'
p2856
g6
(g7
g8
Ntp2857
Rp2858
(S'width95314'
p2859
g27
(g31
S'\x8e\xa0\xf8\xc8\xda\xc0:@'
p2860
tp2861
Rp2862
I01
NI7
I28
Ng27
(g31
S'\x1e\xea<\x05\xc5\x89\xeb?'
p2863
tp2864
Rp2865
(dp2866
S'amp95314'
p2867
g27
(g31
S']\xdd\xb5Q\xc1\xdc\xe6\xbf'
p2868
tp2869
Rp2870
sI14
Ntp2871
bsS'width106813'
p2872
g6
(g7
g8
Ntp2873
Rp2874
(S'width106813'
p2875
g27
(g31
S"\x1e\xc7'c\xdd\xd58@"
p2876
tp2877
Rp2878
I01
NI7
I28
Ng27
(g31
S'\xa9?\xdd\xf9\xdc3\xf3?'
p2879
tp2880
Rp2881
(dp2882
S'amp106813'
p2883
g27
(g31
S'\xa5\xef\x191\x98\xd4\xe6\xbf'
p2884
tp2885
Rp2886
sI14
Ntp2887
bsS'amp102486'
p2888
g6
(g7
g8
Ntp2889
Rp2890
(S'amp102486'
p2891
g27
(g31
S'\x80\xdd \xe2\xee\xdbk?'
p2892
tp2893
Rp2894
I01
NI0
I1
NNNF0.5
Ntp2895
bsS'amp98068'
p2896
g6
(g7
g8
Ntp2897
Rp2898
(g125
g27
(g31
S'0\xf2\xb89\xaf\x92\xb2?'
p2899
tp2900
Rp2901
I01
NI0
I1
Ng27
(g31
S'\x9a\x1f\x03z\xaeOO?'
p2902
tp2903
Rp2904
(dp2905
g97
g27
(g31
S'o\xf4\xb8\x87\x87\x00\x7f?'
p2906
tp2907
Rp2908
sg101
g27
(g31
S'R\xa6\x0e\x9f\x82i\xe2?'
p2909
tp2910
Rp2911
sg105
g27
(g31
S'\xbb\xc0\xd1\xa5\xd3\xa2\xc7?'
p2912
tp2913
Rp2914
sg109
g27
(g31
S'8\xd9\xfe\xee.S\x9d?'
p2915
tp2916
Rp2917
sg113
g27
(g31
S'\x99^\xbbS\x02+{?'
p2918
tp2919
Rp2920
sg117
g27
(g31
S'1/\x81\xe0r\x1e|?'
p2921
tp2922
Rp2923
sg89
g27
(g31
S'\xc6\x03\xc9\xff\xbb\x8c\x94\xbf'
p2924
tp2925
Rp2926
sg121
g27
(g31
S'\xa3B\x80r\xf5E\xab?'
p2927
tp2928
Rp2929
sg129
g27
(g31
S'\xc1\x04\n\xe8\x8a\xa8\xc3\xbf'
p2930
tp2931
Rp2932
sF0.5
Ntp2933
bsS'pos98380'
p2934
g6
(g7
g8
Ntp2935
Rp2936
(S'pos98380'
p2937
I98380
I00
NF-inf
Finf
NNNI98380
Ntp2938
bsS'width98580'
p2939
g6
(g7
g8
Ntp2940
Rp2941
(S'width98580'
p2942
g27
(g31
S'\x1eq\x85\xf5\xd2\xa78@'
p2943
tp2944
Rp2945
I01
NI7
I28
NNNI14
Ntp2946
bsS'width89452'
p2947
g6
(g7
g8
Ntp2948
Rp2949
(g955
g27
(g31
S'\x1f \xf1\xc7\xff\xff;@'
p2950
tp2951
Rp2952
I01
NI7
I28
Ng27
(g31
S'Z\x8f=\xa5\xce\x0e!@'
p2953
tp2954
Rp2955
(dp2956
g959
g27
(g31
S'\x01\x9bT\xc9Ig\xd5?'
p2957
tp2958
Rp2959
sg963
g27
(g31
S'V\xfa\xdf\x80h;\xe8\xbf'
p2960
tp2961
Rp2962
sg947
g27
(g31
S'4\xc6\xc9\xef\x99\xe9\xe4\xbf'
p2963
tp2964
Rp2965
sg967
g27
(g31
S'\x18QP9n\x83\xb5?'
p2966
tp2967
Rp2968
sg971
g27
(g31
S'\xa6i\xf6\xc1\x04\xf3\xba?'
p2969
tp2970
Rp2971
sg975
g27
(g31
S'\xf1\xcc\xe1VV\x96\xce\xbf'
p2972
tp2973
Rp2974
sg979
g27
(g31
S'X^\x81\xf0\x88\xe0\xca\xbf'
p2975
tp2976
Rp2977
sI14
Ntp2978
bsS'width88926'
p2979
g6
(g7
g8
Ntp2980
Rp2981
(g2491
g27
(g31
S'<\xc9\x1d\x9f\xb6z7@'
p2982
tp2983
Rp2984
I01
NI7
I28
Ng27
(g31
S'\x97\xa9bu)%\xe9?'
p2985
tp2986
Rp2987
(dp2988
g2483
g27
(g31
S'\x84\x9f\x1e\x82\xe3\x06\xcd\xbf'
p2989
tp2990
Rp2991
sg2487
g27
(g31
S'J\xca\xd8\xaf\xff\xde\xe0\xbf'
p2992
tp2993
Rp2994
sg2475
g27
(g31
S'd\xe7\xa5E\xbev\xd4\xbf'
p2995
tp2996
Rp2997
sI14
Ntp2998
bsS'pos89471'
p2999
g6
(g7
g8
Ntp3000
Rp3001
(S'pos89471'
p3002
I89471
I00
NF-inf
Finf
NI0
NI89471
Ntp3003
bsS'pos99496'
p3004
g6
(g7
g8
Ntp3005
Rp3006
(S'pos99496'
p3007
I99496
I00
NF-inf
Finf
NNNI99496
Ntp3008
bsS'pos98261'
p3009
g6
(g7
g8
Ntp3010
Rp3011
(S'pos98261'
p3012
I98261
I00
NF-inf
Finf
NNNI98261
Ntp3013
bsS'amp102931'
p3014
g6
(g7
g8
Ntp3015
Rp3016
(g1964
g27
(g31
S'\xa8OB\x02\x8ay\xac?'
p3017
tp3018
Rp3019
I01
NI0
I1
Ng27
(g31
S'\x02\xb8\x9a\xf1\x8cWN?'
p3020
tp3021
Rp3022
(dp3023
g1972
g27
(g31
S'\xd4\xea\x142\xfa\x98\xde?'
p3024
tp3025
Rp3026
sg1956
g27
(g31
S'\xc5\xea\xdd\x1d\xf8\x1f\xd6\xbf'
p3027
tp3028
Rp3029
sg1968
g27
(g31
S'\xcc\x03\xc9E\xb8\xf5\xce?'
p3030
tp3031
Rp3032
sF0.5
Ntp3033
bsS'pos87237'
p3034
g6
(g7
g8
Ntp3035
Rp3036
(S'pos87237'
p3037
I87237
I00
NF-inf
Finf
NI0
NI87237
Ntp3038
bsS'pos70884'
p3039
g6
(g7
g8
Ntp3040
Rp3041
(S'pos70884'
p3042
I70884
I00
NF-inf
Finf
NI0
NI70884
Ntp3043
bsS'amp99205'
p3044
g6
(g7
g8
Ntp3045
Rp3046
(S'amp99205'
p3047
g27
(g31
S'\x88\xe5\xd7\x08\x86\x02\xb6?'
p3048
tp3049
Rp3050
I01
NI0
I1
Ng27
(g31
S'\xcc\x8b\xdae\xe9lX?'
p3051
tp3052
Rp3053
(dp3054
S'amp99232'
p3055
g27
(g31
S'\x8f\xe5g\xac\xf8\xe6\xcb?'
p3056
tp3057
Rp3058
sS'width99205'
p3059
g27
(g31
S'\x1c\x83\xb2\x15$\x84\xd9?'
p3060
tp3061
Rp3062
sS'width99232'
p3063
g27
(g31
S'\xd3\x8a\x1f[\xd6<\xdf\xbf'
p3064
tp3065
Rp3066
sF0.5
Ntp3067
bsS'amp94172'
p3068
g6
(g7
g8
Ntp3069
Rp3070
(g1519
g27
(g31
S' \xb1\x8cO|\xc6\x8b?'
p3071
tp3072
Rp3073
I01
NI0
I1
Ng27
(g31
S'\xfc\x97\x95\xbe%/]?'
p3074
tp3075
Rp3076
(dp3077
g1511
g27
(g31
S'*\xfc\xff\xa0\xea\xa5\xba?'
p3078
tp3079
Rp3080
sg1523
g27
(g31
S'v\xb2\xb4R\xa1\xb5\xe4\xbf'
p3081
tp3082
Rp3083
sg1527
g27
(g31
S'@\x0c&?\x99\x83\xa0?'
p3084
tp3085
Rp3086
sF0.5
Ntp3087
bsS'amp97872'
p3088
g6
(g7
g8
Ntp3089
Rp3090
(g117
g27
(g31
S'\xc0\x9e\x96\xd9\xbf\x10\x8c?'
p3091
tp3092
Rp3093
I01
NI0
I1
Ng27
(g31
S'\xe7\x02\xe9\x7f\x85\xffN?'
p3094
tp3095
Rp3096
(dp3097
g101
g27
(g31
S'\x9fP\x1d\xc0\x07\x98g?'
p3098
tp3099
Rp3100
sg105
g27
(g31
S'1\x0e\x07\xd1\x0b\xb2\x84?'
p3101
tp3102
Rp3103
sg109
g27
(g31
S']\xc3\xca\x02\xde\xd9\x9a?'
p3104
tp3105
Rp3106
sg113
g27
(g31
S'\xa4\xb6l\x16jd\xb8?'
p3107
tp3108
Rp3109
sg97
g27
(g31
S'w\xa0\x98\xbcC\xa8\xe4\xbf'
p3110
tp3111
Rp3112
sg89
g27
(g31
S'P\x7f\xc5\xe5\xday\x99\xbf'
p3113
tp3114
Rp3115
sg121
g27
(g31
S'\xa2\x01\x17\xa3\xc8\x12Y\xbf'
p3116
tp3117
Rp3118
sg125
g27
(g31
S'\xec_\x81\xe0r\x1e|?'
p3119
tp3120
Rp3121
sg129
g27
(g31
S'\xa1j\xca\x12\xd4\xdfF?'
p3122
tp3123
Rp3124
sF0.5
Ntp3125
bsS'amp99710'
p3126
g6
(g7
g8
Ntp3127
Rp3128
(g196
g27
(g31
S'D\n\x14%3~\xb6?'
p3129
tp3130
Rp3131
I01
NI0
I1
Ng27
(g31
S'\x98\x0f\x02T\xc1\xa7U?'
p3132
tp3133
Rp3134
(dp3135
g188
g27
(g31
S'\x16\x03\xd61\xa1\xc9\xe6\xbf'
p3136
tp3137
Rp3138
sF0.5
Ntp3139
bsS'amp99301'
p3140
g6
(g7
g8
Ntp3141
Rp3142
(g931
g27
(g31
S'\xdc!\x14\xf2g\x8c\xb3?'
p3143
tp3144
Rp3145
I01
NI0
I1
Ng27
(g31
S' W\x12\x1bmdU?'
p3146
tp3147
Rp3148
(dp3149
g923
g27
(g31
S'\xb3\x1ej\xd7H;\xdf\xbf'
p3150
tp3151
Rp3152
sg927
g27
(g31
S'\x13\xaf\xc0\r.\x87\xd9?'
p3153
tp3154
Rp3155
sg915
g27
(g31
S'\xc7\xf7\xf3\xa2_\xe9\xcb?'
p3156
tp3157
Rp3158
sF0.5
Ntp3159
bsS'amp97971'
p3160
g6
(g7
g8
Ntp3161
Rp3162
(g109
g27
(g31
S'\xe8G\xe1\x16\xa6-\xa6?'
p3163
tp3164
Rp3165
I01
NI0
I1
Ng27
(g31
S'\xde\xc1)Ns\x12P?'
p3166
tp3167
Rp3168
(dp3169
g101
g27
(g31
S'K\xb8\x1a\x8a\xb7g~?'
p3170
tp3171
Rp3172
sg105
g27
(g31
S'b\xa7\x96\xf7M#\xb4?'
p3173
tp3174
Rp3175
sg117
g27
(g31
S'\x12\xbf\xca\x02\xde\xd9\x9a?'
p3176
tp3177
Rp3178
sg97
g27
(g31
S'\xd0\x97\xa7$a\x10\xa6?'
p3179
tp3180
Rp3181
sg89
g27
(g31
S'7\x1arkI;\xc2\xbf'
p3182
tp3183
Rp3184
sg121
g27
(g31
S'\x8b\x08z\x85\xd7\xf2\xe0\xbf'
p3185
tp3186
Rp3187
sg125
g27
(g31
S'\xf7\xd8\xfe\xee.S\x9d?'
p3188
tp3189
Rp3190
sg113
g27
(g31
S'\x07\x11Q\xeaZ\x19\xc4?'
p3191
tp3192
Rp3193
sg129
g27
(g31
S'n\xbd\xa5\xba\xa8\xc3\x97\xbf'
p3194
tp3195
Rp3196
sF0.5
Ntp3197
bsS'amp89491'
p3198
g6
(g7
g8
Ntp3199
Rp3200
(g979
g27
(g31
S' \x9c>\xe0\xef\xd9\x84?'
p3201
tp3202
Rp3203
I01
NI0
I1
Ng27
(g31
S'\xbdk\xa0\xe7\x10\x88Q?'
p3204
tp3205
Rp3206
(dp3207
g955
g27
(g31
S'\xf3^\x81\xf0\x88\xe0\xca\xbf'
p3208
tp3209
Rp3210
sg959
g27
(g31
S'\xee\xda\x98Vr\x94v?'
p3211
tp3212
Rp3213
sg963
g27
(g31
S'\xa1<X\xb1\xfb\x94\xc5?'
p3214
tp3215
Rp3216
sg947
g27
(g31
S'\x89}\x89\xdf6,\xcf?'
p3217
tp3218
Rp3219
sg967
g27
(g31
S'\xcc~\x8f"\xa3\x06\xda?'
p3220
tp3221
Rp3222
sg971
g27
(g31
S'\xe7\xfd\xa9\xa8\xac\x0e\xd6?'
p3223
tp3224
Rp3225
sg975
g27
(g31
S'\\\x0c\xcc\xc5\x81V\xdd\xbf'
p3226
tp3227
Rp3228
sF0.5
Ntp3229
bsS'amp69517'
p3230
g6
(g7
g8
Ntp3231
Rp3232
(g289
g27
(g31
S'\xd4N\xea\xfa\xd0\xe7\xb6?'
p3233
tp3234
Rp3235
I01
NI0
I1
Ng27
(g31
S'\x88\xb8\xa9\x0c\xa8\xe3S?'
p3236
tp3237
Rp3238
(dp3239
g281
g27
(g31
S'\xe7\xec\xd8\xba\x9e\xf1\xcb?'
p3240
tp3241
Rp3242
sg297
g27
(g31
S'm\xa5,%N\xab\xd8\xbf'
p3243
tp3244
Rp3245
sg293
g27
(g31
S'\xd5.}m\xe3\xab\xdf\xbf'
p3246
tp3247
Rp3248
sF0.5
Ntp3249
bsS'amp100630'
p3250
g6
(g7
g8
Ntp3251
Rp3252
(g2608
g27
(g31
S'\xc0i\x1d\x081V\xb4?'
p3253
tp3254
Rp3255
I01
NI0
I1
Ng27
(g31
S'\x0b\x80\xddw\xf7\x86r?'
p3256
tp3257
Rp3258
(dp3259
g2600
g27
(g31
S'\xc5\xf3\x95\xcf\r\xe2\xe6?'
p3260
tp3261
Rp3262
sF0.5
Ntp3263
bsS'pos88053'
p3264
g6
(g7
g8
Ntp3265
Rp3266
(S'pos88053'
p3267
I88053
I00
NF-inf
Finf
NI0
NI88053
Ntp3268
bsS'width94117'
p3269
g6
(g7
g8
Ntp3270
Rp3271
(g1527
g27
(g31
S'\xa38\xe6\xfe\xff\xff;@'
p3272
tp3273
Rp3274
I01
NI7
I28
Ng27
(g31
S'P(\xe8\x9d\x1aD\x00@'
p3275
tp3276
Rp3277
(dp3278
g1519
g27
(g31
S'\xdb\x0b&?\x99\x83\xa0?'
p3279
tp3280
Rp3281
sg1511
g27
(g31
S'\x03\x8a\xed\xe3\xd0\xb6\xe4?'
p3282
tp3283
Rp3284
sg1523
g27
(g31
S'5\xd7yz\x03\x9c\xd5?'
p3285
tp3286
Rp3287
sI14
Ntp3288
bsS'width98518'
p3289
g6
(g7
g8
Ntp3290
Rp3291
(S'width98518'
p3292
g27
(g31
S'\xcf\xef\xf0\xff\xff\xff;@'
p3293
tp3294
Rp3295
I01
NI7
I28
NNNI14
Ntp3296
bsS'pos98316'
p3297
g6
(g7
g8
Ntp3298
Rp3299
(S'pos98316'
p3300
I98316
I00
NF-inf
Finf
NNNI98316
Ntp3301
bsS'pos94172'
p3302
g6
(g7
g8
Ntp3303
Rp3304
(S'pos94172'
p3305
I94172
I00
NF-inf
Finf
NI0
NI94172
Ntp3306
bsS'amp69212'
p3307
g6
(g7
g8
Ntp3308
Rp3309
(S'amp69212'
p3310
g27
(g31
S'(\xb6\xe6\x08\xec\xea\xa2?'
p3311
tp3312
Rp3313
I01
NI0
I1
Ng27
(g31
S'\xd8\x178\xc7\xae\xd3@?'
p3314
tp3315
Rp3316
(dp3317
S'width69212'
p3318
g27
(g31
S'\x99Ox\x1eJ\xdb\xe6\xbf'
p3319
tp3320
Rp3321
sF0.5
Ntp3322
bsS'amp99548'
p3323
g6
(g7
g8
Ntp3324
Rp3325
(S'amp99548'
p3326
g27
(g31
S'\x80\xe604\xc6x\x89?'
p3327
tp3328
Rp3329
I01
NI0
I1
NNNF0.5
Ntp3330
bsS'amp99232'
p3331
g6
(g7
g8
Ntp3332
Rp3333
(g3055
g27
(g31
S'\xc8Fn\x1f\xef\xd4\xaf?'
p3334
tp3335
Rp3336
I01
NI0
I1
Ng27
(g31
S'\xd3%)\xc0$mX?'
p3337
tp3338
Rp3339
(dp3340
g3063
g27
(g31
S'\x82\x84\xb7\xa5\x13\x85\xd9\xbf'
p3341
tp3342
Rp3343
sg3047
g27
(g31
S'\x90\xe5g\xac\xf8\xe6\xcb?'
p3344
tp3345
Rp3346
sg3059
g27
(g31
S'\xa8\xcf\xf9}\x8c<\xdf?'
p3347
tp3348
Rp3349
sF0.5
Ntp3350
bsS'amp88926'
p3351
g6
(g7
g8
Ntp3352
Rp3353
(g2487
g27
(g31
S'\x94!\x85\x00\xdd\x8c\xc0?'
p3354
tp3355
Rp3356
I01
NI0
I1
Ng27
(g31
S'\x80J8\xb8$wd?'
p3357
tp3358
Rp3359
(dp3360
g2483
g27
(g31
S'G\xb3\x1c\xed\x02B\xcc?'
p3361
tp3362
Rp3363
sg2491
g27
(g31
S'M\xca\xd8\xaf\xff\xde\xe0\xbf'
p3364
tp3365
Rp3366
sg2475
g27
(g31
S'6\xe1\x8f\\\x16\x1e\xd0\xbf'
p3367
tp3368
Rp3369
sF0.5
Ntp3370
bsS'amp69602'
p3371
g6
(g7
g8
Ntp3372
Rp3373
(g2532
g27
(g31
S'p\xbfB\xf1\xf3\x94\xac?'
p3374
tp3375
Rp3376
I01
NI0
I1
Ng27
(g31
S'\xa6A\x08\xd2\xd1\x0bI?'
p3377
tp3378
Rp3379
(dp3380
g2524
g27
(g31
S'\xae\xff\xd2R\x1b\xe3\xe6?'
p3381
tp3382
Rp3383
sF0.5
Ntp3384
bsS'amp89100'
p3385
g6
(g7
g8
Ntp3386
Rp3387
(S'amp89100'
p3388
g27
(g31
S'0o\x0f9(u\x90?'
p3389
tp3390
Rp3391
I01
NI0
I1
Ng27
(g31
S'\xa0Lr\xc7\xc4T\\?'
p3392
tp3393
Rp3394
(dp3395
S'width89100'
p3396
g27
(g31
S'f\x0f%\x8c\xd9\xe4\xe6\xbf'
p3397
tp3398
Rp3399
sF0.5
Ntp3400
bsS'amp87400'
p3401
g6
(g7
g8
Ntp3402
Rp3403
(g1307
g27
(g31
S'\xc6\x9cHt\xcf\xa6\xc9?'
p3404
tp3405
Rp3406
I01
NI0
I1
Ng27
(g31
S'\xf0A\xcb\xed\xd7\xa7y?'
p3407
tp3408
Rp3409
(dp3410
g1299
g27
(g31
S'\x0c\xeb\x80\x0f\xb3\xc4\xe7\xbf'
p3411
tp3412
Rp3413
sF0.5
Ntp3414
bsS'width99232'
p3415
g6
(g7
g8
Ntp3416
Rp3417
(g3063
g27
(g31
S'\x14\x91/\xac\xfe\xff;@'
p3418
tp3419
Rp3420
I01
NI7
I28
Ng27
(g31
S'\xa4\x08\x83\xe6\xd9u\xf1?'
p3421
tp3422
Rp3423
(dp3424
g3055
g27
(g31
S'\x84\x84\xb7\xa5\x13\x85\xd9\xbf'
p3425
tp3426
Rp3427
sg3047
g27
(g31
S'\xd5\x8a\x1f[\xd6<\xdf\xbf'
p3428
tp3429
Rp3430
sg3059
g27
(g31
S'\x04A\xec\x84\xb1*\xc8?'
p3431
tp3432
Rp3433
sI14
Ntp3434
bsS'pos99039'
p3435
g6
(g7
g8
Ntp3436
Rp3437
(S'pos99039'
p3438
I99039
I00
NF-inf
Finf
NI0
NI99039
Ntp3439
bsS'pos99136'
p3440
g6
(g7
g8
Ntp3441
Rp3442
(S'pos99136'
p3443
I99136
I00
NF-inf
Finf
NI0
NI99136
Ntp3444
bsS'pos95314'
p3445
g6
(g7
g8
Ntp3446
Rp3447
(S'pos95314'
p3448
I95314
I00
NF-inf
Finf
NI0
NI95314
Ntp3449
bsS'pos69212'
p3450
g6
(g7
g8
Ntp3451
Rp3452
(S'pos69212'
p3453
I69212
I00
NF-inf
Finf
NI0
NI69212
Ntp3454
bsS'amp102501'
p3455
g6
(g7
g8
Ntp3456
Rp3457
(S'amp102501'
p3458
g27
(g31
S'\x00\x00\x00\x00@\xfd\xb6='
p3459
tp3460
Rp3461
I01
NI0
I1
NNNF0.5
Ntp3462
bsS'pos71359'
p3463
g6
(g7
g8
Ntp3464
Rp3465
(S'pos71359'
p3466
I71359
I00
NF-inf
Finf
NI0
NI71359
Ntp3467
bsS'width102792'
p3468
g6
(g7
g8
Ntp3469
Rp3470
(S'width102792'
p3471
g27
(g31
S'\x8a4\x0b\xc1T\x045@'
p3472
tp3473
Rp3474
I01
NI7
I28
NNNI14
Ntp3475
bsS'pos87629'
p3476
g6
(g7
g8
Ntp3477
Rp3478
(S'pos87629'
p3479
I87629
I00
NF-inf
Finf
NI0
NI87629
Ntp3480
bsS'amp102056'
p3481
g6
(g7
g8
Ntp3482
Rp3483
(S'amp102056'
p3484
g27
(g31
S'\xb0I\x04\xbb"Q\x92?'
p3485
tp3486
Rp3487
I01
NI0
I1
Ng27
(g31
S'\x06\xc3\x8a\xa7\xe73Q?'
p3488
tp3489
Rp3490
(dp3491
S'width102056'
p3492
g27
(g31
S'J\xd9w7\x1f\xe2\xe6\xbf'
p3493
tp3494
Rp3495
sF0.5
Ntp3496
bsS'amp102508'
p3497
g6
(g7
g8
Ntp3498
Rp3499
(S'amp102508'
p3500
g27
(g31
S'@6f\xe9\xe6\x88\xa1?'
p3501
tp3502
Rp3503
I01
NI0
I1
NNNF0.5
Ntp3504
bsS'width69517'
p3505
g6
(g7
g8
Ntp3506
Rp3507
(g297
g27
(g31
S'>\xd2\xc2\xad\x03\xe0:@'
p3508
tp3509
Rp3510
I01
NI7
I28
Ng27
(g31
S'A\x9ddy$\xdd\xe3?'
p3511
tp3512
Rp3513
(dp3514
g281
g27
(g31
S'\xc0>$\x91\x89Y\xde\xbf'
p3515
tp3516
Rp3517
sg289
g27
(g31
S'`\xa5,%N\xab\xd8\xbf'
p3518
tp3519
Rp3520
sg293
g27
(g31
S'>\x85\rQy\xd2\xc8\xbf'
p3521
tp3522
Rp3523
sI14
Ntp3524
bsS'pos88121'
p3525
g6
(g7
g8
Ntp3526
Rp3527
(S'pos88121'
p3528
I88121
I00
NF-inf
Finf
NI0
NI88121
Ntp3529
bsS'width70884'
p3530
g6
(g7
g8
Ntp3531
Rp3532
(g1885
g27
(g31
S'?\xa6\xf1\xe3{\xa5"@'
p3533
tp3534
Rp3535
I01
NI7
I28
Ng27
(g31
S'W\x95$+\xef\xa9\xa5A'
p3536
tp3537
Rp3538
(dp3539
g1877
g27
(g31
S'\x12DB\x0b\x00\x9b\xe4?'
p3540
tp3541
Rp3542
sI14
Ntp3543
bsS'width71473'
p3544
g6
(g7
g8
Ntp3545
Rp3546
(g729
g27
(g31
S'\x87\xd2:\xfb\xff\xff;@'
p3547
tp3548
Rp3549
I01
NI7
I28
Ng27
(g31
S'\x8e\xbb\x9a\xb9y\xd3\x02@'
p3550
tp3551
Rp3552
(dp3553
g721
g27
(g31
S'\xa0\xa6\xad5\x87\xb7\xe5\xbf'
p3554
tp3555
Rp3556
sI14
Ntp3557
bsS'amp98027'
p3558
g6
(g7
g8
Ntp3559
Rp3560
(g105
g27
(g31
S'H\x91\xb4\x03\xb2H\xa4?'
p3561
tp3562
Rp3563
I01
NI0
I1
Ng27
(g31
S'\x07\x1f^I\xb8\xf5O?'
p3564
tp3565
Rp3566
(dp3567
g97
g27
(g31
S'\xf7^y\xba\xbe;P?'
p3568
tp3569
Rp3570
sg101
g27
(g31
S'7~0}\xd4\xce\xc6?'
p3571
tp3572
Rp3573
sg109
g27
(g31
S'\x97\xa7\x96\xf7M#\xb4?'
p3574
tp3575
Rp3576
sg113
g27
(g31
S'.\xf4\xdei\xf3]\x9b?'
p3577
tp3578
Rp3579
sg117
g27
(g31
S'\x92\r\x07\xd1\x0b\xb2\x84?'
p3580
tp3581
Rp3582
sg89
g27
(g31
S'EA`}}`q\xbf'
p3583
tp3584
Rp3585
sg121
g27
(g31
S'$s!\xd8\x16\x1a\x95\xbf'
p3586
tp3587
Rp3588
sg125
g27
(g31
S'\xa7\xc0\xd1\xa5\xd3\xa2\xc7?'
p3589
tp3590
Rp3591
sg129
g27
(g31
S'O\xd1A4\x1ep\xe0\xbf'
p3592
tp3593
Rp3594
sF0.5
Ntp3595
bsS'width71577'
p3596
g6
(g7
g8
Ntp3597
Rp3598
(S'width71577'
p3599
g27
(g31
S'`Br\xf4\xff\xff;@'
p3600
tp3601
Rp3602
I01
NI7
I28
Ng27
(g31
S'\x11{\xf4\x01\xda\x93\xb2?'
p3603
tp3604
Rp3605
(dp3606
S'amp71577'
p3607
g27
(g31
S'\xc2\xf8\xe8y_\x02\xdf?'
p3608
tp3609
Rp3610
sI14
Ntp3611
bsS'pos93943'
p3612
g6
(g7
g8
Ntp3613
Rp3614
(S'pos93943'
p3615
I93943
I00
NF-inf
Finf
NI0
NI93943
Ntp3616
bsS'width102486'
p3617
g6
(g7
g8
Ntp3618
Rp3619
(S'width102486'
p3620
g27
(g31
S'P#\x91\xf4\xf9\xfc;@'
p3621
tp3622
Rp3623
I01
NI7
I28
NNNI14
Ntp3624
bsS'pos102931'
p3625
g6
(g7
g8
Ntp3626
Rp3627
(S'pos102931'
p3628
I102931
I00
NF-inf
Finf
NI0
NI102931
Ntp3629
bsS'width98316'
p3630
g6
(g7
g8
Ntp3631
Rp3632
(S'width98316'
p3633
g27
(g31
S'\xea$\xd3\xfe\xff\xff;@'
p3634
tp3635
Rp3636
I01
NI7
I28
NNNI14
Ntp3637
bsS'pos98518'
p3638
g6
(g7
g8
Ntp3639
Rp3640
(S'pos98518'
p3641
I98518
I00
NF-inf
Finf
NNNI98518
Ntp3642
bsS'amp88320'
p3643
g6
(g7
g8
Ntp3644
Rp3645
(g2186
g27
(g31
S'\xc0\xe7\xe4\xe0=E\x8c?'
p3646
tp3647
Rp3648
I01
NI0
I1
Ng27
(g31
S'\xf5\xb2\x96\x15\xb71J?'
p3649
tp3650
Rp3651
(dp3652
g2190
g27
(g31
S'\x8c\xef\xcc"0\x07\xc3?'
p3653
tp3654
Rp3655
sg2178
g27
(g31
S'\x7f\xc3\x85\xb9&\x18\xb6\xbf'
p3656
tp3657
Rp3658
sg2194
g27
(g31
S'\x8b"\xfee\x0f\xb1\xe3\xbf'
p3659
tp3660
Rp3661
sF0.5
Ntp3662
bsS'width102508'
p3663
g6
(g7
g8
Ntp3664
Rp3665
(S'width102508'
p3666
g27
(g31
S'\x00\x00\x00\x00\x00\x00<@'
p3667
tp3668
Rp3669
I01
NI7
I28
NNNI14
Ntp3670
bsS'pos71349'
p3671
g6
(g7
g8
Ntp3672
Rp3673
(S'pos71349'
p3674
I71349
I00
NF-inf
Finf
NI0
NI71349
Ntp3675
bsS'pos106813'
p3676
g6
(g7
g8
Ntp3677
Rp3678
(S'pos106813'
p3679
I106813
I00
NF-inf
Finf
NI0
NI106813
Ntp3680
bsS'width102501'
p3681
g6
(g7
g8
Ntp3682
Rp3683
(S'width102501'
p3684
g27
(g31
S'\x9a|\xe9\x9a\x13d0@'
p3685
tp3686
Rp3687
I01
NI7
I28
NNNI14
Ntp3688
bsS'pos100630'
p3689
g6
(g7
g8
Ntp3690
Rp3691
(S'pos100630'
p3692
I100630
I00
NF-inf
Finf
NI0
NI100630
Ntp3693
bsS'pos71023'
p3694
g6
(g7
g8
Ntp3695
Rp3696
(S'pos71023'
p3697
I71023
I00
NF-inf
Finf
NI0
NI71023
Ntp3698
bsS'pos71187'
p3699
g6
(g7
g8
Ntp3700
Rp3701
(S'pos71187'
p3702
I71187
I00
NF-inf
Finf
NNNI71187
Ntp3703
bsS'pos69149'
p3704
g6
(g7
g8
Ntp3705
Rp3706
(S'pos69149'
p3707
I69149
I00
NF-inf
Finf
NI0
NI69149
Ntp3708
bsS'width98380'
p3709
g6
(g7
g8
Ntp3710
Rp3711
(S'width98380'
p3712
g27
(g31
S'\xe0\x0c\xe1\xff\xff\xff;@'
p3713
tp3714
Rp3715
I01
NI7
I28
NNNI14
Ntp3716
bsS'pos98580'
p3717
g6
(g7
g8
Ntp3718
Rp3719
(S'pos98580'
p3720
I98580
I00
NF-inf
Finf
NNNI98580
Ntp3721
bsS'pos98422'
p3722
g6
(g7
g8
Ntp3723
Rp3724
(S'pos98422'
p3725
I98422
I00
NF-inf
Finf
NNNI98422
Ntp3726
bsS'width102056'
p3727
g6
(g7
g8
Ntp3728
Rp3729
(g3492
g27
(g31
S'\xa8\xd8E\xe1\xff\xff;@'
p3730
tp3731
Rp3732
I01
NI7
I28
Ng27
(g31
S'\xec\x8a\x9c\xdc\xb9\xf0\x04@'
p3733
tp3734
Rp3735
(dp3736
g3484
g27
(g31
S'J\xd9w7\x1f\xe2\xe6\xbf'
p3737
tp3738
Rp3739
sI14
Ntp3740
bsS'amp87629'
p3741
g6
(g7
g8
Ntp3742
Rp3743
(g761
g27
(g31
S'\xa0S<l\x8f2\x88?'
p3744
tp3745
Rp3746
I01
NI0
I1
Ng27
(g31
S'\x14g\x82\xa0lOB?'
p3747
tp3748
Rp3749
(dp3750
g753
g27
(g31
S'e\xad4}Dr\xe6\xbf'
p3751
tp3752
Rp3753
sF0.5
Ntp3754
bsS'pos86624'
p3755
g6
(g7
g8
Ntp3756
Rp3757
(S'pos86624'
p3758
I86624
I00
NF-inf
Finf
NI0
NI86624
Ntp3759
bsS'width71023'
p3760
g6
(g7
g8
Ntp3761
Rp3762
(g447
g27
(g31
S'@\x92P\x98U\xa65@'
p3763
tp3764
Rp3765
I01
NI7
I28
Ng27
(g31
S'QU\x89$\x91\xb4\xf1?'
p3766
tp3767
Rp3768
(dp3769
g439
g27
(g31
S'\xc3\xe6#\xae\xaa\xc7\xe6\xbf'
p3770
tp3771
Rp3772
sI14
Ntp3773
bsS'pos102448'
p3774
g6
(g7
g8
Ntp3775
Rp3776
(S'pos102448'
p3777
I102448
I00
NF-inf
Finf
NNNI102448
Ntp3778
bsS'pos89425'
p3779
g6
(g7
g8
Ntp3780
Rp3781
(S'pos89425'
p3782
I89425
I00
NF-inf
Finf
NI0
NI89425
Ntp3783
bsS'pos86393'
p3784
g6
(g7
g8
Ntp3785
Rp3786
(S'pos86393'
p3787
I86393
I00
NF-inf
Finf
NI0
NI86393
Ntp3788
bsS'pos102568'
p3789
g6
(g7
g8
Ntp3790
Rp3791
(S'pos102568'
p3792
I102568
I00
NF-inf
Finf
NI0
NI102568
Ntp3793
bsS'pos71234'
p3794
g6
(g7
g8
Ntp3795
Rp3796
(S'pos71234'
p3797
I71234
I00
NF-inf
Finf
NNNI71234
Ntp3798
bsS'width89491'
p3799
g6
(g7
g8
Ntp3800
Rp3801
(g967
g27
(g31
S'\xae\xbf\xe1\xfe\xff\xff;@'
p3802
tp3803
Rp3804
I01
NI7
I28
Ng27
(g31
S'S\xb8\x9dr\xa1t)@'
p3805
tp3806
Rp3807
(dp3808
g955
g27
(g31
S'\x1eQP9n\x83\xb5?'
p3809
tp3810
Rp3811
sg959
g27
(g31
S'0\xae\xf2\x17XR\xa2\xbf'
p3812
tp3813
Rp3814
sg963
g27
(g31
S'|\x0c\x8e\x1f]\\\x9a\xbf'
p3815
tp3816
Rp3817
sg947
g27
(g31
S'\xaa\xfc\x8b@\x80\xd7\xd1?'
p3818
tp3819
Rp3820
sg971
g27
(g31
S'\xf0\xdd\xc4\xad8Q\xbb?'
p3821
tp3822
Rp3823
sg975
g27
(g31
S'\xb4\xdf"3\xbfu\xaf?'
p3824
tp3825
Rp3826
sg979
g27
(g31
S'\xcc~\x8f"\xa3\x06\xda?'
p3827
tp3828
Rp3829
sI14
Ntp3830
bsS'pos69517'
p3831
g6
(g7
g8
Ntp3832
Rp3833
(S'pos69517'
p3834
I69517
I00
NF-inf
Finf
NI0
NI69517
Ntp3835
bsS'amp86624'
p3836
g6
(g7
g8
Ntp3837
Rp3838
(g2116
g27
(g31
S'm\xe0\xec-^\xfb\xd2?'
p3839
tp3840
Rp3841
I01
NI0
I1
Ng27
(g31
S'(SLH\xbe\xde\x82?'
p3842
tp3843
Rp3844
(dp3845
g2108
g27
(g31
S'X\xd0\x9b\xfb+\xed\xe6\xbf'
p3846
tp3847
Rp3848
sF0.5
Ntp3849
bsS'pos93996'
p3850
g6
(g7
g8
Ntp3851
Rp3852
(S'pos93996'
p3853
I93996
I00
NF-inf
Finf
NI0
NI93996
Ntp3854
bsS'amp71290'
p3855
g6
(g7
g8
Ntp3856
Rp3857
(S'amp71290'
p3858
g27
(g31
S'\xb4cE\xed\xb9[\xcd?'
p3859
tp3860
Rp3861
I01
NI0
I1
NNNF0.5
Ntp3862
bsS'amp69323'
p3863
g6
(g7
g8
Ntp3864
Rp3865
(g57
g27
(g31
S'\xd8o;\x913y\xb2?'
p3866
tp3867
Rp3868
I01
NI0
I1
Ng27
(g31
S'\x07\x10\r\xa7\tzd?'
p3869
tp3870
Rp3871
(dp3872
g65
g27
(g31
S'\x9a\x10|\xa7\x05~\xcc?'
p3873
tp3874
Rp3875
sg49
g27
(g31
S'(a\xc0\xae\x9e\x0c\xa8?'
p3876
tp3877
Rp3878
sg53
g27
(g31
S'K\xf3\xd4\xf2\xb7\x13\xa8?'
p3879
tp3880
Rp3881
sg61
g27
(g31
S'\xd91eAZ\ty\xbf'
p3882
tp3883
Rp3884
sg41
g27
(g31
S'\t\x94\xc66\xc9\xe4\x87?'
p3885
tp3886
Rp3887
sg69
g27
(g31
S'F3\xf2\xf1\x1d(\xa1?'
p3888
tp3889
Rp3890
sg73
g27
(g31
S'B\x15\xae\x7f\x97\x0e\xd4\xbf'
p3891
tp3892
Rp3893
sg77
g27
(g31
S'\xa6F\xa9!D\xac\xde\xbf'
p3894
tp3895
Rp3896
sg81
g27
(g31
S'\n\x9f4!\xa4@\xad?'
p3897
tp3898
Rp3899
sF0.5
Ntp3900
bsS'width102931'
p3901
g6
(g7
g8
Ntp3902
Rp3903
(g1972
g27
(g31
S'\xa9\xff\xff\xff\xff\xff;@'
p3904
tp3905
Rp3906
I01
NI7
I28
Ng27
(g31
S'\x04\xc0\xb1\x18\xf9KW?'
p3907
tp3908
Rp3909
(dp3910
g1964
g27
(g31
S'\xd2\xea\x142\xfa\x98\xde?'
p3911
tp3912
Rp3913
sg1968
g27
(g31
S'H\x9c\xf6\xb3v\x1b\xd9?'
p3914
tp3915
Rp3916
sg1956
g27
(g31
S'\x822\r\xe5y\xf4\xd0?'
p3917
tp3918
Rp3919
sI14
Ntp3920
bsS'pos88784'
p3921
g6
(g7
g8
Ntp3922
Rp3923
(S'pos88784'
p3924
I88784
I00
NF-inf
Finf
NI0
NI88784
Ntp3925
bsS'amp98380'
p3926
g6
(g7
g8
Ntp3927
Rp3928
(S'amp98380'
p3929
g27
(g31
S'\x90o\x04s)\xb9\xb8?'
p3930
tp3931
Rp3932
I01
NI0
I1
NNNF0.5
Ntp3933
bsS'pos88164'
p3934
g6
(g7
g8
Ntp3935
Rp3936
(S'pos88164'
p3937
I88164
I00
NF-inf
Finf
NI0
NI88164
Ntp3938
bsS'amp100431'
p3939
g6
(g7
g8
Ntp3940
Rp3941
(S'amp100431'
p3942
g27
(g31
S'`w\xbd\xf1\x16z\x85?'
p3943
tp3944
Rp3945
I01
NI0
I1
NNNF0.5
Ntp3946
bsS'pos89491'
p3947
g6
(g7
g8
Ntp3948
Rp3949
(S'pos89491'
p3950
I89491
I00
NF-inf
Finf
NI0
NI89491
Ntp3951
bsS'width99205'
p3952
g6
(g7
g8
Ntp3953
Rp3954
(g3059
g27
(g31
S'q\xab\xcc\xff\xff\xff;@'
p3955
tp3956
Rp3957
I01
NI7
I28
Ng27
(g31
S"r'c\xb4\xdaL\xd0?"
p3958
tp3959
Rp3960
(dp3961
g3055
g27
(g31
S'\xb2\xcf\xf9}\x8c<\xdf?'
p3962
tp3963
Rp3964
sg3047
g27
(g31
S'&\x83\xb2\x15$\x84\xd9?'
p3965
tp3966
Rp3967
sg3063
g27
(g31
S'\xd8@\xec\x84\xb1*\xc8?'
p3968
tp3969
Rp3970
sI14
Ntp3971
bsS'amp98472'
p3972
g6
(g7
g8
Ntp3973
Rp3974
(S'amp98472'
p3975
g27
(g31
S'\x00\xf2\xcd.\xe2\x96\x94?'
p3976
tp3977
Rp3978
I01
NI0
I1
NNNF0.5
Ntp3979
bsS'width89034'
p3980
g6
(g7
g8
Ntp3981
Rp3982
(g2421
g27
(g31
S'\x8eh"i\x99G9@'
p3983
tp3984
Rp3985
I01
NI7
I28
Ng27
(g31
S'\x83\xffC\x02E\x08\xd8?'
p3986
tp3987
Rp3988
(dp3989
g2413
g27
(g31
S'cD\xb8\xc1v\xd6\xe6\xbf'
p3990
tp3991
Rp3992
sI14
Ntp3993
bsS'pos69323'
p3994
g6
(g7
g8
Ntp3995
Rp3996
(S'pos69323'
p3997
I69323
I00
NF-inf
Finf
NI0
NI69323
Ntp3998
bsS'amp86460'
p3999
g6
(g7
g8
Ntp4000
Rp4001
(g2673
g27
(g31
S'\xe0\xa5\xae\xd8\xb2\xe3\xc9?'
p4002
tp4003
Rp4004
I01
NI0
I1
Ng27
(g31
S'}\x05\x94\xb5o\xe6y?'
p4005
tp4006
Rp4007
(dp4008
g2665
g27
(g31
S'+oqyk!\xe7\xbf'
p4009
tp4010
Rp4011
sF0.5
Ntp4012
bsS'amp71349'
p4013
g6
(g7
g8
Ntp4014
Rp4015
(g2033
g27
(g31
S'\xb0a\xc4k\xaeo\x9f?'
p4016
tp4017
Rp4018
I01
NI0
I1
Ng27
(g31
S'\x82\xb0\xcd\xeaV\x8b\x80?'
p4019
tp4020
Rp4021
(dp4022
g2037
g27
(g31
S'\x8b\xb7\x966a~\xe8\xbf'
p4023
tp4024
Rp4025
sg2025
g27
(g31
S'y\xe5\x84\xf8q\x87\xd3?'
p4026
tp4027
Rp4028
sg2041
g27
(g31
S']t\xc2\xddL\x89\xe1\xbf'
p4029
tp4030
Rp4031
sF0.5
Ntp4032
bsS'width86690'
p4033
g6
(g7
g8
Ntp4034
Rp4035
(g2437
g27
(g31
S'\x1c\x1fE\xff\xff\xff;@'
p4036
tp4037
Rp4038
I01
NI7
I28
Ng27
(g31
S'\xd8\x85(\xe6\xc1\x05\x19@'
p4039
tp4040
Rp4041
(dp4042
g2429
g27
(g31
S'PH\xa9Xg\xe6\xe6\xbf'
p4043
tp4044
Rp4045
sI14
Ntp4046
bsS'pos102701'
p4047
g6
(g7
g8
Ntp4048
Rp4049
(S'pos102701'
p4050
I102701
I00
NF-inf
Finf
NI0
NI102701
Ntp4051
bsS'width97872'
p4052
g6
(g7
g8
Ntp4053
Rp4054
(g97
g27
(g31
S'B&fm\x00\xb7;@'
p4055
tp4056
Rp4057
I01
NI7
I28
Ng27
(g31
S'|*\xe3\x9c\xa7\xd8\t@'
p4058
tp4059
Rp4060
(dp4061
g101
g27
(g31
S'\x19`\xe1\x0c\xbd\x82w\xbf'
p4062
tp4063
Rp4064
sg105
g27
(g31
S'\xa7Dy\xba\xbe;P?'
p4065
tp4066
Rp4067
sg109
g27
(g31
S'K\x98\xa7$a\x10\xa6?'
p4068
tp4069
Rp4070
sg113
g27
(g31
S'\x7f"OoY\xf7\xa3\xbf'
p4071
tp4072
Rp4073
sg117
g27
(g31
S'\x82\xa0\x98\xbcC\xa8\xe4\xbf'
p4074
tp4075
Rp4076
sg89
g27
(g31
S'\x05\xa9\x16!w\x80\xd6\xbf'
p4077
tp4078
Rp4079
sg121
g27
(g31
S'\xb9W_\x1f3\x95\xba?'
p4080
tp4081
Rp4082
sg125
g27
(g31
S'\xab\xb5\xb8\x87\x87\x00\x7f?'
p4083
tp4084
Rp4085
sg129
g27
(g31
S'\xf8\xc0h0\xab\x91\xa7\xbf'
p4086
tp4087
Rp4088
sI14
Ntp4089
bsS'pos71473'
p4090
g6
(g7
g8
Ntp4091
Rp4092
(S'pos71473'
p4093
I71473
I00
NF-inf
Finf
NI0
NI71473
Ntp4094
bsS'width97971'
p4095
g6
(g7
g8
Ntp4096
Rp4097
(g121
g27
(g31
S'\x1a\xd7\x01;h\xce9@'
p4098
tp4099
Rp4100
I01
NI7
I28
Ng27
(g31
S'L\x10WI\xef(\xf1?'
p4101
tp4102
Rp4103
(dp4104
g101
g27
(g31
S'E;\xa9}7\x1a\xb7\xbf'
p4105
tp4106
Rp4107
sg105
g27
(g31
S'\xc3s!\xd8\x16\x1a\x95\xbf'
p4108
tp4109
Rp4110
sg117
g27
(g31
S'g\xe7\x16\xa3\xc8\x12Y\xbf'
p4111
tp4112
Rp4113
sg97
g27
(g31
S'\xa0V_\x1f3\x95\xba?'
p4114
tp4115
Rp4116
sg89
g27
(g31
S'\x99\x10LH\xf1\x05\xd7\xbf'
p4117
tp4118
Rp4119
sg109
g27
(g31
S'\x93\x08z\x85\xd7\xf2\xe0\xbf'
p4120
tp4121
Rp4122
sg125
g27
(g31
S'\x99B\x80r\xf5E\xab?'
p4123
tp4124
Rp4125
sg113
g27
(g31
S'\x1b\x87\n\x9c\xa3@\xc0\xbf'
p4126
tp4127
Rp4128
sg129
g27
(g31
S"\x8e0t\xb4\x83'\xd6\xbf"
p4129
tp4130
Rp4131
sI14
Ntp4132
bsS'pos71577'
p4133
g6
(g7
g8
Ntp4134
Rp4135
(S'pos71577'
p4136
I71577
I00
NF-inf
Finf
NI0
NI71577
Ntp4137
bsS'amp100523'
p4138
g6
(g7
g8
Ntp4139
Rp4140
(g2729
g27
(g31
S'\x90#J6\x00g\x92?'
p4141
tp4142
Rp4143
I01
NI0
I1
Ng27
(g31
S'\xf0\xee\xf2\xde\x1c\tL?'
p4144
tp4145
Rp4146
(dp4147
g2721
g27
(g31
S'\x9f\x94 \xea\x13\xe2\xe6\xbf'
p4148
tp4149
Rp4150
sF0.5
Ntp4151
bsS'width93943'
p4152
g6
(g7
g8
Ntp4153
Rp4154
(g1283
g27
(g31
S'\xb7\x85\xa9\xf8\xff\xff;@'
p4155
tp4156
Rp4157
I01
NI7
I28
Ng27
(g31
S'\x11\xf61[2\x90\xfd?'
p4158
tp4159
Rp4160
(dp4161
g1287
g27
(g31
S'4t\xb1\xe1\xe9t\xe4\xbf'
p4162
tp4163
Rp4164
sg1275
g27
(g31
S'\xc2^\xd7\xde\x96\xef\xa6\xbf'
p4165
tp4166
Rp4167
sg1291
g27
(g31
S'\xae\xb7\xf6"\xe8\xfe\xd5\xbf'
p4168
tp4169
Rp4170
sI14
Ntp4171
bsS'width71359'
p4172
g6
(g7
g8
Ntp4173
Rp4174
(g2041
g27
(g31
S'\x8cE\xa3\xff\xff\xff;@'
p4175
tp4176
Rp4177
I01
NI7
I28
Ng27
(g31
S'\xdb\x1c\x0c\xa7\x1fK\x1f@'
p4178
tp4179
Rp4180
(dp4181
g2033
g27
(g31
S'\\t\xc2\xddL\x89\xe1\xbf'
p4182
tp4183
Rp4184
sg2025
g27
(g31
S'L\xc1\xa5e\xf6\xd5\xe3\xbf'
p4185
tp4186
Rp4187
sg2037
g27
(g31
S'\xbcY\xe1\xe5\x86\x8f\xd3?'
p4188
tp4189
Rp4190
sI14
Ntp4191
bsS'amp99013'
p4192
g6
(g7
g8
Ntp4193
Rp4194
(g2095
g27
(g31
S'`N\x8d\xfa\x8fQ\x94?'
p4195
tp4196
Rp4197
I01
NI0
I1
Ng27
(g31
S'\xcc\x8aJM\xbf\xa6K?'
p4198
tp4199
Rp4200
(dp4201
g2079
g27
(g31
S'~\xb2L\xfa[\x88\xca?'
p4202
tp4203
Rp4204
sg2091
g27
(g31
S'N1\x12\xcc\x8b\x90\xdf\xbf'
p4205
tp4206
Rp4207
sg2087
g27
(g31
S'\x97\xad\xc3"[%\xd9\xbf'
p4208
tp4209
Rp4210
sF0.5
Ntp4211
bsS'width89100'
p4212
g6
(g7
g8
Ntp4213
Rp4214
(g3396
g27
(g31
S'\xc5\xb7I\xfe\xff\xff;@'
p4215
tp4216
Rp4217
I01
NI7
I28
Ng27
(g31
S'\xd7y4\xce\xd3&\x13@'
p4218
tp4219
Rp4220
(dp4221
g3388
g27
(g31
S'f\x0f%\x8c\xd9\xe4\xe6\xbf'
p4222
tp4223
Rp4224
sI14
Ntp4225
bsS'amp102337'
p4226
g6
(g7
g8
Ntp4227
Rp4228
(g1267
g27
(g31
S'\x00\x0e?_\x99\n\x89?'
p4229
tp4230
Rp4231
I01
NI0
I1
Ng27
(g31
S'E\xbf\xbf\x16\x08\xa75?'
p4232
tp4233
Rp4234
(dp4235
g1259
g27
(g31
S'u\x8e\xa9\xa5\xd8\xe5\xe6\xbf'
p4236
tp4237
Rp4238
sF0.5
Ntp4239
bsS'pos99301'
p4240
g6
(g7
g8
Ntp4241
Rp4242
(S'pos99301'
p4243
I99301
I00
NF-inf
Finf
NI0
NI99301
Ntp4244
bsS'width94354'
p4245
g6
(g7
g8
Ntp4246
Rp4247
(g347
g27
(g31
S'.E\xfd\xff\xff\xff;@'
p4248
tp4249
Rp4250
I01
NI7
I28
Ng27
(g31
S'\xc7T\x12\x87\xdf\xa0\xdf?'
p4251
tp4252
Rp4253
(dp4254
g339
g27
(g31
S'qv9\xc4\xb0\xe1\xe6?'
p4255
tp4256
Rp4257
sI14
Ntp4258
bsS'width99108'
p4259
g6
(g7
g8
Ntp4260
Rp4261
(g829
g27
(g31
S'\r\xd5\xf1\xff\xff\xff;@'
p4262
tp4263
Rp4264
I01
NI7
I28
Ng27
(g31
S'\x0c\xcb\xff\xea"C\x14@'
p4265
tp4266
Rp4267
(dp4268
g833
g27
(g31
S'D\xd2\x9d\xcdh\xb2\xdd?'
p4269
tp4270
Rp4271
sg821
g27
(g31
S'P\xe9\x82\x9f\x05t\xca?'
p4272
tp4273
Rp4274
sg837
g27
(g31
S'\xd7\x86\xca\xfez\x9a\xda?'
p4275
tp4276
Rp4277
sI14
Ntp4278
bsS'amp106813'
p4279
g6
(g7
g8
Ntp4280
Rp4281
(g2883
g27
(g31
S'\xb0\x83\xac\xc1 \xa6\x90?'
p4282
tp4283
Rp4284
I01
NI0
I1
Ng27
(g31
S';\x17O\x93;\xa9@?'
p4285
tp4286
Rp4287
(dp4288
g2875
g27
(g31
S'\xa5\xef\x191\x98\xd4\xe6\xbf'
p4289
tp4290
Rp4291
sF0.5
Ntp4292
bsS'amp69296'
p4293
g6
(g7
g8
Ntp4294
Rp4295
(g65
g27
(g31
S'\xaclZ\xd6\xef\x1d\xb0?'
p4296
tp4297
Rp4298
I01
NI0
I1
Ng27
(g31
S'zkx\xa2\x8d\x89d?'
p4299
tp4300
Rp4301
(dp4302
g49
g27
(g31
S'\xf7\xbd\xb0\x95~\x83b\xbf'
p4303
tp4304
Rp4305
sg53
g27
(g31
S'\x8c\x87\xf35\x07\xbcu?'
p4306
tp4307
Rp4308
sg57
g27
(g31
S'\x80\x10|\xa7\x05~\xcc?'
p4309
tp4310
Rp4311
sg61
g27
(g31
S'\x7f\r`\xd7`\x16}?'
p4312
tp4313
Rp4314
sg41
g27
(g31
S'\x0c\x085\xd8Jgm\xbf'
p4315
tp4316
Rp4317
sg69
g27
(g31
S'\x82x\xb6\x07\xa0\x04d?'
p4318
tp4319
Rp4320
sg73
g27
(g31
S'\xd2l\x7fd&\x07\xe0\xbf'
p4321
tp4322
Rp4323
sg77
g27
(g31
S'\xb8\\\xd6\xac\xa5J\xd3\xbf'
p4324
tp4325
Rp4326
sg81
g27
(g31
S'\xa0\xad\r\xcc\x90\xc0\xad?'
p4327
tp4328
Rp4329
sF0.5
Ntp4330
bsS'amp95314'
p4331
g6
(g7
g8
Ntp4332
Rp4333
(g2867
g27
(g31
S'\xa0\n9#\xbep\x88?'
p4334
tp4335
Rp4336
I01
NI0
I1
Ng27
(g31
S'm\xca\xb2[\x87\xf7/?'
p4337
tp4338
Rp4339
(dp4340
g2859
g27
(g31
S']\xdd\xb5Q\xc1\xdc\xe6\xbf'
p4341
tp4342
Rp4343
sF0.5
Ntp4344
bsS'amp71129'
p4345
g6
(g7
g8
Ntp4346
Rp4347
(g1589
g27
(g31
S'\x10\xab\x10\xd0gM\x9e?'
p4348
tp4349
Rp4350
I01
NI0
I1
Ng27
(g31
S'\xd3\xfb\xe2]\x86\x9cx?'
p4351
tp4352
Rp4353
(dp4354
g1577
g27
(g31
S'W\xeb\xb4\xbb*1\xe3?'
p4355
tp4356
Rp4357
sg1585
g27
(g31
S'O\x05i>\x89v\xc7?'
p4358
tp4359
Rp4360
sg1593
g27
(g31
S'\xe4\xc5\x13\xa7\x9aS\xc0\xbf'
p4361
tp4362
Rp4363
sF0.5
Ntp4364
bsS'amp94264'
p4365
g6
(g7
g8
Ntp4366
Rp4367
(g745
g27
(g31
S'\xa0<s\x9a:\xfe\x94?'
p4368
tp4369
Rp4370
I01
NI0
I1
Ng27
(g31
S'J\x1f\x9d\x93\xc2|G?'
p4371
tp4372
Rp4373
(dp4374
g737
g27
(g31
S'y\x0e\xc6\xa9G\xc9\xe6\xbf'
p4375
tp4376
Rp4377
sF0.5
Ntp4378
bsS'pos102792'
p4379
g6
(g7
g8
Ntp4380
Rp4381
(S'pos102792'
p4382
I102792
I00
NF-inf
Finf
NNNI102792
Ntp4383
bsS'pos86690'
p4384
g6
(g7
g8
Ntp4385
Rp4386
(S'pos86690'
p4387
I86690
I00
NF-inf
Finf
NI0
NI86690
Ntp4388
bsS'amp98125'
p4389
g6
(g7
g8
Ntp4390
Rp4391
(g220
g27
(g31
S'\xac\x8b\x07:\n\xcb\xb1?'
p4392
tp4393
Rp4394
I01
NI0
I1
Ng27
(g31
S'\x1b\x0f\x18\x1c"\x97r?'
p4395
tp4396
Rp4397
(dp4398
g212
g27
(g31
S'\xd8\xe3\xed\xc6^\xdf\xcd?'
p4399
tp4400
Rp4401
sg228
g27
(g31
S'\xfeF\xf4\x94\xe5\xc2\xe0?'
p4402
tp4403
Rp4404
sg224
g27
(g31
S'\xa8\xe2FE\xf3c\xd0?'
p4405
tp4406
Rp4407
sF0.5
Ntp4408
bsS'width88164'
p4409
g6
(g7
g8
Ntp4410
Rp4411
(g326
g27
(g31
S'\x03&\xf5\xdd\x03\xd37@'
p4412
tp4413
Rp4414
I01
NI7
I28
Ng27
(g31
S's\xebx3\xf8;\xe1?'
p4415
tp4416
Rp4417
(dp4418
g318
g27
(g31
S'\xd1]\xe3Vw\xf7\xaf\xbf'
p4419
tp4420
Rp4421
sg310
g27
(g31
S'i4\xc7\xae\xd4y\xd5\xbf'
p4422
tp4423
Rp4424
sg322
g27
(g31
S'\xcf\x95 I\xc3S\xe4\xbf'
p4425
tp4426
Rp4427
sI14
Ntp4428
bsS'pos88023'
p4429
g6
(g7
g8
Ntp4430
Rp4431
(S'pos88023'
p4432
I88023
I00
NF-inf
Finf
NI0
NI88023
Ntp4433
bsS'pos99232'
p4434
g6
(g7
g8
Ntp4435
Rp4436
(S'pos99232'
p4437
I99232
I00
NF-inf
Finf
NI0
NI99232
Ntp4438
bsS'width99039'
p4439
g6
(g7
g8
Ntp4440
Rp4441
(g2091
g27
(g31
S'\xab\xac\xf2\xd5\xb5\x01;@'
p4442
tp4443
Rp4444
I01
NI7
I28
Ng27
(g31
S'do\xedmW\xd7\xe3?'
p4445
tp4446
Rp4447
(dp4448
g2095
g27
(g31
S'D1\x12\xcc\x8b\x90\xdf\xbf'
p4449
tp4450
Rp4451
sg2087
g27
(g31
S'U?l&JA\xc7\xbf'
p4452
tp4453
Rp4454
sg2079
g27
(g31
S'7\xa9w7\xda\xe8\xd8\xbf'
p4455
tp4456
Rp4457
sI14
Ntp4458
bsS'pi'
p4459
F3.141592653589793
sS'amp88893'
p4460
g6
(g7
g8
Ntp4461
Rp4462
(g2483
g27
(g31
S'\x04\x04\x1a\xcc\xe8T\xc7?'
p4463
tp4464
Rp4465
I01
NI0
I1
Ng27
(g31
S'K\xea\x87\x14\x94\x84c?'
p4466
tp4467
Rp4468
(dp4469
g2487
g27
(g31
S'L\xb3\x1c\xed\x02B\xcc?'
p4470
tp4471
Rp4472
sg2491
g27
(g31
S'\x8c\x9f\x1e\x82\xe3\x06\xcd\xbf'
p4473
tp4474
Rp4475
sg2475
g27
(g31
S'\xf9/\xc2\x8e\xb3Q\xe1\xbf'
p4476
tp4477
Rp4478
sF0.5
Ntp4479
bsS'width94053'
p4480
g6
(g7
g8
Ntp4481
Rp4482
(g2657
g27
(g31
S'z\x83:\xfa\xff\xff;@'
p4483
tp4484
Rp4485
I01
NI7
I28
Ng27
(g31
S'\x80\xe4\xb7\xb5\xf0\xd4\xfb?'
p4486
tp4487
Rp4488
(dp4489
g2649
g27
(g31
S'\xdfj\xc6\x81N\xe2\xe6\xbf'
p4490
tp4491
Rp4492
sI14
Ntp4493
bsS'width93996'
p4494
g6
(g7
g8
Ntp4495
Rp4496
(g1291
g27
(g31
S'$\xc0K\xf4\xff\xff;@'
p4497
tp4498
Rp4499
I01
NI7
I28
Ng27
(g31
S'-\xb9z\xfe\x13\xd5\xfc?'
p4500
tp4501
Rp4502
(dp4503
g1283
g27
(g31
S'\xa6\xb7\xf6"\xe8\xfe\xd5\xbf'
p4504
tp4505
Rp4506
sg1287
g27
(g31
S'\xe2\xf6\xe2i^\xf5\xa6\xbf'
p4507
tp4508
Rp4509
sg1275
g27
(g31
S'N"w@\'u\xe4\xbf'
p4510
tp4511
Rp4512
sI14
Ntp4513
bsS'width69692'
p4514
g6
(g7
g8
Ntp4515
Rp4516
(g713
g27
(g31
S'|\x03$\xff\xff\xff;@'
p4517
tp4518
Rp4519
I01
NI7
I28
Ng27
(g31
S'\x92\xf26\xb6\x86/\xf6?'
p4520
tp4521
Rp4522
(dp4523
g705
g27
(g31
S'\xfa\xc7\x0c-(\xe2\xe6?'
p4524
tp4525
Rp4526
sI14
Ntp4527
bsS'amp102568'
p4528
g6
(g7
g8
Ntp4529
Rp4530
(g1988
g27
(g31
S'\xa0B\xc1Y0\xe3\xdf?'
p4531
tp4532
Rp4533
I01
NI0
I1
Ng27
(g31
S'1\x86#(\xaf\xdez?'
p4534
tp4535
Rp4536
(dp4537
g1980
g27
(g31
S'7A\\\xc9\x1a\xdc\xe6\xbf'
p4538
tp4539
Rp4540
sF0.5
Ntp4541
bsS'pos88232'
p4542
g6
(g7
g8
Ntp4543
Rp4544
(S'pos88232'
p4545
I88232
I00
NF-inf
Finf
NI0
NI88232
Ntp4546
bsS'width99328'
p4547
g6
(g7
g8
Ntp4548
Rp4549
(g923
g27
(g31
S'\xfe\xed\xd8\xfb\xff\xff;@'
p4550
tp4551
Rp4552
I01
NI7
I28
Ng27
(g31
S'\x84"Bb\x8c\xd0\xf2?'
p4553
tp4554
Rp4555
(dp4556
g927
g27
(g31
S'\xe1\xedK;\x9f+\xc8?'
p4557
tp4558
Rp4559
sg915
g27
(g31
S'HE\xdf\xce\xc1\x84\xd9\xbf'
p4560
tp4561
Rp4562
sg931
g27
(g31
S'\xb3\x1ej\xd7H;\xdf\xbf'
p4563
tp4564
Rp4565
sI14
Ntp4566
bsS'amp87804'
p4567
g6
(g7
g8
Ntp4568
Rp4569
(S'amp87804'
p4570
g27
(g31
S'\xe0\xc8+ Y\x88\x85?'
p4571
tp4572
Rp4573
I01
NI0
I1
NNNF0.5
Ntp4574
bsS'inf'
p4575
Finf
sS'width87804'
p4576
g6
(g7
g8
Ntp4577
Rp4578
(S'width87804'
p4579
g27
(g31
S'\x00\x00\x00\x00\x00\x00<@'
p4580
tp4581
Rp4582
I01
NI7
I28
NNNI14
Ntp4583
bsS'pos102337'
p4584
g6
(g7
g8
Ntp4585
Rp4586
(S'pos102337'
p4587
I102337
I00
NF-inf
Finf
NI0
NI102337
Ntp4588
bsS'nan'
p4589
Fnan
sS'width69212'
p4590
g6
(g7
g8
Ntp4591
Rp4592
(g3318
g27
(g31
S'\xe1[f\xe3\xeci:@'
p4593
tp4594
Rp4595
I01
NI7
I28
Ng27
(g31
S'\x82,{\x0e\x96j\xe2?'
p4596
tp4597
Rp4598
(dp4599
g3310
g27
(g31
S'\x99Ox\x1eJ\xdb\xe6\xbf'
p4600
tp4601
Rp4602
sI14
Ntp4603
bsS'pos100523'
p4604
g6
(g7
g8
Ntp4605
Rp4606
(S'pos100523'
p4607
I100523
I00
NF-inf
Finf
NI0
NI100523
Ntp4608
bsS'width102863'
p4609
g6
(g7
g8
Ntp4610
Rp4611
(S'width102863'
p4612
g27
(g31
S'Kd\x82\xd6\xd8\x971@'
p4613
tp4614
Rp4615
I01
NI7
I28
NNNI14
Ntp4616
bsS'width99398'
p4617
g6
(g7
g8
Ntp4618
Rp4619
(S'width99398'
p4620
g27
(g31
S's^\xff\xff\xff\xff;@'
p4621
tp4622
Rp4623
I01
NI7
I28
NNNI14
Ntp4624
bsS'amp88164'
p4625
g6
(g7
g8
Ntp4626
Rp4627
(g322
g27
(g31
S'pb\x9b\xa7\x9c\x0b\xc9?'
p4628
tp4629
Rp4630
I01
NI0
I1
Ng27
(g31
S'Rf\x8b\xb6\xbf\x9fe?'
p4631
tp4632
Rp4633
(dp4634
g318
g27
(g31
S'RZV\xe0\x12\x19\xbf?'
p4635
tp4636
Rp4637
sg310
g27
(g31
S'\x94\xd8\xd3\x997\xa9\xac\xbf'
p4638
tp4639
Rp4640
sg326
g27
(g31
S'\xcd\x95 I\xc3S\xe4\xbf'
p4641
tp4642
Rp4643
sF0.5
Ntp4644
bsS'amp98580'
p4645
g6
(g7
g8
Ntp4646
Rp4647
(S'amp98580'
p4648
g27
(g31
S'\xe0\x87Q\xf3\xe4\xaf\x81?'
p4649
tp4650
Rp4651
I01
NI0
I1
NNNF0.5
Ntp4652
bsS'e'
p4653
F2.718281828459045
sS'pos97928'
p4654
g6
(g7
g8
Ntp4655
Rp4656
(S'pos97928'
p4657
I97928
I00
NF-inf
Finf
NI0
NI97928
Ntp4658
bsS'amp101964'
p4659
g6
(g7
g8
Ntp4660
Rp4661
(g2150
g27
(g31
S'`X\xf7\xf6\xc0\xc5\xa1?'
p4662
tp4663
Rp4664
I01
NI0
I1
Ng27
(g31
S'\xe8\xd5\xef\xcbx7B?'
p4665
tp4666
Rp4667
(dp4668
g2142
g27
(g31
S'\x1dT\xb4 \xf3\xe1\xe6?'
p4669
tp4670
Rp4671
sF0.5
Ntp4672
bsS'amp98422'
p4673
g6
(g7
g8
Ntp4674
Rp4675
(S'amp98422'
p4676
g27
(g31
S'|\x9a\xbf\x01R\x1a\xb8?'
p4677
tp4678
Rp4679
I01
NI0
I1
NNNF0.5
Ntp4680
bsS'amp71577'
p4681
g6
(g7
g8
Ntp4682
Rp4683
(g3607
g27
(g31
S' \xf6W0\x12\xf9\x8d?'
p4684
tp4685
Rp4686
I01
NI0
I1
Ng27
(g31
S'\xa9\xc0\xfd\xd2\x95\xa7F?'
p4687
tp4688
Rp4689
(dp4690
g3599
g27
(g31
S'\xc2\xf8\xe8y_\x02\xdf?'
p4691
tp4692
Rp4693
sF0.5
Ntp4694
bsS'pos69379'
p4695
g6
(g7
g8
Ntp4696
Rp4697
(S'pos69379'
p4698
I69379
I00
NF-inf
Finf
NI0
NI69379
Ntp4699
bsS'width69323'
p4700
g6
(g7
g8
Ntp4701
Rp4702
(g77
g27
(g31
S'Xy\xd0R\xc2N6@'
p4703
tp4704
Rp4705
I01
NI7
I28
Ng27
(g31
S'vVr\xee\xe7G\xf5?'
p4706
tp4707
Rp4708
(dp4709
g65
g27
(g31
S'\xc1\\\xd6\xac\xa5J\xd3\xbf'
p4710
tp4711
Rp4712
sg49
g27
(g31
S'\x9f\xae\xd9\xcf\xec\xdf\xb5?'
p4713
tp4714
Rp4715
sg53
g27
(g31
S'\x1a\x1a\x9a\x89 /\xb0?'
p4716
tp4717
Rp4718
sg57
g27
(g31
S'\xa6F\xa9!D\xac\xde\xbf'
p4719
tp4720
Rp4721
sg61
g27
(g31
S'SpV\xf7\xe1\x16\xa6\xbf'
p4722
tp4723
Rp4724
sg41
g27
(g31
S'^\x9d\x8f\x11\xe5\xfe\xa2?'
p4725
tp4726
Rp4727
sg69
g27
(g31
S'q\xc0\xa8T(O\xa4?'
p4728
tp4729
Rp4730
sg73
g27
(g31
S'\xd0AS9\xb0\x14\xd2\xbf'
p4731
tp4732
Rp4733
sg81
g27
(g31
S'\x81\xa8\xe9\xdd\xdc\xf5\xb8\xbf'
p4734
tp4735
Rp4736
sI14
Ntp4737
bsS'amp102769'
p4738
g6
(g7
g8
Ntp4739
Rp4740
(S'amp102769'
p4741
g27
(g31
S'\x99\xf7\x0f\xb5\xd3Z\xe1?'
p4742
tp4743
Rp4744
I01
NI0
I1
NNNF0.5
Ntp4745
bssS'params'
p4746
(lp4747
g6
(g7
g8
Ntp4748
Rp4749
(g2303
g6
(g7
g8
Ntp4750
Rp4751
(g504
g27
(g31
S't\x88\x94\xa3\xed8\xc5?'
p4752
tp4753
Rp4754
I01
NI0
I1
Ng27
(g31
S'\xb7\xc2a\xeaU5p?'
p4755
tp4756
Rp4757
(dp4758
g496
g27
(g31
S'\x1aV\xbcQ\xb2\xbd\xe6\xbf'
p4759
tp4760
Rp4761
sF0.5
Ntp4762
bI01
NF-inf
Finf
NNNg4751
Ntp4763
bag6
(g7
g8
Ntp4764
Rp4765
(g493
g6
(g7
g8
Ntp4766
Rp4767
(g496
g27
(g31
S'\x0c\x93\xb5\xe9\x82\xf72@'
p4768
tp4769
Rp4770
I01
NI7
I28
Ng27
(g31
S'\x95\xd9)\x1epi\xe5?'
p4771
tp4772
Rp4773
(dp4774
g504
g27
(g31
S'\x1aV\xbcQ\xb2\xbd\xe6\xbf'
p4775
tp4776
Rp4777
sI14
Ntp4778
bI01
NF-inf
Finf
NNNg4767
Ntp4779
bag6
(g7
g8
Ntp4780
Rp4781
(g3704
g6
(g7
g8
Ntp4782
Rp4783
(g3707
I69149
I00
NF-inf
Finf
NI0
NI69149
Ntp4784
bI00
NF-inf
Finf
NNNg4783
Ntp4785
bag6
(g7
g8
Ntp4786
Rp4787
(g3307
g6
(g7
g8
Ntp4788
Rp4789
(g3310
g27
(g31
S'(\xb6\xe6\x08\xec\xea\xa2?'
p4790
tp4791
Rp4792
I01
NI0
I1
Ng27
(g31
S'\xd8\x178\xc7\xae\xd3@?'
p4793
tp4794
Rp4795
(dp4796
g3318
g27
(g31
S'\x99Ox\x1eJ\xdb\xe6\xbf'
p4797
tp4798
Rp4799
sF0.5
Ntp4800
bI01
NF-inf
Finf
NNNg4789
Ntp4801
bag6
(g7
g8
Ntp4802
Rp4803
(g4590
g6
(g7
g8
Ntp4804
Rp4805
(g3318
g27
(g31
S'\xe1[f\xe3\xeci:@'
p4806
tp4807
Rp4808
I01
NI7
I28
Ng27
(g31
S'\x82,{\x0e\x96j\xe2?'
p4809
tp4810
Rp4811
(dp4812
g3310
g27
(g31
S'\x99Ox\x1eJ\xdb\xe6\xbf'
p4813
tp4814
Rp4815
sI14
Ntp4816
bI01
NF-inf
Finf
NNNg4805
Ntp4817
bag6
(g7
g8
Ntp4818
Rp4819
(g3450
g6
(g7
g8
Ntp4820
Rp4821
(g3453
I69212
I00
NF-inf
Finf
NI0
NI69212
Ntp4822
bI00
NF-inf
Finf
NNNg4821
Ntp4823
bag6
(g7
g8
Ntp4824
Rp4825
(g4293
g6
(g7
g8
Ntp4826
Rp4827
(g65
g27
(g31
S'\xaclZ\xd6\xef\x1d\xb0?'
p4828
tp4829
Rp4830
I01
NI0
I1
Ng27
(g31
S'zkx\xa2\x8d\x89d?'
p4831
tp4832
Rp4833
(dp4834
g49
g27
(g31
S'\xf7\xbd\xb0\x95~\x83b\xbf'
p4835
tp4836
Rp4837
sg53
g27
(g31
S'\x8c\x87\xf35\x07\xbcu?'
p4838
tp4839
Rp4840
sg57
g27
(g31
S'\x80\x10|\xa7\x05~\xcc?'
p4841
tp4842
Rp4843
sg61
g27
(g31
S'\x7f\r`\xd7`\x16}?'
p4844
tp4845
Rp4846
sg41
g27
(g31
S'\x0c\x085\xd8Jgm\xbf'
p4847
tp4848
Rp4849
sg69
g27
(g31
S'\x82x\xb6\x07\xa0\x04d?'
p4850
tp4851
Rp4852
sg73
g27
(g31
S'\xd2l\x7fd&\x07\xe0\xbf'
p4853
tp4854
Rp4855
sg77
g27
(g31
S'\xb8\\\xd6\xac\xa5J\xd3\xbf'
p4856
tp4857
Rp4858
sg81
g27
(g31
S'\xa0\xad\r\xcc\x90\xc0\xad?'
p4859
tp4860
Rp4861
sF0.5
Ntp4862
bI01
NF-inf
Finf
NNNg4827
Ntp4863
bag6
(g7
g8
Ntp4864
Rp4865
(g1070
g6
(g7
g8
Ntp4866
Rp4867
(g73
g27
(g31
S'\x10t"\xea\xd726@'
p4868
tp4869
Rp4870
I01
NI7
I28
Ng27
(g31
S'A\x87\n\x99\x93\x85\xf8?'
p4871
tp4872
Rp4873
(dp4874
g41
g27
(g31
S'h\xfa\xca2\xe7\xc3v\xbf'
p4875
tp4876
Rp4877
sg49
g27
(g31
S'!B\xcb\xd4_\xcat?'
p4878
tp4879
Rp4880
sg53
g27
(g31
S's7\x0b\xf4\xf2P_?'
p4881
tp4882
Rp4883
sg57
g27
(g31
S';\x15\xae\x7f\x97\x0e\xd4\xbf'
p4884
tp4885
Rp4886
sg61
g27
(g31
S'\x82\xfbC+Eyy\xbf'
p4887
tp4888
Rp4889
sg65
g27
(g31
S'\xd0l\x7fd&\x07\xe0\xbf'
p4890
tp4891
Rp4892
sg69
g27
(g31
S'\xf5\x8a\xcb\xa4^\xd8}\xbf'
p4893
tp4894
Rp4895
sg77
g27
(g31
S'\xd2AS9\xb0\x14\xd2\xbf'
p4896
tp4897
Rp4898
sg81
g27
(g31
S'\xd6\xc7\x11\xbc\xa6\xb3\x92?'
p4899
tp4900
Rp4901
sI14
Ntp4902
bI01
NF-inf
Finf
NNNg4867
Ntp4903
bag6
(g7
g8
Ntp4904
Rp4905
(g1771
g6
(g7
g8
Ntp4906
Rp4907
(g1774
I69296
I00
NF-inf
Finf
NI0
NI69296
Ntp4908
bI00
NF-inf
Finf
NNNg4907
Ntp4909
bag6
(g7
g8
Ntp4910
Rp4911
(g3863
g6
(g7
g8
Ntp4912
Rp4913
(g57
g27
(g31
S'\xd8o;\x913y\xb2?'
p4914
tp4915
Rp4916
I01
NI0
I1
Ng27
(g31
S'\x07\x10\r\xa7\tzd?'
p4917
tp4918
Rp4919
(dp4920
g41
g27
(g31
S'\t\x94\xc66\xc9\xe4\x87?'
p4921
tp4922
Rp4923
sg49
g27
(g31
S'(a\xc0\xae\x9e\x0c\xa8?'
p4924
tp4925
Rp4926
sg53
g27
(g31
S'K\xf3\xd4\xf2\xb7\x13\xa8?'
p4927
tp4928
Rp4929
sg61
g27
(g31
S'\xd91eAZ\ty\xbf'
p4930
tp4931
Rp4932
sg65
g27
(g31
S'\x9a\x10|\xa7\x05~\xcc?'
p4933
tp4934
Rp4935
sg69
g27
(g31
S'F3\xf2\xf1\x1d(\xa1?'
p4936
tp4937
Rp4938
sg73
g27
(g31
S'B\x15\xae\x7f\x97\x0e\xd4\xbf'
p4939
tp4940
Rp4941
sg77
g27
(g31
S'\xa6F\xa9!D\xac\xde\xbf'
p4942
tp4943
Rp4944
sg81
g27
(g31
S'\n\x9f4!\xa4@\xad?'
p4945
tp4946
Rp4947
sF0.5
Ntp4948
bI01
NF-inf
Finf
NNNg4913
Ntp4949
bag6
(g7
g8
Ntp4950
Rp4951
(g4700
g6
(g7
g8
Ntp4952
Rp4953
(g77
g27
(g31
S'Xy\xd0R\xc2N6@'
p4954
tp4955
Rp4956
I01
NI7
I28
Ng27
(g31
S'vVr\xee\xe7G\xf5?'
p4957
tp4958
Rp4959
(dp4960
g41
g27
(g31
S'^\x9d\x8f\x11\xe5\xfe\xa2?'
p4961
tp4962
Rp4963
sg49
g27
(g31
S'\x9f\xae\xd9\xcf\xec\xdf\xb5?'
p4964
tp4965
Rp4966
sg53
g27
(g31
S'\x1a\x1a\x9a\x89 /\xb0?'
p4967
tp4968
Rp4969
sg57
g27
(g31
S'\xa6F\xa9!D\xac\xde\xbf'
p4970
tp4971
Rp4972
sg61
g27
(g31
S'SpV\xf7\xe1\x16\xa6\xbf'
p4973
tp4974
Rp4975
sg65
g27
(g31
S'\xc1\\\xd6\xac\xa5J\xd3\xbf'
p4976
tp4977
Rp4978
sg69
g27
(g31
S'q\xc0\xa8T(O\xa4?'
p4979
tp4980
Rp4981
sg73
g27
(g31
S'\xd0AS9\xb0\x14\xd2\xbf'
p4982
tp4983
Rp4984
sg81
g27
(g31
S'\x81\xa8\xe9\xdd\xdc\xf5\xb8\xbf'
p4985
tp4986
Rp4987
sI14
Ntp4988
bI01
NF-inf
Finf
NNNg4953
Ntp4989
bag6
(g7
g8
Ntp4990
Rp4991
(g3994
g6
(g7
g8
Ntp4992
Rp4993
(g3997
I69323
I00
NF-inf
Finf
NI0
NI69323
Ntp4994
bI00
NF-inf
Finf
NNNg4993
Ntp4995
bag6
(g7
g8
Ntp4996
Rp4997
(g1027
g6
(g7
g8
Ntp4998
Rp4999
(g69
g27
(g31
S'`W%/\xf5x\x83?'
p5000
tp5001
Rp5002
I01
NI0
I1
Ng27
(g31
S'\x83\xaaDa\xed3l?'
p5003
tp5004
Rp5005
(dp5006
g41
g27
(g31
S'\x8a\xdc1r\xad\xe6\xac?'
p5007
tp5008
Rp5009
sg49
g27
(g31
S'@\xb9!\xc7\xb6\xd3\xd4?'
p5010
tp5011
Rp5012
sg53
g27
(g31
S'\x1d,\xdbs\xd0n\xd1?'
p5013
tp5014
Rp5015
sg57
g27
(g31
S'\xf12\xf2\xf1\x1d(\xa1?'
p5016
tp5017
Rp5018
sg61
g27
(g31
S'j\x13L\x1d\xed\xf9\x82\xbf'
p5019
tp5020
Rp5021
sg65
g27
(g31
S'\xe7x\xb6\x07\xa0\x04d?'
p5022
tp5023
Rp5024
sg73
g27
(g31
S"'\x8c\xcb\xa4^\xd8}\xbf"
p5025
tp5026
Rp5027
sg77
g27
(g31
S'\xc5\xbf\xa8T(O\xa4?'
p5028
tp5029
Rp5030
sg81
g27
(g31
S'A\x02\x95+w\x99\xd3\xbf'
p5031
tp5032
Rp5033
sF0.5
Ntp5034
bI01
NF-inf
Finf
NNNg4999
Ntp5035
bag6
(g7
g8
Ntp5036
Rp5037
(g1915
g6
(g7
g8
Ntp5038
Rp5039
(g81
g27
(g31
S"$p\xeag\xc4l'@"
p5040
tp5041
Rp5042
I01
NI7
I28
Ng27
(g31
S'\xb9\xbe\x7f\x16\x8c7\x1f@'
p5043
tp5044
Rp5045
(dp5046
g41
g27
(g31
S'\x18\xfd\x18*\xa4>\xc6\xbf'
p5047
tp5048
Rp5049
sg49
g27
(g31
S'^\x9aW\xf0\x11\xca\xe2?'
p5050
tp5051
Rp5052
sg53
g27
(g31
S'gc:\x1d\xb6\x9f\xe0?'
p5053
tp5054
Rp5055
sg57
g27
(g31
S'!\x9f4!\xa4@\xad?'
p5056
tp5057
Rp5058
sg61
g27
(g31
S'\xfbE\x7f\xc33Yp?'
p5059
tp5060
Rp5061
sg65
g27
(g31
S'\xd8\xad\r\xcc\x90\xc0\xad?'
p5062
tp5063
Rp5064
sg69
g27
(g31
S'\x02\x02\x95+w\x99\xd3\xbf'
p5065
tp5066
Rp5067
sg73
g27
(g31
S'$\xc5\x11\xbc\xa6\xb3\x92?'
p5068
tp5069
Rp5070
sg77
g27
(g31
S'~\xa8\xe9\xdd\xdc\xf5\xb8\xbf'
p5071
tp5072
Rp5073
sI14
Ntp5074
bI01
NF-inf
Finf
NNNg5039
Ntp5075
bag6
(g7
g8
Ntp5076
Rp5077
(g4695
g6
(g7
g8
Ntp5078
Rp5079
(g4698
I69379
I00
NF-inf
Finf
NI0
NI69379
Ntp5080
bI00
NF-inf
Finf
NNNg5079
Ntp5081
bag6
(g7
g8
Ntp5082
Rp5083
(g38
g6
(g7
g8
Ntp5084
Rp5085
(g41
g27
(g31
S'\xfe\xeb.\xc4\xb8\xd3\xc2?'
p5086
tp5087
Rp5088
I01
NI0
I1
Ng27
(g31
S'\xa4\x91\xfd\x07mEf?'
p5089
tp5090
Rp5091
(dp5092
g49
g27
(g31
S'P\xbe\xea\xc7\x9f\xb0\x9c?'
p5093
tp5094
Rp5095
sg53
g27
(g31
S'*^\xc3\xda\xe3\x13\xc0\xbf'
p5096
tp5097
Rp5098
sg57
g27
(g31
S'\xb5\x99\xc66\xc9\xe4\x87?'
p5099
tp5100
Rp5101
sg61
g27
(g31
S'\x07zG\xfc\x8cf\xe2\xbf'
p5102
tp5103
Rp5104
sg65
g27
(g31
S'\xf1\x0c5\xd8Jgm\xbf'
p5105
tp5106
Rp5107
sg69
g27
(g31
S'\x18\xdc1r\xad\xe6\xac?'
p5108
tp5109
Rp5110
sg73
g27
(g31
S'2\x12\xcb2\xe7\xc3v\xbf'
p5111
tp5112
Rp5113
sg77
g27
(g31
S'\xd5\x9d\x8f\x11\xe5\xfe\xa2?'
p5114
tp5115
Rp5116
sg81
g27
(g31
S':\xfd\x18*\xa4>\xc6\xbf'
p5117
tp5118
Rp5119
sF0.5
Ntp5120
bI01
NF-inf
Finf
NNNg5085
Ntp5121
bag6
(g7
g8
Ntp5122
Rp5123
(g510
g6
(g7
g8
Ntp5124
Rp5125
(g49
g27
(g31
S'\xe8\x9d;\xff\xff\xff;@'
p5126
tp5127
Rp5128
I01
NI7
I28
Ng27
(g31
S'\xf2\xc8\x0b\x1f\x02\x9b\xd8?'
p5129
tp5130
Rp5131
(dp5132
g41
g27
(g31
S'\x91\xc0\xea\xc7\x9f\xb0\x9c?'
p5133
tp5134
Rp5135
sg53
g27
(g31
S'\xd8h7\xa4\xef%\xe9?'
p5136
tp5137
Rp5138
sg57
g27
(g31
S'\x05a\xc0\xae\x9e\x0c\xa8?'
p5139
tp5140
Rp5141
sg61
g27
(g31
S'\xd7-\x88f?\xab\xba?'
p5142
tp5143
Rp5144
sg65
g27
(g31
S'\xcd\xba\xb0\x95~\x83b\xbf'
p5145
tp5146
Rp5147
sg69
g27
(g31
S'\x83\xb9!\xc7\xb6\xd3\xd4?'
p5148
tp5149
Rp5150
sg73
g27
(g31
S'H2\xcb\xd4_\xcat?'
p5151
tp5152
Rp5153
sg77
g27
(g31
S'f\xae\xd9\xcf\xec\xdf\xb5?'
p5154
tp5155
Rp5156
sg81
g27
(g31
S'9\x9aW\xf0\x11\xca\xe2?'
p5157
tp5158
Rp5159
sI14
Ntp5160
bI01
NF-inf
Finf
NNNg5125
Ntp5161
bag6
(g7
g8
Ntp5162
Rp5163
(g2613
g6
(g7
g8
Ntp5164
Rp5165
(g2616
I69407
I00
NF-inf
Finf
NI0
NI69407
Ntp5166
bI00
NF-inf
Finf
NNNg5165
Ntp5167
bag6
(g7
g8
Ntp5168
Rp5169
(g2742
g6
(g7
g8
Ntp5170
Rp5171
(g53
g27
(g31
S' }\xafH//\xa1?'
p5172
tp5173
Rp5174
I01
NI0
I1
Ng27
(g31
S'\x96x\x83#hJm?'
p5175
tp5176
Rp5177
(dp5178
g41
g27
(g31
S'\xf3]\xc3\xda\xe3\x13\xc0\xbf'
p5179
tp5180
Rp5181
sg49
g27
(g31
S'\xe3h7\xa4\xef%\xe9?'
p5182
tp5183
Rp5184
sg57
g27
(g31
S'(\xf3\xd4\xf2\xb7\x13\xa8?'
p5185
tp5186
Rp5187
sg61
g27
(g31
S'#\x8c\xbeKO\xde\xc5\xbf'
p5188
tp5189
Rp5190
sg65
g27
(g31
S'6\x87\xf35\x07\xbcu?'
p5191
tp5192
Rp5193
sg69
g27
(g31
S'N,\xdbs\xd0n\xd1?'
p5194
tp5195
Rp5196
sg73
g27
(g31
S'm+\x0b\xf4\xf2P_?'
p5197
tp5198
Rp5199
sg77
g27
(g31
S'\x89\x19\x9a\x89 /\xb0?'
p5200
tp5201
Rp5202
sg81
g27
(g31
S'Kc:\x1d\xb6\x9f\xe0?'
p5203
tp5204
Rp5205
sF0.5
Ntp5206
bI01
NF-inf
Finf
NNNg5171
Ntp5207
bag6
(g7
g8
Ntp5208
Rp5209
(g1218
g6
(g7
g8
Ntp5210
Rp5211
(g61
g27
(g31
S'U3\xff\xff\xff\xff;@'
p5212
tp5213
Rp5214
I01
NI7
I28
Ng27
(g31
S'+{+\x80\x1c\x13\xe8?'
p5215
tp5216
Rp5217
(dp5218
g41
g27
(g31
S'\x0bzG\xfc\x8cf\xe2\xbf'
p5219
tp5220
Rp5221
sg49
g27
(g31
S'\xc9-\x88f?\xab\xba?'
p5222
tp5223
Rp5224
sg53
g27
(g31
S' \x8c\xbeKO\xde\xc5\xbf'
p5225
tp5226
Rp5227
sg57
g27
(g31
S'j<eAZ\ty\xbf'
p5228
tp5229
Rp5230
sg65
g27
(g31
S':\x0e`\xd7`\x16}?'
p5231
tp5232
Rp5233
sg69
g27
(g31
S's\x11L\x1d\xed\xf9\x82\xbf'
p5234
tp5235
Rp5236
sg73
g27
(g31
S'\x16\xfbC+Eyy\xbf'
p5237
tp5238
Rp5239
sg77
g27
(g31
S'\xd1oV\xf7\xe1\x16\xa6\xbf'
p5240
tp5241
Rp5242
sg81
g27
(g31
S'{E\x7f\xc33Yp?'
p5243
tp5244
Rp5245
sI14
Ntp5246
bI01
NF-inf
Finf
NNNg5211
Ntp5247
bag6
(g7
g8
Ntp5248
Rp5249
(g808
g6
(g7
g8
Ntp5250
Rp5251
(g811
I69427
I00
NF-inf
Finf
NI0
NI69427
Ntp5252
bI00
NF-inf
Finf
NNNg5251
Ntp5253
bag6
(g7
g8
Ntp5254
Rp5255
(g278
g6
(g7
g8
Ntp5256
Rp5257
(g281
g27
(g31
S'\x9c\x02\xf4\x96\n\x11\xb2?'
p5258
tp5259
Rp5260
I01
NI0
I1
Ng27
(g31
S'Rv\xec\xa2)\xb2S?'
p5261
tp5262
Rp5263
(dp5264
g297
g27
(g31
S'\xc8>$\x91\x89Y\xde\xbf'
p5265
tp5266
Rp5267
sg293
g27
(g31
S'3\xb1w\x8f\x13\xc6\xda\xbf'
p5268
tp5269
Rp5270
sg289
g27
(g31
S'\xd3\xec\xd8\xba\x9e\xf1\xcb?'
p5271
tp5272
Rp5273
sF0.5
Ntp5274
bI01
NF-inf
Finf
NNNg5257
Ntp5275
bag6
(g7
g8
Ntp5276
Rp5277
(g651
g6
(g7
g8
Ntp5278
Rp5279
(g293
g27
(g31
S'\x0b(?\xfd\xff\xff;@'
p5280
tp5281
Rp5282
I01
NI7
I28
Ng27
(g31
S'5\xbb\x12\xd3XZ\xea?'
p5283
tp5284
Rp5285
(dp5286
g297
g27
(g31
S';\x85\rQy\xd2\xc8\xbf'
p5287
tp5288
Rp5289
sg281
g27
(g31
S'7\xb1w\x8f\x13\xc6\xda\xbf'
p5290
tp5291
Rp5292
sg289
g27
(g31
S'\xd3.}m\xe3\xab\xdf\xbf'
p5293
tp5294
Rp5295
sI14
Ntp5296
bI01
NF-inf
Finf
NNNg5279
Ntp5297
bag6
(g7
g8
Ntp5298
Rp5299
(g142
g6
(g7
g8
Ntp5300
Rp5301
(g145
I69491
I00
NF-inf
Finf
NI0
NI69491
Ntp5302
bI00
NF-inf
Finf
NNNg5301
Ntp5303
bag6
(g7
g8
Ntp5304
Rp5305
(g3230
g6
(g7
g8
Ntp5306
Rp5307
(g289
g27
(g31
S'\xd4N\xea\xfa\xd0\xe7\xb6?'
p5308
tp5309
Rp5310
I01
NI0
I1
Ng27
(g31
S'\x88\xb8\xa9\x0c\xa8\xe3S?'
p5311
tp5312
Rp5313
(dp5314
g281
g27
(g31
S'\xe7\xec\xd8\xba\x9e\xf1\xcb?'
p5315
tp5316
Rp5317
sg297
g27
(g31
S'm\xa5,%N\xab\xd8\xbf'
p5318
tp5319
Rp5320
sg293
g27
(g31
S'\xd5.}m\xe3\xab\xdf\xbf'
p5321
tp5322
Rp5323
sF0.5
Ntp5324
bI01
NF-inf
Finf
NNNg5307
Ntp5325
bag6
(g7
g8
Ntp5326
Rp5327
(g3505
g6
(g7
g8
Ntp5328
Rp5329
(g297
g27
(g31
S'>\xd2\xc2\xad\x03\xe0:@'
p5330
tp5331
Rp5332
I01
NI7
I28
Ng27
(g31
S'A\x9ddy$\xdd\xe3?'
p5333
tp5334
Rp5335
(dp5336
g281
g27
(g31
S'\xc0>$\x91\x89Y\xde\xbf'
p5337
tp5338
Rp5339
sg289
g27
(g31
S'`\xa5,%N\xab\xd8\xbf'
p5340
tp5341
Rp5342
sg293
g27
(g31
S'>\x85\rQy\xd2\xc8\xbf'
p5343
tp5344
Rp5345
sI14
Ntp5346
bI01
NF-inf
Finf
NNNg5329
Ntp5347
bag6
(g7
g8
Ntp5348
Rp5349
(g3831
g6
(g7
g8
Ntp5350
Rp5351
(g3834
I69517
I00
NF-inf
Finf
NI0
NI69517
Ntp5352
bI00
NF-inf
Finf
NNNg5351
Ntp5353
bag6
(g7
g8
Ntp5354
Rp5355
(g3371
g6
(g7
g8
Ntp5356
Rp5357
(g2532
g27
(g31
S'p\xbfB\xf1\xf3\x94\xac?'
p5358
tp5359
Rp5360
I01
NI0
I1
Ng27
(g31
S'\xa6A\x08\xd2\xd1\x0bI?'
p5361
tp5362
Rp5363
(dp5364
g2524
g27
(g31
S'\xae\xff\xd2R\x1b\xe3\xe6?'
p5365
tp5366
Rp5367
sF0.5
Ntp5368
bI01
NF-inf
Finf
NNNg5357
Ntp5369
bag6
(g7
g8
Ntp5370
Rp5371
(g2521
g6
(g7
g8
Ntp5372
Rp5373
(g2524
g27
(g31
S'\x81\xf0\xf3\xff\xff\xff;@'
p5374
tp5375
Rp5376
I01
NI7
I28
Ng27
(g31
S'\xe9\xe3\x96\x1c\x93Y\xdc?'
p5377
tp5378
Rp5379
(dp5380
g2532
g27
(g31
S'\xae\xff\xd2R\x1b\xe3\xe6?'
p5381
tp5382
Rp5383
sI14
Ntp5384
bI01
NF-inf
Finf
NNNg5373
Ntp5385
bag6
(g7
g8
Ntp5386
Rp5387
(g894
g6
(g7
g8
Ntp5388
Rp5389
(g897
I69602
I00
NF-inf
Finf
NI0
NI69602
Ntp5390
bI00
NF-inf
Finf
NNNg5389
Ntp5391
bag6
(g7
g8
Ntp5392
Rp5393
(g702
g6
(g7
g8
Ntp5394
Rp5395
(g705
g27
(g31
S'\x80\x05\x7f\xe2 5\x8b?'
p5396
tp5397
Rp5398
I01
NI0
I1
Ng27
(g31
S'JH\x16%c\x8cM?'
p5399
tp5400
Rp5401
(dp5402
g713
g27
(g31
S'\xfa\xc7\x0c-(\xe2\xe6?'
p5403
tp5404
Rp5405
sF0.5
Ntp5406
bI01
NF-inf
Finf
NNNg5395
Ntp5407
bag6
(g7
g8
Ntp5408
Rp5409
(g4514
g6
(g7
g8
Ntp5410
Rp5411
(g713
g27
(g31
S'|\x03$\xff\xff\xff;@'
p5412
tp5413
Rp5414
I01
NI7
I28
Ng27
(g31
S'\x92\xf26\xb6\x86/\xf6?'
p5415
tp5416
Rp5417
(dp5418
g705
g27
(g31
S'\xfa\xc7\x0c-(\xe2\xe6?'
p5419
tp5420
Rp5421
sI14
Ntp5422
bI01
NF-inf
Finf
NNNg5411
Ntp5423
bag6
(g7
g8
Ntp5424
Rp5425
(g689
g6
(g7
g8
Ntp5426
Rp5427
(g692
I69692
I00
NF-inf
Finf
NI0
NI69692
Ntp5428
bI00
NF-inf
Finf
NNNg5427
Ntp5429
bag6
(g7
g8
Ntp5430
Rp5431
(g1874
g6
(g7
g8
Ntp5432
Rp5433
(g1877
g27
(g31
S'\x00\x00\x00\x00\x00\x00\x00\x00'
p5434
tp5435
Rp5436
I01
NI0
I1
Ng27
(g31
S'\x01J\xb3\xaf\x0e|\xa8>'
p5437
tp5438
Rp5439
(dp5440
g1885
g27
(g31
S'\x12DB\x0b\x00\x9b\xe4?'
p5441
tp5442
Rp5443
sF0.5
Ntp5444
bI01
NF-inf
Finf
NNNg5433
Ntp5445
bag6
(g7
g8
Ntp5446
Rp5447
(g3530
g6
(g7
g8
Ntp5448
Rp5449
(g1885
g27
(g31
S'?\xa6\xf1\xe3{\xa5"@'
p5450
tp5451
Rp5452
I01
NI7
I28
Ng27
(g31
S'W\x95$+\xef\xa9\xa5A'
p5453
tp5454
Rp5455
(dp5456
g1877
g27
(g31
S'\x12DB\x0b\x00\x9b\xe4?'
p5457
tp5458
Rp5459
sI14
Ntp5460
bI01
NF-inf
Finf
NNNg5449
Ntp5461
bag6
(g7
g8
Ntp5462
Rp5463
(g3039
g6
(g7
g8
Ntp5464
Rp5465
(g3042
I70884
I00
NF-inf
Finf
NI0
NI70884
Ntp5466
bI00
NF-inf
Finf
NNNg5465
Ntp5467
bag6
(g7
g8
Ntp5468
Rp5469
(g436
g6
(g7
g8
Ntp5470
Rp5471
(g439
g27
(g31
S'@-\xc1]i\x82\x87?'
p5472
tp5473
Rp5474
I01
NI0
I1
Ng27
(g31
S'\\\x0c\x0b\xc4\xcf\x8a9?'
p5475
tp5476
Rp5477
(dp5478
g447
g27
(g31
S'\xc3\xe6#\xae\xaa\xc7\xe6\xbf'
p5479
tp5480
Rp5481
sF0.5
Ntp5482
bI01
NF-inf
Finf
NNNg5471
Ntp5483
bag6
(g7
g8
Ntp5484
Rp5485
(g3760
g6
(g7
g8
Ntp5486
Rp5487
(g447
g27
(g31
S'@\x92P\x98U\xa65@'
p5488
tp5489
Rp5490
I01
NI7
I28
Ng27
(g31
S'QU\x89$\x91\xb4\xf1?'
p5491
tp5492
Rp5493
(dp5494
g439
g27
(g31
S'\xc3\xe6#\xae\xaa\xc7\xe6\xbf'
p5495
tp5496
Rp5497
sI14
Ntp5498
bI01
NF-inf
Finf
NNNg5487
Ntp5499
bag6
(g7
g8
Ntp5500
Rp5501
(g3694
g6
(g7
g8
Ntp5502
Rp5503
(g3697
I71023
I00
NF-inf
Finf
NI0
NI71023
Ntp5504
bI00
NF-inf
Finf
NNNg5503
Ntp5505
bag6
(g7
g8
Ntp5506
Rp5507
(g1895
g6
(g7
g8
Ntp5508
Rp5509
(g1585
g27
(g31
S'\xe4\xdbj\\\x0ce\xcd?'
p5510
tp5511
Rp5512
I01
NI0
I1
Ng27
(g31
S'\x19\x1d\xfdz\xe6\xebx?'
p5513
tp5514
Rp5515
(dp5516
g1577
g27
(g31
S'j\x93<\xe4\xb7\xc0\xc2?'
p5517
tp5518
Rp5519
sg1589
g27
(g31
S'Z\x05i>\x89v\xc7?'
p5520
tp5521
Rp5522
sg1593
g27
(g31
S'\x95\xe5\xaa\x99q\xd4\xe2\xbf'
p5523
tp5524
Rp5525
sF0.5
Ntp5526
bI01
NF-inf
Finf
NNNg5509
Ntp5527
bag6
(g7
g8
Ntp5528
Rp5529
(g2350
g6
(g7
g8
Ntp5530
Rp5531
(g1593
g27
(g31
S'\x1fh\x14\x99>*;@'
p5532
tp5533
Rp5534
I01
NI7
I28
Ng27
(g31
S'~\xf2\xe9\x1e.\x08\xf4?'
p5535
tp5536
Rp5537
(dp5538
g1577
g27
(g31
S'\xff%\x16\xf8\x07\xc1\xd5?'
p5539
tp5540
Rp5541
sg1585
g27
(g31
S'\x98\xe5\xaa\x99q\xd4\xe2\xbf'
p5542
tp5543
Rp5544
sg1589
g27
(g31
S'\xfd\xc5\x13\xa7\x9aS\xc0\xbf'
p5545
tp5546
Rp5547
sI14
Ntp5548
bI01
NF-inf
Finf
NNNg5531
Ntp5549
bag6
(g7
g8
Ntp5550
Rp5551
(g1133
g6
(g7
g8
Ntp5552
Rp5553
(g1136
I71085
I00
NF-inf
Finf
NI0
NI71085
Ntp5554
bI00
NF-inf
Finf
NNNg5553
Ntp5555
bag6
(g7
g8
Ntp5556
Rp5557
(g4345
g6
(g7
g8
Ntp5558
Rp5559
(g1589
g27
(g31
S'\x10\xab\x10\xd0gM\x9e?'
p5560
tp5561
Rp5562
I01
NI0
I1
Ng27
(g31
S'\xd3\xfb\xe2]\x86\x9cx?'
p5563
tp5564
Rp5565
(dp5566
g1577
g27
(g31
S'W\xeb\xb4\xbb*1\xe3?'
p5567
tp5568
Rp5569
sg1585
g27
(g31
S'O\x05i>\x89v\xc7?'
p5570
tp5571
Rp5572
sg1593
g27
(g31
S'\xe4\xc5\x13\xa7\x9aS\xc0\xbf'
p5573
tp5574
Rp5575
sF0.5
Ntp5576
bI01
NF-inf
Finf
NNNg5559
Ntp5577
bag6
(g7
g8
Ntp5578
Rp5579
(g1574
g6
(g7
g8
Ntp5580
Rp5581
(g1577
g27
(g31
S'\x19\x1f7\xfb\xff\xff;@'
p5582
tp5583
Rp5584
I01
NI7
I28
Ng27
(g31
S'\t4zo\x89\x13\x97@'
p5585
tp5586
Rp5587
(dp5588
g1585
g27
(g31
S'Y\x93<\xe4\xb7\xc0\xc2?'
p5589
tp5590
Rp5591
sg1589
g27
(g31
S'W\xeb\xb4\xbb*1\xe3?'
p5592
tp5593
Rp5594
sg1593
g27
(g31
S'\x0b&\x16\xf8\x07\xc1\xd5?'
p5595
tp5596
Rp5597
sI14
Ntp5598
bI01
NF-inf
Finf
NNNg5581
Ntp5599
bag6
(g7
g8
Ntp5600
Rp5601
(g2591
g6
(g7
g8
Ntp5602
Rp5603
(g2594
I71129
I00
NF-inf
Finf
NI0
NI71129
Ntp5604
bI00
NF-inf
Finf
NNNg5603
Ntp5605
bag6
(g7
g8
Ntp5606
Rp5607
(g472
g6
(g7
g8
Ntp5608
Rp5609
(g475
g27
(g31
S'\xb7\x04\xedlO\n\xda?'
p5610
tp5611
Rp5612
I01
NI0
I1
NNNF0.5
Ntp5613
bI01
NF-inf
Finf
NNNg5609
Ntp5614
bag6
(g7
g8
Ntp5615
Rp5616
(g936
g6
(g7
g8
Ntp5617
Rp5618
(g939
g27
(g31
S'!\xdf\xf8\xff\xff\xff;@'
p5619
tp5620
Rp5621
I01
NI7
I28
NNNI14
Ntp5622
bI01
NF-inf
Finf
NNNg5618
Ntp5623
bag6
(g7
g8
Ntp5624
Rp5625
(g3699
g6
(g7
g8
Ntp5626
Rp5627
(g3702
I71187
I00
NF-inf
Finf
NNNI71187
Ntp5628
bI00
NF-inf
Finf
NNNg5627
Ntp5629
bag6
(g7
g8
Ntp5630
Rp5631
(g635
g6
(g7
g8
Ntp5632
Rp5633
(g638
g27
(g31
S"`\x96\xdbW'\x01\x9d?"
p5634
tp5635
Rp5636
I01
NI0
I1
NNNF0.5
Ntp5637
bI01
NF-inf
Finf
NNNg5633
Ntp5638
bag6
(g7
g8
Ntp5639
Rp5640
(g1487
g6
(g7
g8
Ntp5641
Rp5642
(g1490
g27
(g31
S'\xa9\x0bM:\xfb\xff;@'
p5643
tp5644
Rp5645
I01
NI7
I28
NNNI14
Ntp5646
bI01
NF-inf
Finf
NNNg5642
Ntp5647
bag6
(g7
g8
Ntp5648
Rp5649
(g3794
g6
(g7
g8
Ntp5650
Rp5651
(g3797
I71234
I00
NF-inf
Finf
NNNI71234
Ntp5652
bI00
NF-inf
Finf
NNNg5651
Ntp5653
bag6
(g7
g8
Ntp5654
Rp5655
(g3855
g6
(g7
g8
Ntp5656
Rp5657
(g3858
g27
(g31
S'\xb4cE\xed\xb9[\xcd?'
p5658
tp5659
Rp5660
I01
NI0
I1
NNNF0.5
Ntp5661
bI01
NF-inf
Finf
NNNg5657
Ntp5662
bag6
(g7
g8
Ntp5663
Rp5664
(g766
g6
(g7
g8
Ntp5665
Rp5666
(g769
g27
(g31
S'\x00\x00\x00\x00\x00\x00<@'
p5667
tp5668
Rp5669
I01
NI7
I28
NNNI14
Ntp5670
bI01
NF-inf
Finf
NNNg5666
Ntp5671
bag6
(g7
g8
Ntp5672
Rp5673
(g2134
g6
(g7
g8
Ntp5674
Rp5675
(g2137
I71290
I00
NF-inf
Finf
NNNI71290
Ntp5676
bI00
NF-inf
Finf
NNNg5675
Ntp5677
bag6
(g7
g8
Ntp5678
Rp5679
(g4013
g6
(g7
g8
Ntp5680
Rp5681
(g2033
g27
(g31
S'\xb0a\xc4k\xaeo\x9f?'
p5682
tp5683
Rp5684
I01
NI0
I1
Ng27
(g31
S'\x82\xb0\xcd\xeaV\x8b\x80?'
p5685
tp5686
Rp5687
(dp5688
g2041
g27
(g31
S']t\xc2\xddL\x89\xe1\xbf'
p5689
tp5690
Rp5691
sg2025
g27
(g31
S'y\xe5\x84\xf8q\x87\xd3?'
p5692
tp5693
Rp5694
sg2037
g27
(g31
S'\x8b\xb7\x966a~\xe8\xbf'
p5695
tp5696
Rp5697
sF0.5
Ntp5698
bI01
NF-inf
Finf
NNNg5681
Ntp5699
bag6
(g7
g8
Ntp5700
Rp5701
(g2022
g6
(g7
g8
Ntp5702
Rp5703
(g2025
g27
(g31
S'\\Y\xce\xd9\xff\xff;@'
p5704
tp5705
Rp5706
I01
NI7
I28
Ng27
(g31
S'm\xb9\x1c\x15=="@'
p5707
tp5708
Rp5709
(dp5710
g2033
g27
(g31
S'|\xe5\x84\xf8q\x87\xd3?'
p5711
tp5712
Rp5713
sg2041
g27
(g31
S'L\xc1\xa5e\xf6\xd5\xe3\xbf'
p5714
tp5715
Rp5716
sg2037
g27
(g31
S'\x93\x19\xa0g5\x8a\xe1\xbf'
p5717
tp5718
Rp5719
sI14
Ntp5720
bI01
NF-inf
Finf
NNNg5703
Ntp5721
bag6
(g7
g8
Ntp5722
Rp5723
(g3671
g6
(g7
g8
Ntp5724
Rp5725
(g3674
I71349
I00
NF-inf
Finf
NI0
NI71349
Ntp5726
bI00
NF-inf
Finf
NNNg5725
Ntp5727
bag6
(g7
g8
Ntp5728
Rp5729
(g2678
g6
(g7
g8
Ntp5730
Rp5731
(g2037
g27
(g31
S'\x802\xbfx\xcfa\xa2?'
p5732
tp5733
Rp5734
I01
NI0
I1
Ng27
(g31
S'\x9dL\xe8\x8f\x90\x8b\x80?'
p5735
tp5736
Rp5737
(dp5738
g2033
g27
(g31
S'\x8c\xb7\x966a~\xe8\xbf'
p5739
tp5740
Rp5741
sg2025
g27
(g31
S'\x92\x19\xa0g5\x8a\xe1\xbf'
p5742
tp5743
Rp5744
sg2041
g27
(g31
S'\xbbY\xe1\xe5\x86\x8f\xd3?'
p5745
tp5746
Rp5747
sF0.5
Ntp5748
bI01
NF-inf
Finf
NNNg5731
Ntp5749
bag6
(g7
g8
Ntp5750
Rp5751
(g4172
g6
(g7
g8
Ntp5752
Rp5753
(g2041
g27
(g31
S'\x8cE\xa3\xff\xff\xff;@'
p5754
tp5755
Rp5756
I01
NI7
I28
Ng27
(g31
S'\xdb\x1c\x0c\xa7\x1fK\x1f@'
p5757
tp5758
Rp5759
(dp5760
g2033
g27
(g31
S'\\t\xc2\xddL\x89\xe1\xbf'
p5761
tp5762
Rp5763
sg2025
g27
(g31
S'L\xc1\xa5e\xf6\xd5\xe3\xbf'
p5764
tp5765
Rp5766
sg2037
g27
(g31
S'\xbcY\xe1\xe5\x86\x8f\xd3?'
p5767
tp5768
Rp5769
sI14
Ntp5770
bI01
NF-inf
Finf
NNNg5753
Ntp5771
bag6
(g7
g8
Ntp5772
Rp5773
(g3463
g6
(g7
g8
Ntp5774
Rp5775
(g3466
I71359
I00
NF-inf
Finf
NI0
NI71359
Ntp5776
bI00
NF-inf
Finf
NNNg5775
Ntp5777
bag6
(g7
g8
Ntp5778
Rp5779
(g718
g6
(g7
g8
Ntp5780
Rp5781
(g721
g27
(g31
S'p\xaf\xa3\xc4\x13\xe2\x99?'
p5782
tp5783
Rp5784
I01
NI0
I1
Ng27
(g31
S'\xe7\xd1s\xfd\x8c\x9fV?'
p5785
tp5786
Rp5787
(dp5788
g729
g27
(g31
S'\xa0\xa6\xad5\x87\xb7\xe5\xbf'
p5789
tp5790
Rp5791
sF0.5
Ntp5792
bI01
NF-inf
Finf
NNNg5781
Ntp5793
bag6
(g7
g8
Ntp5794
Rp5795
(g3544
g6
(g7
g8
Ntp5796
Rp5797
(g729
g27
(g31
S'\x87\xd2:\xfb\xff\xff;@'
p5798
tp5799
Rp5800
I01
NI7
I28
Ng27
(g31
S'\x8e\xbb\x9a\xb9y\xd3\x02@'
p5801
tp5802
Rp5803
(dp5804
g721
g27
(g31
S'\xa0\xa6\xad5\x87\xb7\xe5\xbf'
p5805
tp5806
Rp5807
sI14
Ntp5808
bI01
NF-inf
Finf
NNNg5797
Ntp5809
bag6
(g7
g8
Ntp5810
Rp5811
(g4090
g6
(g7
g8
Ntp5812
Rp5813
(g4093
I71473
I00
NF-inf
Finf
NI0
NI71473
Ntp5814
bI00
NF-inf
Finf
NNNg5813
Ntp5815
bag6
(g7
g8
Ntp5816
Rp5817
(g4681
g6
(g7
g8
Ntp5818
Rp5819
(g3607
g27
(g31
S' \xf6W0\x12\xf9\x8d?'
p5820
tp5821
Rp5822
I01
NI0
I1
Ng27
(g31
S'\xa9\xc0\xfd\xd2\x95\xa7F?'
p5823
tp5824
Rp5825
(dp5826
g3599
g27
(g31
S'\xc2\xf8\xe8y_\x02\xdf?'
p5827
tp5828
Rp5829
sF0.5
Ntp5830
bI01
NF-inf
Finf
NNNg5819
Ntp5831
bag6
(g7
g8
Ntp5832
Rp5833
(g3596
g6
(g7
g8
Ntp5834
Rp5835
(g3599
g27
(g31
S'`Br\xf4\xff\xff;@'
p5836
tp5837
Rp5838
I01
NI7
I28
Ng27
(g31
S'\x11{\xf4\x01\xda\x93\xb2?'
p5839
tp5840
Rp5841
(dp5842
g3607
g27
(g31
S'\xc2\xf8\xe8y_\x02\xdf?'
p5843
tp5844
Rp5845
sI14
Ntp5846
bI01
NF-inf
Finf
NNNg5835
Ntp5847
bag6
(g7
g8
Ntp5848
Rp5849
(g4133
g6
(g7
g8
Ntp5850
Rp5851
(g4136
I71577
I00
NF-inf
Finf
NI0
NI71577
Ntp5852
bI00
NF-inf
Finf
NNNg5851
Ntp5853
bag6
(g7
g8
Ntp5854
Rp5855
(g1671
g6
(g7
g8
Ntp5856
Rp5857
(g1213
g27
(g31
S'@w!\xc5\x90#\x86?'
p5858
tp5859
Rp5860
I01
NI0
I1
Ng27
(g31
S'\x0eC\xc3\xe2\x1b\x82M?'
p5861
tp5862
Rp5863
(dp5864
g1205
g27
(g31
S'8\xab\x10\xd0C\x82\xdc\xbf'
p5865
tp5866
Rp5867
sF0.5
Ntp5868
bI01
NF-inf
Finf
NNNg5857
Ntp5869
bag6
(g7
g8
Ntp5870
Rp5871
(g1202
g6
(g7
g8
Ntp5872
Rp5873
(g1205
g27
(g31
S'\xa3\x05\xba\xcc\xff\xff;@'
p5874
tp5875
Rp5876
I01
NI7
I28
Ng27
(g31
S'\x06\x14\x05\x81\xcf\\\x0c@'
p5877
tp5878
Rp5879
(dp5880
g1213
g27
(g31
S'8\xab\x10\xd0C\x82\xdc\xbf'
p5881
tp5882
Rp5883
sI14
Ntp5884
bI01
NF-inf
Finf
NNNg5873
Ntp5885
bag6
(g7
g8
Ntp5886
Rp5887
(g3784
g6
(g7
g8
Ntp5888
Rp5889
(g3787
I86393
I00
NF-inf
Finf
NI0
NI86393
Ntp5890
bI00
NF-inf
Finf
NNNg5889
Ntp5891
bag6
(g7
g8
Ntp5892
Rp5893
(g3999
g6
(g7
g8
Ntp5894
Rp5895
(g2673
g27
(g31
S'\xe0\xa5\xae\xd8\xb2\xe3\xc9?'
p5896
tp5897
Rp5898
I01
NI0
I1
Ng27
(g31
S'}\x05\x94\xb5o\xe6y?'
p5899
tp5900
Rp5901
(dp5902
g2665
g27
(g31
S'+oqyk!\xe7\xbf'
p5903
tp5904
Rp5905
sF0.5
Ntp5906
bI01
NF-inf
Finf
NNNg5895
Ntp5907
bag6
(g7
g8
Ntp5908
Rp5909
(g2662
g6
(g7
g8
Ntp5910
Rp5911
(g2665
g27
(g31
S'\x9cr\xd5\xff\xff\xff;@'
p5912
tp5913
Rp5914
I01
NI7
I28
Ng27
(g31
S'f\x1cH\n\xfcN\xf5?'
p5915
tp5916
Rp5917
(dp5918
g2673
g27
(g31
S'+oqyk!\xe7\xbf'
p5919
tp5920
Rp5921
sI14
Ntp5922
bI01
NF-inf
Finf
NNNg5911
Ntp5923
bag6
(g7
g8
Ntp5924
Rp5925
(g2001
g6
(g7
g8
Ntp5926
Rp5927
(g2004
I86460
I00
NF-inf
Finf
NI0
NI86460
Ntp5928
bI00
NF-inf
Finf
NNNg5927
Ntp5929
bag6
(g7
g8
Ntp5930
Rp5931
(g3836
g6
(g7
g8
Ntp5932
Rp5933
(g2116
g27
(g31
S'm\xe0\xec-^\xfb\xd2?'
p5934
tp5935
Rp5936
I01
NI0
I1
Ng27
(g31
S'(SLH\xbe\xde\x82?'
p5937
tp5938
Rp5939
(dp5940
g2108
g27
(g31
S'X\xd0\x9b\xfb+\xed\xe6\xbf'
p5941
tp5942
Rp5943
sF0.5
Ntp5944
bI01
NF-inf
Finf
NNNg5933
Ntp5945
bag6
(g7
g8
Ntp5946
Rp5947
(g2105
g6
(g7
g8
Ntp5948
Rp5949
(g2108
g27
(g31
S'\x84wo\xfa\xff\xff;@'
p5950
tp5951
Rp5952
I01
NI7
I28
Ng27
(g31
S'81\xf0Oh\xdb\xf5?'
p5953
tp5954
Rp5955
(dp5956
g2116
g27
(g31
S'X\xd0\x9b\xfb+\xed\xe6\xbf'
p5957
tp5958
Rp5959
sI14
Ntp5960
bI01
NF-inf
Finf
NNNg5949
Ntp5961
bag6
(g7
g8
Ntp5962
Rp5963
(g3755
g6
(g7
g8
Ntp5964
Rp5965
(g3758
I86624
I00
NF-inf
Finf
NI0
NI86624
Ntp5966
bI00
NF-inf
Finf
NNNg5965
Ntp5967
bag6
(g7
g8
Ntp5968
Rp5969
(g2426
g6
(g7
g8
Ntp5970
Rp5971
(g2429
g27
(g31
S'`\x98\x99\xce3M\x96?'
p5972
tp5973
Rp5974
I01
NI0
I1
Ng27
(g31
S'\x1eq\xb6\xbe\xcd"i?'
p5975
tp5976
Rp5977
(dp5978
g2437
g27
(g31
S'PH\xa9Xg\xe6\xe6\xbf'
p5979
tp5980
Rp5981
sF0.5
Ntp5982
bI01
NF-inf
Finf
NNNg5971
Ntp5983
bag6
(g7
g8
Ntp5984
Rp5985
(g4033
g6
(g7
g8
Ntp5986
Rp5987
(g2437
g27
(g31
S'\x1c\x1fE\xff\xff\xff;@'
p5988
tp5989
Rp5990
I01
NI7
I28
Ng27
(g31
S'\xd8\x85(\xe6\xc1\x05\x19@'
p5991
tp5992
Rp5993
(dp5994
g2429
g27
(g31
S'PH\xa9Xg\xe6\xe6\xbf'
p5995
tp5996
Rp5997
sI14
Ntp5998
bI01
NF-inf
Finf
NNNg5987
Ntp5999
bag6
(g7
g8
Ntp6000
Rp6001
(g4384
g6
(g7
g8
Ntp6002
Rp6003
(g4387
I86690
I00
NF-inf
Finf
NI0
NI86690
Ntp6004
bI00
NF-inf
Finf
NNNg6003
Ntp6005
bag6
(g7
g8
Ntp6006
Rp6007
(g995
g6
(g7
g8
Ntp6008
Rp6009
(g798
g27
(g31
S'\xbc;\\\x86`\x05\xd3?'
p6010
tp6011
Rp6012
I01
NI0
I1
Ng27
(g31
S'TUd\t\x9f\xae\x81?'
p6013
tp6014
Rp6015
(dp6016
g790
g27
(g31
S'\xfb\x95.\xcf\xe6\xe1\xe6?'
p6017
tp6018
Rp6019
sF0.5
Ntp6020
bI01
NF-inf
Finf
NNNg6009
Ntp6021
bag6
(g7
g8
Ntp6022
Rp6023
(g787
g6
(g7
g8
Ntp6024
Rp6025
(g790
g27
(g31
S'\xa8\xfd\xff\xff\xff\xff;@'
p6026
tp6027
Rp6028
I01
NI7
I28
Ng27
(g31
S'&\xabH\r\xc3\x1d\x81?'
p6029
tp6030
Rp6031
(dp6032
g798
g27
(g31
S'\xfb\x95.\xcf\xe6\xe1\xe6?'
p6033
tp6034
Rp6035
sI14
Ntp6036
bI01
NF-inf
Finf
NNNg6025
Ntp6037
bag6
(g7
g8
Ntp6038
Rp6039
(g3034
g6
(g7
g8
Ntp6040
Rp6041
(g3037
I87237
I00
NF-inf
Finf
NI0
NI87237
Ntp6042
bI00
NF-inf
Finf
NNNg6041
Ntp6043
bag6
(g7
g8
Ntp6044
Rp6045
(g3401
g6
(g7
g8
Ntp6046
Rp6047
(g1307
g27
(g31
S'\xc6\x9cHt\xcf\xa6\xc9?'
p6048
tp6049
Rp6050
I01
NI0
I1
Ng27
(g31
S'\xf0A\xcb\xed\xd7\xa7y?'
p6051
tp6052
Rp6053
(dp6054
g1299
g27
(g31
S'\x0c\xeb\x80\x0f\xb3\xc4\xe7\xbf'
p6055
tp6056
Rp6057
sF0.5
Ntp6058
bI01
NF-inf
Finf
NNNg6047
Ntp6059
bag6
(g7
g8
Ntp6060
Rp6061
(g1296
g6
(g7
g8
Ntp6062
Rp6063
(g1299
g27
(g31
S'\x82\x12\xe8\xff\xff\xff;@'
p6064
tp6065
Rp6066
I01
NI7
I28
Ng27
(g31
S'\xb3U9\x9fz\x84\xf7?'
p6067
tp6068
Rp6069
(dp6070
g1307
g27
(g31
S'\x0c\xeb\x80\x0f\xb3\xc4\xe7\xbf'
p6071
tp6072
Rp6073
sI14
Ntp6074
bI01
NF-inf
Finf
NNNg6063
Ntp6075
bag6
(g7
g8
Ntp6076
Rp6077
(g2626
g6
(g7
g8
Ntp6078
Rp6079
(g2629
I87400
I00
NF-inf
Finf
NI0
NI87400
Ntp6080
bI00
NF-inf
Finf
NNNg6079
Ntp6081
bag6
(g7
g8
Ntp6082
Rp6083
(g3741
g6
(g7
g8
Ntp6084
Rp6085
(g761
g27
(g31
S'\xa0S<l\x8f2\x88?'
p6086
tp6087
Rp6088
I01
NI0
I1
Ng27
(g31
S'\x14g\x82\xa0lOB?'
p6089
tp6090
Rp6091
(dp6092
g753
g27
(g31
S'e\xad4}Dr\xe6\xbf'
p6093
tp6094
Rp6095
sF0.5
Ntp6096
bI01
NF-inf
Finf
NNNg6085
Ntp6097
bag6
(g7
g8
Ntp6098
Rp6099
(g750
g6
(g7
g8
Ntp6100
Rp6101
(g753
g27
(g31
S'\x87\x8b5\xfe\xff\xff;@'
p6102
tp6103
Rp6104
I01
NI7
I28
Ng27
(g31
S'?u\xf3\x1b_\xff\xfd?'
p6105
tp6106
Rp6107
(dp6108
g761
g27
(g31
S'e\xad4}Dr\xe6\xbf'
p6109
tp6110
Rp6111
sI14
Ntp6112
bI01
NF-inf
Finf
NNNg6101
Ntp6113
bag6
(g7
g8
Ntp6114
Rp6115
(g3476
g6
(g7
g8
Ntp6116
Rp6117
(g3479
I87629
I00
NF-inf
Finf
NI0
NI87629
Ntp6118
bI00
NF-inf
Finf
NNNg6117
Ntp6119
bag6
(g7
g8
Ntp6120
Rp6121
(g4567
g6
(g7
g8
Ntp6122
Rp6123
(g4570
g27
(g31
S'\xe0\xc8+ Y\x88\x85?'
p6124
tp6125
Rp6126
I01
NI0
I1
NNNF0.5
Ntp6127
bI01
NF-inf
Finf
NNNg6123
Ntp6128
bag6
(g7
g8
Ntp6129
Rp6130
(g4576
g6
(g7
g8
Ntp6131
Rp6132
(g4579
g27
(g31
S'\x00\x00\x00\x00\x00\x00<@'
p6133
tp6134
Rp6135
I01
NI7
I28
NNNI14
Ntp6136
bI01
NF-inf
Finf
NNNg6132
Ntp6137
bag6
(g7
g8
Ntp6138
Rp6139
(g1569
g6
(g7
g8
Ntp6140
Rp6141
(g1572
I87804
I00
NF-inf
Finf
NNNI87804
Ntp6142
bI00
NF-inf
Finf
NNNg6141
Ntp6143
bag6
(g7
g8
Ntp6144
Rp6145
(g1776
g6
(g7
g8
Ntp6146
Rp6147
(g261
g27
(g31
S'\x00\xe4\xb8Y\xa0\x16^?'
p6148
tp6149
Rp6150
I01
NI0
I1
Ng27
(g31
S'\xafT\xd4\xe1\x95\x93`?'
p6151
tp6152
Rp6153
(dp6154
g249
g27
(g31
S'\x9fd\xc9\xd8\x13\x94\xae?'
p6155
tp6156
Rp6157
sg253
g27
(g31
S'8\xb3\xe5\xcbU\x84\xcb?'
p6158
tp6159
Rp6160
sg257
g27
(g31
S'\x18)\xfdY\x8b\xb0\xa2?'
p6161
tp6162
Rp6163
sg265
g27
(g31
S'\xb5\x85\xb6\xe0\x89\x86\x90\xbf'
p6164
tp6165
Rp6166
sg269
g27
(g31
S'\xb4K\x8d\xd0\x98\xad\xe0\xbf'
p6167
tp6168
Rp6169
sg241
g27
(g31
S'f\xa5\x88\x14\x06T\xd0\xbf'
p6170
tp6171
Rp6172
sg273
g27
(g31
S'\xe8\xe7\x89\xb1\x9fv\xba?'
p6173
tp6174
Rp6175
sF0.5
Ntp6176
bI01
NF-inf
Finf
NNNg6147
Ntp6177
bag6
(g7
g8
Ntp6178
Rp6179
(g1809
g6
(g7
g8
Ntp6180
Rp6181
(g269
g27
(g31
S'I\xf5\xe0\xff\x15\xff;@'
p6182
tp6183
Rp6184
I01
NI7
I28
Ng27
(g31
S'k\x84\x13\xe4\xdc\x80K@'
p6185
tp6186
Rp6187
(dp6188
g249
g27
(g31
S'S\xbf_\x96b\xe2^\xbf'
p6189
tp6190
Rp6191
sg253
g27
(g31
S'\xbaKo`u\x89\xd2\xbf'
p6192
tp6193
Rp6194
sg257
g27
(g31
S'\xa5\x1f\xa9x\xd4\n\xa7?'
p6195
tp6196
Rp6197
sg261
g27
(g31
S'\xacK\x8d\xd0\x98\xad\xe0\xbf'
p6198
tp6199
Rp6200
sg265
g27
(g31
S'Nx.5]m\xaa\xbf'
p6201
tp6202
Rp6203
sg241
g27
(g31
S',\x9fR\xa3U\xd1\xd4\xbf'
p6204
tp6205
Rp6206
sg273
g27
(g31
S'D\xe1\xea\xb2\td\xb8?'
p6207
tp6208
Rp6209
sI14
Ntp6210
bI01
NF-inf
Finf
NNNg6181
Ntp6211
bag6
(g7
g8
Ntp6212
Rp6213
(g2516
g6
(g7
g8
Ntp6214
Rp6215
(g2519
I87947
I00
NF-inf
Finf
NI0
NI87947
Ntp6216
bI00
NF-inf
Finf
NNNg6215
Ntp6217
bag6
(g7
g8
Ntp6218
Rp6219
(g2378
g6
(g7
g8
Ntp6220
Rp6221
(g253
g27
(g31
S'\xe2\xd7d\x02hB\xc0?'
p6222
tp6223
Rp6224
I01
NI0
I1
Ng27
(g31
S'\xab\x07\xbf\x82>jb?'
p6225
tp6226
Rp6227
(dp6228
g249
g27
(g31
S'\xf3\x05,\xee\xd3\xe2\xbb?'
p6229
tp6230
Rp6231
sg257
g27
(g31
S'\x0c\xafh\xd8<$\x86?'
p6232
tp6233
Rp6234
sg261
g27
(g31
S'.\xb3\xe5\xcbU\x84\xcb?'
p6235
tp6236
Rp6237
sg265
g27
(g31
S'Kkc\x8bzV\xb1?'
p6238
tp6239
Rp6240
sg269
g27
(g31
S'\xb7Ko`u\x89\xd2\xbf'
p6241
tp6242
Rp6243
sg241
g27
(g31
S'`Z$-\xba\xa2\xda\xbf'
p6244
tp6245
Rp6246
sg273
g27
(g31
S'To\x10\xc0\x18\x8f\xb3\xbf'
p6247
tp6248
Rp6249
sF0.5
Ntp6250
bI01
NF-inf
Finf
NNNg6221
Ntp6251
bag6
(g7
g8
Ntp6252
Rp6253
(g238
g6
(g7
g8
Ntp6254
Rp6255
(g241
g27
(g31
S'\xf0\xcc**\t\x916@'
p6256
tp6257
Rp6258
I01
NI7
I28
Ng27
(g31
S'\xd7\x85\x0c\x9aq\x8f\xe8?'
p6259
tp6260
Rp6261
(dp6262
g249
g27
(g31
S'\xb3\xec\x1b\x0b;\x99\xb1\xbf'
p6263
tp6264
Rp6265
sg253
g27
(g31
S'bZ$-\xba\xa2\xda\xbf'
p6266
tp6267
Rp6268
sg257
g27
(g31
S'4\xb9\xb6\xf7c*\xb3\xbf'
p6269
tp6270
Rp6271
sg261
g27
(g31
S'}\xa5\x88\x14\x06T\xd0\xbf'
p6272
tp6273
Rp6274
sg265
g27
(g31
S'\xfc\xacs!\x9d\xba\xc3?'
p6275
tp6276
Rp6277
sg269
g27
(g31
S'\t\x9fR\xa3U\xd1\xd4\xbf'
p6278
tp6279
Rp6280
sg273
g27
(g31
S'=\x8f\xb2!\x8b\xc3\xd9\xbf'
p6281
tp6282
Rp6283
sI14
Ntp6284
bI01
NF-inf
Finf
NNNg6255
Ntp6285
bag6
(g7
g8
Ntp6286
Rp6287
(g1890
g6
(g7
g8
Ntp6288
Rp6289
(g1893
I87980
I00
NF-inf
Finf
NI0
NI87980
Ntp6290
bI00
NF-inf
Finf
NNNg6289
Ntp6291
bag6
(g7
g8
Ntp6292
Rp6293
(g1537
g6
(g7
g8
Ntp6294
Rp6295
(g249
g27
(g31
S'\x1e<e\x11\\;\xc2?'
p6296
tp6297
Rp6298
I01
NI0
I1
Ng27
(g31
S'\x91\xf8\xf6T\xd5\xa9b?'
p6299
tp6300
Rp6301
(dp6302
g253
g27
(g31
S'\x1d\x06,\xee\xd3\xe2\xbb?'
p6303
tp6304
Rp6305
sg257
g27
(g31
S'+\x97\xf1E]\x8c\xd7?'
p6306
tp6307
Rp6308
sg261
g27
(g31
S'\xe9c\xc9\xd8\x13\x94\xae?'
p6309
tp6310
Rp6311
sg265
g27
(g31
S'\xe1\x7f\xef\xd4\xbd\xbe\xcc?'
p6312
tp6313
Rp6314
sg269
g27
(g31
S'<\xd5_\x96b\xe2^\xbf'
p6315
tp6316
Rp6317
sg241
g27
(g31
S'\xc7\xec\x1b\x0b;\x99\xb1\xbf'
p6318
tp6319
Rp6320
sg273
g27
(g31
S'\xbf\x10\xf2\xcc\r|\xd8\xbf'
p6321
tp6322
Rp6323
sF0.5
Ntp6324
bI01
NF-inf
Finf
NNNg6295
Ntp6325
bag6
(g7
g8
Ntp6326
Rp6327
(g2551
g6
(g7
g8
Ntp6328
Rp6329
(g273
g27
(g31
S'\xb3\xc4\xd8s\xcf:7@'
p6330
tp6331
Rp6332
I01
NI7
I28
Ng27
(g31
S'\r\xc3xp\xf5\xc9\xe6?'
p6333
tp6334
Rp6335
(dp6336
g249
g27
(g31
S'\xc7\x10\xf2\xcc\r|\xd8\xbf'
p6337
tp6338
Rp6339
sg253
g27
(g31
S'2o\x10\xc0\x18\x8f\xb3\xbf'
p6340
tp6341
Rp6342
sg257
g27
(g31
S'|\x8c\xfb>\xa1\xfe\xd1?'
p6343
tp6344
Rp6345
sg261
g27
(g31
S'\x84\xe8\x89\xb1\x9fv\xba?'
p6346
tp6347
Rp6348
sg265
g27
(g31
S'\xd4\x9f\xe6\x0bp\xea\xd6\xbf'
p6349
tp6350
Rp6351
sg269
g27
(g31
S'\x0e\xe0\xea\xb2\td\xb8?'
p6352
tp6353
Rp6354
sg241
g27
(g31
S'\x14\x8f\xb2!\x8b\xc3\xd9\xbf'
p6355
tp6356
Rp6357
sI14
Ntp6358
bI01
NF-inf
Finf
NNNg6329
Ntp6359
bag6
(g7
g8
Ntp6360
Rp6361
(g4429
g6
(g7
g8
Ntp6362
Rp6363
(g4432
I88023
I00
NF-inf
Finf
NI0
NI88023
Ntp6364
bI00
NF-inf
Finf
NNNg6363
Ntp6365
bag6
(g7
g8
Ntp6366
Rp6367
(g1359
g6
(g7
g8
Ntp6368
Rp6369
(g265
g27
(g31
S'p\xfc[M\x82Q\xa3?'
p6370
tp6371
Rp6372
I01
NI0
I1
Ng27
(g31
S'\xf68\x05\xb3_ a?'
p6373
tp6374
Rp6375
(dp6376
g249
g27
(g31
S'\xe1\x7f\xef\xd4\xbd\xbe\xcc?'
p6377
tp6378
Rp6379
sg253
g27
(g31
S'\xb8jc\x8bzV\xb1?'
p6380
tp6381
Rp6382
sg257
g27
(g31
S'\xdd\xc0}\xfct$\xde?'
p6383
tp6384
Rp6385
sg261
g27
(g31
S'#\x8c\xb6\xe0\x89\x86\x90\xbf'
p6386
tp6387
Rp6388
sg269
g27
(g31
S'xs.5]m\xaa\xbf'
p6389
tp6390
Rp6391
sg241
g27
(g31
S'\x89\xacs!\x9d\xba\xc3?'
p6392
tp6393
Rp6394
sg273
g27
(g31
S'\xbf\x9f\xe6\x0bp\xea\xd6\xbf'
p6395
tp6396
Rp6397
sF0.5
Ntp6398
bI01
NF-inf
Finf
NNNg6369
Ntp6399
bag6
(g7
g8
Ntp6400
Rp6401
(g399
g6
(g7
g8
Ntp6402
Rp6403
(g257
g27
(g31
S'xm\xd5\xff\xff\xff;@'
p6404
tp6405
Rp6406
I01
NI7
I28
Ng27
(g31
S'[R\x84\xaf\xda\xd1\x04@'
p6407
tp6408
Rp6409
(dp6410
g249
g27
(g31
S'#\x97\xf1E]\x8c\xd7?'
p6411
tp6412
Rp6413
sg253
g27
(g31
S'\xc2\xadh\xd8<$\x86?'
p6414
tp6415
Rp6416
sg261
g27
(g31
S"\xb7'\xfdY\x8b\xb0\xa2?"
p6417
tp6418
Rp6419
sg265
g27
(g31
S'\xce\xc0}\xfct$\xde?'
p6420
tp6421
Rp6422
sg269
g27
(g31
S'|\x1f\xa9x\xd4\n\xa7?'
p6423
tp6424
Rp6425
sg241
g27
(g31
S'?\xb9\xb6\xf7c*\xb3\xbf'
p6426
tp6427
Rp6428
sg273
g27
(g31
S'\x8f\x8c\xfb>\xa1\xfe\xd1?'
p6429
tp6430
Rp6431
sI14
Ntp6432
bI01
NF-inf
Finf
NNNg6403
Ntp6433
bag6
(g7
g8
Ntp6434
Rp6435
(g3264
g6
(g7
g8
Ntp6436
Rp6437
(g3267
I88053
I00
NF-inf
Finf
NI0
NI88053
Ntp6438
bI00
NF-inf
Finf
NNNg6437
Ntp6439
bag6
(g7
g8
Ntp6440
Rp6441
(g610
g6
(g7
g8
Ntp6442
Rp6443
(g318
g27
(g31
S'\xde\xa2\x1ej\xf1\xcc\xc7?'
p6444
tp6445
Rp6446
I01
NI0
I1
Ng27
(g31
S'D\x96\xdb\xa4f\xf4e?'
p6447
tp6448
Rp6449
(dp6450
g310
g27
(g31
S'\xbd\xf2\x15s\xaf;\xe4\xbf'
p6451
tp6452
Rp6453
sg322
g27
(g31
S'RZV\xe0\x12\x19\xbf?'
p6454
tp6455
Rp6456
sg326
g27
(g31
S'\xc8]\xe3Vw\xf7\xaf\xbf'
p6457
tp6458
Rp6459
sF0.5
Ntp6460
bI01
NF-inf
Finf
NNNg6443
Ntp6461
bag6
(g7
g8
Ntp6462
Rp6463
(g307
g6
(g7
g8
Ntp6464
Rp6465
(g310
g27
(g31
S'\xea\xff\x00\xf4\xa9\x117@'
p6466
tp6467
Rp6468
I01
NI7
I28
Ng27
(g31
S'\x0b\xa7\xa7\xfd/\xba\xe1?'
p6469
tp6470
Rp6471
(dp6472
g318
g27
(g31
S'\xbd\xf2\x15s\xaf;\xe4\xbf'
p6473
tp6474
Rp6475
sg322
g27
(g31
S'.\xd8\xd3\x997\xa9\xac\xbf'
p6476
tp6477
Rp6478
sg326
g27
(g31
S'o4\xc7\xae\xd4y\xd5\xbf'
p6479
tp6480
Rp6481
sI14
Ntp6482
bI01
NF-inf
Finf
NNNg6465
Ntp6483
bag6
(g7
g8
Ntp6484
Rp6485
(g3525
g6
(g7
g8
Ntp6486
Rp6487
(g3528
I88121
I00
NF-inf
Finf
NI0
NI88121
Ntp6488
bI00
NF-inf
Finf
NNNg6487
Ntp6489
bag6
(g7
g8
Ntp6490
Rp6491
(g4625
g6
(g7
g8
Ntp6492
Rp6493
(g322
g27
(g31
S'pb\x9b\xa7\x9c\x0b\xc9?'
p6494
tp6495
Rp6496
I01
NI0
I1
Ng27
(g31
S'Rf\x8b\xb6\xbf\x9fe?'
p6497
tp6498
Rp6499
(dp6500
g310
g27
(g31
S'\x94\xd8\xd3\x997\xa9\xac\xbf'
p6501
tp6502
Rp6503
sg318
g27
(g31
S'RZV\xe0\x12\x19\xbf?'
p6504
tp6505
Rp6506
sg326
g27
(g31
S'\xcd\x95 I\xc3S\xe4\xbf'
p6507
tp6508
Rp6509
sF0.5
Ntp6510
bI01
NF-inf
Finf
NNNg6493
Ntp6511
bag6
(g7
g8
Ntp6512
Rp6513
(g4409
g6
(g7
g8
Ntp6514
Rp6515
(g326
g27
(g31
S'\x03&\xf5\xdd\x03\xd37@'
p6516
tp6517
Rp6518
I01
NI7
I28
Ng27
(g31
S's\xebx3\xf8;\xe1?'
p6519
tp6520
Rp6521
(dp6522
g310
g27
(g31
S'i4\xc7\xae\xd4y\xd5\xbf'
p6523
tp6524
Rp6525
sg318
g27
(g31
S'\xd1]\xe3Vw\xf7\xaf\xbf'
p6526
tp6527
Rp6528
sg322
g27
(g31
S'\xcf\x95 I\xc3S\xe4\xbf'
p6529
tp6530
Rp6531
sI14
Ntp6532
bI01
NF-inf
Finf
NNNg6515
Ntp6533
bag6
(g7
g8
Ntp6534
Rp6535
(g3934
g6
(g7
g8
Ntp6536
Rp6537
(g3937
I88164
I00
NF-inf
Finf
NI0
NI88164
Ntp6538
bI00
NF-inf
Finf
NNNg6537
Ntp6539
bag6
(g7
g8
Ntp6540
Rp6541
(g1643
g6
(g7
g8
Ntp6542
Rp6543
(g380
g27
(g31
S'\xc0\xd4\xfb`l\xbb\x9a?'
p6544
tp6545
Rp6546
I01
NI0
I1
Ng27
(g31
S'\xcf\xc1B\xf4w\x12c?'
p6547
tp6548
Rp6549
(dp6550
g372
g27
(g31
S'j\xea\xe1\xdb\x82R\xe7\xbf'
p6551
tp6552
Rp6553
sF0.5
Ntp6554
bI01
NF-inf
Finf
NNNg6543
Ntp6555
bag6
(g7
g8
Ntp6556
Rp6557
(g369
g6
(g7
g8
Ntp6558
Rp6559
(g372
g27
(g31
S'\xc2\xbbf\xf8\xff\xff;@'
p6560
tp6561
Rp6562
I01
NI7
I28
Ng27
(g31
S':\x1a\xe7[)\xd0\x0f@'
p6563
tp6564
Rp6565
(dp6566
g380
g27
(g31
S'j\xea\xe1\xdb\x82R\xe7\xbf'
p6567
tp6568
Rp6569
sI14
Ntp6570
bI01
NF-inf
Finf
NNNg6559
Ntp6571
bag6
(g7
g8
Ntp6572
Rp6573
(g4542
g6
(g7
g8
Ntp6574
Rp6575
(g4545
I88232
I00
NF-inf
Finf
NI0
NI88232
Ntp6576
bI00
NF-inf
Finf
NNNg6575
Ntp6577
bag6
(g7
g8
Ntp6578
Rp6579
(g3643
g6
(g7
g8
Ntp6580
Rp6581
(g2186
g27
(g31
S'\xc0\xe7\xe4\xe0=E\x8c?'
p6582
tp6583
Rp6584
I01
NI0
I1
Ng27
(g31
S'\xf5\xb2\x96\x15\xb71J?'
p6585
tp6586
Rp6587
(dp6588
g2190
g27
(g31
S'\x8c\xef\xcc"0\x07\xc3?'
p6589
tp6590
Rp6591
sg2178
g27
(g31
S'\x7f\xc3\x85\xb9&\x18\xb6\xbf'
p6592
tp6593
Rp6594
sg2194
g27
(g31
S'\x8b"\xfee\x0f\xb1\xe3\xbf'
p6595
tp6596
Rp6597
sF0.5
Ntp6598
bI01
NF-inf
Finf
NNNg6581
Ntp6599
bag6
(g7
g8
Ntp6600
Rp6601
(g2804
g6
(g7
g8
Ntp6602
Rp6603
(g2194
g27
(g31
S'\xf3\xa5\xbb\xff\xff\xff;@'
p6604
tp6605
Rp6606
I01
NI7
I28
Ng27
(g31
S'\xdf\x03\x08\xc7\xbb\x9f\x06@'
p6607
tp6608
Rp6609
(dp6610
g2190
g27
(g31
S'\x99s\xed\xf5Ud\xb6\xbf'
p6611
tp6612
Rp6613
sg2178
g27
(g31
S'\x98\xda\xef\x9c\xdf\x99\xd6\xbf'
p6614
tp6615
Rp6616
sg2186
g27
(g31
S'\x8a"\xfee\x0f\xb1\xe3\xbf'
p6617
tp6618
Rp6619
sI14
Ntp6620
bI01
NF-inf
Finf
NNNg6603
Ntp6621
bag6
(g7
g8
Ntp6622
Rp6623
(g1721
g6
(g7
g8
Ntp6624
Rp6625
(g1724
I88320
I00
NF-inf
Finf
NI0
NI88320
Ntp6626
bI00
NF-inf
Finf
NNNg6625
Ntp6627
bag6
(g7
g8
Ntp6628
Rp6629
(g2330
g6
(g7
g8
Ntp6630
Rp6631
(g2190
g27
(g31
S'\xc0Lp\xeb\xc7^\x85?'
p6632
tp6633
Rp6634
I01
NI0
I1
Ng27
(g31
S'\x93\xe1\xff\xb5\xaa,J?'
p6635
tp6636
Rp6637
(dp6638
g2194
g27
(g31
S'js\xed\xf5Ud\xb6\xbf'
p6639
tp6640
Rp6641
sg2178
g27
(g31
S'\x89vNUA\xa8\xe3\xbf'
p6642
tp6643
Rp6644
sg2186
g27
(g31
S'\x8d\xef\xcc"0\x07\xc3?'
p6645
tp6646
Rp6647
sF0.5
Ntp6648
bI01
NF-inf
Finf
NNNg6631
Ntp6649
bag6
(g7
g8
Ntp6650
Rp6651
(g2175
g6
(g7
g8
Ntp6652
Rp6653
(g2178
g27
(g31
S'L\xeac\xf2\xff\xff;@'
p6654
tp6655
Rp6656
I01
NI7
I28
Ng27
(g31
S't+4\xed\x12\xd9\r@'
p6657
tp6658
Rp6659
(dp6660
g2194
g27
(g31
S'\x9c\xda\xef\x9c\xdf\x99\xd6\xbf'
p6661
tp6662
Rp6663
sg2190
g27
(g31
S'\x88vNUA\xa8\xe3\xbf'
p6664
tp6665
Rp6666
sg2186
g27
(g31
S'\x87\xc3\x85\xb9&\x18\xb6\xbf'
p6667
tp6668
Rp6669
sI14
Ntp6670
bI01
NF-inf
Finf
NNNg6653
Ntp6671
bag6
(g7
g8
Ntp6672
Rp6673
(g2100
g6
(g7
g8
Ntp6674
Rp6675
(g2103
I88368
I00
NF-inf
Finf
NI0
NI88368
Ntp6676
bI00
NF-inf
Finf
NNNg6675
Ntp6677
bag6
(g7
g8
Ntp6678
Rp6679
(g2261
g6
(g7
g8
Ntp6680
Rp6681
(g1149
g27
(g31
S'\x80\x1aU\xb7\x0e`\x90?'
p6682
tp6683
Rp6684
I01
NI0
I1
Ng27
(g31
S"'D\xbf\xf9\x188J?"
p6685
tp6686
Rp6687
(dp6688
g1141
g27
(g31
S'>\x8c\xb0XQ\xe2\xe6?'
p6689
tp6690
Rp6691
sF0.5
Ntp6692
bI01
NF-inf
Finf
NNNg6681
Ntp6693
bag6
(g7
g8
Ntp6694
Rp6695
(g1138
g6
(g7
g8
Ntp6696
Rp6697
(g1141
g27
(g31
S"\xcb\xb8'\xfe\xff\xff;@"
p6698
tp6699
Rp6700
I01
NI7
I28
Ng27
(g31
S'\xbaE\x85\xd8\xc9\x17\n@'
p6701
tp6702
Rp6703
(dp6704
g1149
g27
(g31
S'>\x8c\xb0XQ\xe2\xe6?'
p6705
tp6706
Rp6707
sI14
Ntp6708
bI01
NF-inf
Finf
NNNg6697
Ntp6709
bag6
(g7
g8
Ntp6710
Rp6711
(g488
g6
(g7
g8
Ntp6712
Rp6713
(g491
I88475
I00
NF-inf
Finf
NI0
NI88475
Ntp6714
bI00
NF-inf
Finf
NNNg6713
Ntp6715
bag6
(g7
g8
Ntp6716
Rp6717
(g842
g6
(g7
g8
Ntp6718
Rp6719
(g845
g27
(g31
S'\xd2\xad\xf6\xcc\xb6\xbe\xc8?'
p6720
tp6721
Rp6722
I01
NI0
I1
Ng27
(g31
S'|X=\xce\xfe\xc4d?'
p6723
tp6724
Rp6725
(dp6726
g853
g27
(g31
S'>KG\xd4\x17\xd2\xe6\xbf'
p6727
tp6728
Rp6729
sF0.5
Ntp6730
bI01
NF-inf
Finf
NNNg6719
Ntp6731
bag6
(g7
g8
Ntp6732
Rp6733
(g2537
g6
(g7
g8
Ntp6734
Rp6735
(g853
g27
(g31
S'\xfb\x7fp\x81R<8@'
p6736
tp6737
Rp6738
I01
NI7
I28
Ng27
(g31
S'Jp\xb5t)E\xdf?'
p6739
tp6740
Rp6741
(dp6742
g845
g27
(g31
S'>KG\xd4\x17\xd2\xe6\xbf'
p6743
tp6744
Rp6745
sI14
Ntp6746
bI01
NF-inf
Finf
NNNg6735
Ntp6747
bag6
(g7
g8
Ntp6748
Rp6749
(g3921
g6
(g7
g8
Ntp6750
Rp6751
(g3924
I88784
I00
NF-inf
Finf
NI0
NI88784
Ntp6752
bI00
NF-inf
Finf
NNNg6751
Ntp6753
bag6
(g7
g8
Ntp6754
Rp6755
(g4460
g6
(g7
g8
Ntp6756
Rp6757
(g2483
g27
(g31
S'\x04\x04\x1a\xcc\xe8T\xc7?'
p6758
tp6759
Rp6760
I01
NI0
I1
Ng27
(g31
S'K\xea\x87\x14\x94\x84c?'
p6761
tp6762
Rp6763
(dp6764
g2491
g27
(g31
S'\x8c\x9f\x1e\x82\xe3\x06\xcd\xbf'
p6765
tp6766
Rp6767
sg2487
g27
(g31
S'L\xb3\x1c\xed\x02B\xcc?'
p6768
tp6769
Rp6770
sg2475
g27
(g31
S'\xf9/\xc2\x8e\xb3Q\xe1\xbf'
p6771
tp6772
Rp6773
sF0.5
Ntp6774
bI01
NF-inf
Finf
NNNg6757
Ntp6775
bag6
(g7
g8
Ntp6776
Rp6777
(g2472
g6
(g7
g8
Ntp6778
Rp6779
(g2475
g27
(g31
S'\xe5\x95\xf8\xc7\xf8\xb99@'
p6780
tp6781
Rp6782
I01
NI7
I28
Ng27
(g31
S'\xc8\xad\x8fj\xe3,\xe3?'
p6783
tp6784
Rp6785
(dp6786
g2483
g27
(g31
S'\xfb/\xc2\x8e\xb3Q\xe1\xbf'
p6787
tp6788
Rp6789
sg2487
g27
(g31
S'D\xe1\x8f\\\x16\x1e\xd0\xbf'
p6790
tp6791
Rp6792
sg2491
g27
(g31
S']\xe7\xa5E\xbev\xd4\xbf'
p6793
tp6794
Rp6795
sI14
Ntp6796
bI01
NF-inf
Finf
NNNg6779
Ntp6797
bag6
(g7
g8
Ntp6798
Rp6799
(g1711
g6
(g7
g8
Ntp6800
Rp6801
(g1714
I88893
I00
NF-inf
Finf
NI0
NI88893
Ntp6802
bI00
NF-inf
Finf
NNNg6801
Ntp6803
bag6
(g7
g8
Ntp6804
Rp6805
(g3351
g6
(g7
g8
Ntp6806
Rp6807
(g2487
g27
(g31
S'\x94!\x85\x00\xdd\x8c\xc0?'
p6808
tp6809
Rp6810
I01
NI0
I1
Ng27
(g31
S'\x80J8\xb8$wd?'
p6811
tp6812
Rp6813
(dp6814
g2483
g27
(g31
S'G\xb3\x1c\xed\x02B\xcc?'
p6815
tp6816
Rp6817
sg2491
g27
(g31
S'M\xca\xd8\xaf\xff\xde\xe0\xbf'
p6818
tp6819
Rp6820
sg2475
g27
(g31
S'6\xe1\x8f\\\x16\x1e\xd0\xbf'
p6821
tp6822
Rp6823
sF0.5
Ntp6824
bI01
NF-inf
Finf
NNNg6807
Ntp6825
bag6
(g7
g8
Ntp6826
Rp6827
(g2979
g6
(g7
g8
Ntp6828
Rp6829
(g2491
g27
(g31
S'<\xc9\x1d\x9f\xb6z7@'
p6830
tp6831
Rp6832
I01
NI7
I28
Ng27
(g31
S'\x97\xa9bu)%\xe9?'
p6833
tp6834
Rp6835
(dp6836
g2483
g27
(g31
S'\x84\x9f\x1e\x82\xe3\x06\xcd\xbf'
p6837
tp6838
Rp6839
sg2487
g27
(g31
S'J\xca\xd8\xaf\xff\xde\xe0\xbf'
p6840
tp6841
Rp6842
sg2475
g27
(g31
S'd\xe7\xa5E\xbev\xd4\xbf'
p6843
tp6844
Rp6845
sI14
Ntp6846
bI01
NF-inf
Finf
NNNg6829
Ntp6847
bag6
(g7
g8
Ntp6848
Rp6849
(g431
g6
(g7
g8
Ntp6850
Rp6851
(g434
I88926
I00
NF-inf
Finf
NI0
NI88926
Ntp6852
bI00
NF-inf
Finf
NNNg6851
Ntp6853
bag6
(g7
g8
Ntp6854
Rp6855
(g2410
g6
(g7
g8
Ntp6856
Rp6857
(g2413
g27
(g31
S'\xd4\x11\xb0l\xea}\xc2?'
p6858
tp6859
Rp6860
I01
NI0
I1
Ng27
(g31
S'\x16\xf9/\xe9\xa5\xa9V?'
p6861
tp6862
Rp6863
(dp6864
g2421
g27
(g31
S'cD\xb8\xc1v\xd6\xe6\xbf'
p6865
tp6866
Rp6867
sF0.5
Ntp6868
bI01
NF-inf
Finf
NNNg6857
Ntp6869
bag6
(g7
g8
Ntp6870
Rp6871
(g3980
g6
(g7
g8
Ntp6872
Rp6873
(g2421
g27
(g31
S'\x8eh"i\x99G9@'
p6874
tp6875
Rp6876
I01
NI7
I28
Ng27
(g31
S'\x83\xffC\x02E\x08\xd8?'
p6877
tp6878
Rp6879
(dp6880
g2413
g27
(g31
S'cD\xb8\xc1v\xd6\xe6\xbf'
p6881
tp6882
Rp6883
sI14
Ntp6884
bI01
NF-inf
Finf
NNNg6873
Ntp6885
bag6
(g7
g8
Ntp6886
Rp6887
(g907
g6
(g7
g8
Ntp6888
Rp6889
(g910
I89034
I00
NF-inf
Finf
NI0
NI89034
Ntp6890
bI00
NF-inf
Finf
NNNg6889
Ntp6891
bag6
(g7
g8
Ntp6892
Rp6893
(g3385
g6
(g7
g8
Ntp6894
Rp6895
(g3388
g27
(g31
S'0o\x0f9(u\x90?'
p6896
tp6897
Rp6898
I01
NI0
I1
Ng27
(g31
S'\xa0Lr\xc7\xc4T\\?'
p6899
tp6900
Rp6901
(dp6902
g3396
g27
(g31
S'f\x0f%\x8c\xd9\xe4\xe6\xbf'
p6903
tp6904
Rp6905
sF0.5
Ntp6906
bI01
NF-inf
Finf
NNNg6895
Ntp6907
bag6
(g7
g8
Ntp6908
Rp6909
(g4212
g6
(g7
g8
Ntp6910
Rp6911
(g3396
g27
(g31
S'\xc5\xb7I\xfe\xff\xff;@'
p6912
tp6913
Rp6914
I01
NI7
I28
Ng27
(g31
S'\xd7y4\xce\xd3&\x13@'
p6915
tp6916
Rp6917
(dp6918
g3388
g27
(g31
S'f\x0f%\x8c\xd9\xe4\xe6\xbf'
p6919
tp6920
Rp6921
sI14
Ntp6922
bI01
NF-inf
Finf
NNNg6911
Ntp6923
bag6
(g7
g8
Ntp6924
Rp6925
(g1706
g6
(g7
g8
Ntp6926
Rp6927
(g1709
I89100
I00
NF-inf
Finf
NI0
NI89100
Ntp6928
bI00
NF-inf
Finf
NNNg6927
Ntp6929
bag6
(g7
g8
Ntp6930
Rp6931
(g2824
g6
(g7
g8
Ntp6932
Rp6933
(g963
g27
(g31
S'\xe0\xa1\x13\xfa\x9a}\x85?'
p6934
tp6935
Rp6936
I01
NI0
I1
Ng27
(g31
S'79\xa2b\x8a#V?'
p6937
tp6938
Rp6939
(dp6940
g955
g27
(g31
S'c\xfa\xdf\x80h;\xe8\xbf'
p6941
tp6942
Rp6943
sg959
g27
(g31
S'%\x8a\xba^\xd1\xf4\xb5?'
p6944
tp6945
Rp6946
sg947
g27
(g31
S'J\xe0\x03\xfd\x9dX\xe1?'
p6947
tp6948
Rp6949
sg967
g27
(g31
S';\r\x8e\x1f]\\\x9a\xbf'
p6950
tp6951
Rp6952
sg971
g27
(g31
S"\xf5\x14'?\xadk\xbd\xbf"
p6953
tp6954
Rp6955
sg975
g27
(g31
S'\xd3\x178m\x1d \xcc?'
p6956
tp6957
Rp6958
sg979
g27
(g31
S'\xa6<X\xb1\xfb\x94\xc5?'
p6959
tp6960
Rp6961
sF0.5
Ntp6962
bI01
NF-inf
Finf
NNNg6933
Ntp6963
bag6
(g7
g8
Ntp6964
Rp6965
(g1603
g6
(g7
g8
Ntp6966
Rp6967
(g959
g27
(g31
S'\xc8\xbb\xff\xff\xff\xff;@'
p6968
tp6969
Rp6970
I01
NI7
I28
Ng27
(g31
S'\xf8f\xedE\xbe\x92,@'
p6971
tp6972
Rp6973
(dp6974
g955
g27
(g31
S'\xab\x9aT\xc9Ig\xd5?'
p6975
tp6976
Rp6977
sg963
g27
(g31
S'1\x8b\xba^\xd1\xf4\xb5?'
p6978
tp6979
Rp6980
sg947
g27
(g31
S'\xb9\x95\x94 1\x9e\xce\xbf'
p6981
tp6982
Rp6983
sg967
g27
(g31
S'\xbc\xae\xf2\x17XR\xa2\xbf'
p6984
tp6985
Rp6986
sg971
g27
(g31
S'"c)\x03_Q\xdf?'
p6987
tp6988
Rp6989
sg975
g27
(g31
S'\xba\xacf\x8b\r\xbc\xc2\xbf'
p6990
tp6991
Rp6992
sg979
g27
(g31
S'.\x0b\x99Vr\x94v?'
p6993
tp6994
Rp6995
sI14
Ntp6996
bI01
NF-inf
Finf
NNNg6967
Ntp6997
bag6
(g7
g8
Ntp6998
Rp6999
(g3779
g6
(g7
g8
Ntp7000
Rp7001
(g3782
I89425
I00
NF-inf
Finf
NI0
NI89425
Ntp7002
bI00
NF-inf
Finf
NNNg7001
Ntp7003
bag6
(g7
g8
Ntp7004
Rp7005
(g2199
g6
(g7
g8
Ntp7006
Rp7007
(g971
g27
(g31
S'\x00\xc0\xc5\x9f]Kz?'
p7008
tp7009
Rp7010
I01
NI0
I1
Ng27
(g31
S'|\xbd\xc0\x11\xd9~T?'
p7011
tp7012
Rp7013
(dp7014
g955
g27
(g31
S'Gi\xf6\xc1\x04\xf3\xba?'
p7015
tp7016
Rp7017
sg959
g27
(g31
S'\xedb)\x03_Q\xdf?'
p7018
tp7019
Rp7020
sg963
g27
(g31
S"\x18\x15'?\xadk\xbd\xbf"
p7021
tp7022
Rp7023
sg947
g27
(g31
S'\xb0\xce\xac\xb0\x05\x0c\xb8\xbf'
p7024
tp7025
Rp7026
sg967
g27
(g31
S'\xe9\xdc\xc4\xad8Q\xbb?'
p7027
tp7028
Rp7029
sg975
g27
(g31
S'\xdc\xfd\xd9\xf6\x01\x0e\xe2\xbf'
p7030
tp7031
Rp7032
sg979
g27
(g31
S'\xcb\xfd\xa9\xa8\xac\x0e\xd6?'
p7033
tp7034
Rp7035
sF0.5
Ntp7036
bI01
NF-inf
Finf
NNNg7007
Ntp7037
bag6
(g7
g8
Ntp7038
Rp7039
(g2947
g6
(g7
g8
Ntp7040
Rp7041
(g955
g27
(g31
S'\x1f \xf1\xc7\xff\xff;@'
p7042
tp7043
Rp7044
I01
NI7
I28
Ng27
(g31
S'Z\x8f=\xa5\xce\x0e!@'
p7045
tp7046
Rp7047
(dp7048
g959
g27
(g31
S'\x01\x9bT\xc9Ig\xd5?'
p7049
tp7050
Rp7051
sg963
g27
(g31
S'V\xfa\xdf\x80h;\xe8\xbf'
p7052
tp7053
Rp7054
sg947
g27
(g31
S'4\xc6\xc9\xef\x99\xe9\xe4\xbf'
p7055
tp7056
Rp7057
sg967
g27
(g31
S'\x18QP9n\x83\xb5?'
p7058
tp7059
Rp7060
sg971
g27
(g31
S'\xa6i\xf6\xc1\x04\xf3\xba?'
p7061
tp7062
Rp7063
sg975
g27
(g31
S'\xf1\xcc\xe1VV\x96\xce\xbf'
p7064
tp7065
Rp7066
sg979
g27
(g31
S'X^\x81\xf0\x88\xe0\xca\xbf'
p7067
tp7068
Rp7069
sI14
Ntp7070
bI01
NF-inf
Finf
NNNg7041
Ntp7071
bag6
(g7
g8
Ntp7072
Rp7073
(g813
g6
(g7
g8
Ntp7074
Rp7075
(g816
I89452
I00
NF-inf
Finf
NI0
NI89452
Ntp7076
bI00
NF-inf
Finf
NNNg7075
Ntp7077
bag6
(g7
g8
Ntp7078
Rp7079
(g944
g6
(g7
g8
Ntp7080
Rp7081
(g947
g27
(g31
S'\x80bMlPHj?'
p7082
tp7083
Rp7084
I01
NI0
I1
Ng27
(g31
S'\xc9r\xb1\xb8O\x85\\?'
p7085
tp7086
Rp7087
(dp7088
g955
g27
(g31
S'2\xc6\xc9\xef\x99\xe9\xe4\xbf'
p7089
tp7090
Rp7091
sg959
g27
(g31
S']\x96\x94 1\x9e\xce\xbf'
p7092
tp7093
Rp7094
sg963
g27
(g31
S'@\xe0\x03\xfd\x9dX\xe1?'
p7095
tp7096
Rp7097
sg967
g27
(g31
S'\xa9\xfc\x8b@\x80\xd7\xd1?'
p7098
tp7099
Rp7100
sg971
g27
(g31
S'\x9e\xce\xac\xb0\x05\x0c\xb8\xbf'
p7101
tp7102
Rp7103
sg975
g27
(g31
S'\xb9\xa67J\xf3\x04\xb0\xbf'
p7104
tp7105
Rp7106
sg979
g27
(g31
S'\x03}\x89\xdf6,\xcf?'
p7107
tp7108
Rp7109
sF0.5
Ntp7110
bI01
NF-inf
Finf
NNNg7081
Ntp7111
bag6
(g7
g8
Ntp7112
Rp7113
(g1154
g6
(g7
g8
Ntp7114
Rp7115
(g975
g27
(g31
S'8\x81{&\x8eD.@'
p7116
tp7117
Rp7118
I01
NI7
I28
Ng27
(g31
S'\x87BQZ7\xf1)@'
p7119
tp7120
Rp7121
(dp7122
g955
g27
(g31
S'\x83\xcc\xe1VV\x96\xce\xbf'
p7123
tp7124
Rp7125
sg959
g27
(g31
S'\xbf\xabf\x8b\r\xbc\xc2\xbf'
p7126
tp7127
Rp7128
sg963
g27
(g31
S'\xe2\x178m\x1d \xcc?'
p7129
tp7130
Rp7131
sg947
g27
(g31
S'^\xa77J\xf3\x04\xb0\xbf'
p7132
tp7133
Rp7134
sg967
g27
(g31
S'\x11\xe0"3\xbfu\xaf?'
p7135
tp7136
Rp7137
sg971
g27
(g31
S'\xdd\xfd\xd9\xf6\x01\x0e\xe2\xbf'
p7138
tp7139
Rp7140
sg979
g27
(g31
S'i\x0c\xcc\xc5\x81V\xdd\xbf'
p7141
tp7142
Rp7143
sI14
Ntp7144
bI01
NF-inf
Finf
NNNg7115
Ntp7145
bag6
(g7
g8
Ntp7146
Rp7147
(g2999
g6
(g7
g8
Ntp7148
Rp7149
(g3002
I89471
I00
NF-inf
Finf
NI0
NI89471
Ntp7150
bI00
NF-inf
Finf
NNNg7149
Ntp7151
bag6
(g7
g8
Ntp7152
Rp7153
(g3198
g6
(g7
g8
Ntp7154
Rp7155
(g979
g27
(g31
S' \x9c>\xe0\xef\xd9\x84?'
p7156
tp7157
Rp7158
I01
NI0
I1
Ng27
(g31
S'\xbdk\xa0\xe7\x10\x88Q?'
p7159
tp7160
Rp7161
(dp7162
g955
g27
(g31
S'\xf3^\x81\xf0\x88\xe0\xca\xbf'
p7163
tp7164
Rp7165
sg959
g27
(g31
S'\xee\xda\x98Vr\x94v?'
p7166
tp7167
Rp7168
sg963
g27
(g31
S'\xa1<X\xb1\xfb\x94\xc5?'
p7169
tp7170
Rp7171
sg947
g27
(g31
S'\x89}\x89\xdf6,\xcf?'
p7172
tp7173
Rp7174
sg967
g27
(g31
S'\xcc~\x8f"\xa3\x06\xda?'
p7175
tp7176
Rp7177
sg971
g27
(g31
S'\xe7\xfd\xa9\xa8\xac\x0e\xd6?'
p7178
tp7179
Rp7180
sg975
g27
(g31
S'\\\x0c\xcc\xc5\x81V\xdd\xbf'
p7181
tp7182
Rp7183
sF0.5
Ntp7184
bI01
NF-inf
Finf
NNNg7155
Ntp7185
bag6
(g7
g8
Ntp7186
Rp7187
(g3799
g6
(g7
g8
Ntp7188
Rp7189
(g967
g27
(g31
S'\xae\xbf\xe1\xfe\xff\xff;@'
p7190
tp7191
Rp7192
I01
NI7
I28
Ng27
(g31
S'S\xb8\x9dr\xa1t)@'
p7193
tp7194
Rp7195
(dp7196
g955
g27
(g31
S'\x1eQP9n\x83\xb5?'
p7197
tp7198
Rp7199
sg959
g27
(g31
S'0\xae\xf2\x17XR\xa2\xbf'
p7200
tp7201
Rp7202
sg963
g27
(g31
S'|\x0c\x8e\x1f]\\\x9a\xbf'
p7203
tp7204
Rp7205
sg947
g27
(g31
S'\xaa\xfc\x8b@\x80\xd7\xd1?'
p7206
tp7207
Rp7208
sg971
g27
(g31
S'\xf0\xdd\xc4\xad8Q\xbb?'
p7209
tp7210
Rp7211
sg975
g27
(g31
S'\xb4\xdf"3\xbfu\xaf?'
p7212
tp7213
Rp7214
sg979
g27
(g31
S'\xcc~\x8f"\xa3\x06\xda?'
p7215
tp7216
Rp7217
sI14
Ntp7218
bI01
NF-inf
Finf
NNNg7189
Ntp7219
bag6
(g7
g8
Ntp7220
Rp7221
(g3947
g6
(g7
g8
Ntp7222
Rp7223
(g3950
I89491
I00
NF-inf
Finf
NI0
NI89491
Ntp7224
bI00
NF-inf
Finf
NNNg7223
Ntp7225
bag6
(g7
g8
Ntp7226
Rp7227
(g1735
g6
(g7
g8
Ntp7228
Rp7229
(g1738
g27
(g31
S'\x88X\x14p,E\xb1?'
p7230
tp7231
Rp7232
I01
NI0
I1
Ng27
(g31
S'\xee=d\xcd\xca\xacX?'
p7233
tp7234
Rp7235
(dp7236
g1746
g27
(g31
S'\xfcn.\xad\x1c\xd6\xe6\xbf'
p7237
tp7238
Rp7239
sF0.5
Ntp7240
bI01
NF-inf
Finf
NNNg7229
Ntp7241
bag6
(g7
g8
Ntp7242
Rp7243
(g2632
g6
(g7
g8
Ntp7244
Rp7245
(g1746
g27
(g31
S';\x02\x06\xfd\xff\xff;@'
p7246
tp7247
Rp7248
I01
NI7
I28
Ng27
(g31
S'0\xbb8N\xaa\x9b\xef?'
p7249
tp7250
Rp7251
(dp7252
g1738
g27
(g31
S'\xfcn.\xad\x1c\xd6\xe6\xbf'
p7253
tp7254
Rp7255
sI14
Ntp7256
bI01
NF-inf
Finf
NNNg7245
Ntp7257
bag6
(g7
g8
Ntp7258
Rp7259
(g1841
g6
(g7
g8
Ntp7260
Rp7261
(g1844
I93880
I00
NF-inf
Finf
NI0
NI93880
Ntp7262
bI00
NF-inf
Finf
NNNg7261
Ntp7263
bag6
(g7
g8
Ntp7264
Rp7265
(g1854
g6
(g7
g8
Ntp7266
Rp7267
(g1287
g27
(g31
S'\x88\xafO\x83\xe7\x9c\xbe?'
p7268
tp7269
Rp7270
I01
NI0
I1
Ng27
(g31
S'5\x16<P}\xf8r?'
p7271
tp7272
Rp7273
(dp7274
g1283
g27
(g31
S'6t\xb1\xe1\xe9t\xe4\xbf'
p7275
tp7276
Rp7277
sg1291
g27
(g31
S'\xbb\xf6\xe2i^\xf5\xa6\xbf'
p7278
tp7279
Rp7280
sg1275
g27
(g31
S'\x87RF\x8b\x1a\x8a\xbd?'
p7281
tp7282
Rp7283
sF0.5
Ntp7284
bI01
NF-inf
Finf
NNNg7267
Ntp7285
bag6
(g7
g8
Ntp7286
Rp7287
(g4152
g6
(g7
g8
Ntp7288
Rp7289
(g1283
g27
(g31
S'\xb7\x85\xa9\xf8\xff\xff;@'
p7290
tp7291
Rp7292
I01
NI7
I28
Ng27
(g31
S'\x11\xf61[2\x90\xfd?'
p7293
tp7294
Rp7295
(dp7296
g1287
g27
(g31
S'4t\xb1\xe1\xe9t\xe4\xbf'
p7297
tp7298
Rp7299
sg1291
g27
(g31
S'\xae\xb7\xf6"\xe8\xfe\xd5\xbf'
p7300
tp7301
Rp7302
sg1275
g27
(g31
S'\xc2^\xd7\xde\x96\xef\xa6\xbf'
p7303
tp7304
Rp7305
sI14
Ntp7306
bI01
NF-inf
Finf
NNNg7289
Ntp7307
bag6
(g7
g8
Ntp7308
Rp7309
(g3612
g6
(g7
g8
Ntp7310
Rp7311
(g3615
I93943
I00
NF-inf
Finf
NI0
NI93943
Ntp7312
bI00
NF-inf
Finf
NNNg7311
Ntp7313
bag6
(g7
g8
Ntp7314
Rp7315
(g1272
g6
(g7
g8
Ntp7316
Rp7317
(g1275
g27
(g31
S'\x90\x8c\x9b\xbb\xc9b\xbf?'
p7318
tp7319
Rp7320
I01
NI0
I1
Ng27
(g31
S'\\\xc0\x8a\xf6\x91\xf8r?'
p7321
tp7322
Rp7323
(dp7324
g1283
g27
(g31
S'&_\xd7\xde\x96\xef\xa6\xbf'
p7325
tp7326
Rp7327
sg1287
g27
(g31
S'\x8cRF\x8b\x1a\x8a\xbd?'
p7328
tp7329
Rp7330
sg1291
g27
(g31
S'M"w@\'u\xe4\xbf'
p7331
tp7332
Rp7333
sF0.5
Ntp7334
bI01
NF-inf
Finf
NNNg7317
Ntp7335
bag6
(g7
g8
Ntp7336
Rp7337
(g4494
g6
(g7
g8
Ntp7338
Rp7339
(g1291
g27
(g31
S'$\xc0K\xf4\xff\xff;@'
p7340
tp7341
Rp7342
I01
NI7
I28
Ng27
(g31
S'-\xb9z\xfe\x13\xd5\xfc?'
p7343
tp7344
Rp7345
(dp7346
g1283
g27
(g31
S'\xa6\xb7\xf6"\xe8\xfe\xd5\xbf'
p7347
tp7348
Rp7349
sg1287
g27
(g31
S'\xe2\xf6\xe2i^\xf5\xa6\xbf'
p7350
tp7351
Rp7352
sg1275
g27
(g31
S'N"w@\'u\xe4\xbf'
p7353
tp7354
Rp7355
sI14
Ntp7356
bI01
NF-inf
Finf
NNNg7339
Ntp7357
bag6
(g7
g8
Ntp7358
Rp7359
(g3850
g6
(g7
g8
Ntp7360
Rp7361
(g3853
I93996
I00
NF-inf
Finf
NI0
NI93996
Ntp7362
bI00
NF-inf
Finf
NNNg7361
Ntp7363
bag6
(g7
g8
Ntp7364
Rp7365
(g2646
g6
(g7
g8
Ntp7366
Rp7367
(g2649
g27
(g31
S'\xba\x9e\xae\xa8\x83\\\xc2?'
p7368
tp7369
Rp7370
I01
NI0
I1
Ng27
(g31
S'\x83\x16\xfb\xe2\x17\xebv?'
p7371
tp7372
Rp7373
(dp7374
g2657
g27
(g31
S'\xdfj\xc6\x81N\xe2\xe6\xbf'
p7375
tp7376
Rp7377
sF0.5
Ntp7378
bI01
NF-inf
Finf
NNNg7367
Ntp7379
bag6
(g7
g8
Ntp7380
Rp7381
(g4480
g6
(g7
g8
Ntp7382
Rp7383
(g2657
g27
(g31
S'z\x83:\xfa\xff\xff;@'
p7384
tp7385
Rp7386
I01
NI7
I28
Ng27
(g31
S'\x80\xe4\xb7\xb5\xf0\xd4\xfb?'
p7387
tp7388
Rp7389
(dp7390
g2649
g27
(g31
S'\xdfj\xc6\x81N\xe2\xe6\xbf'
p7391
tp7392
Rp7393
sI14
Ntp7394
bI01
NF-inf
Finf
NNNg7383
Ntp7395
bag6
(g7
g8
Ntp7396
Rp7397
(g462
g6
(g7
g8
Ntp7398
Rp7399
(g465
I94053
I00
NF-inf
Finf
NI0
NI94053
Ntp7400
bI00
NF-inf
Finf
NNNg7399
Ntp7401
bag6
(g7
g8
Ntp7402
Rp7403
(g1508
g6
(g7
g8
Ntp7404
Rp7405
(g1511
g27
(g31
S'\xf4\x89\xac+\x04\xbd\xb3?'
p7406
tp7407
Rp7408
I01
NI0
I1
Ng27
(g31
S'm\xc0\xa7\xe1\x84,]?'
p7409
tp7410
Rp7411
(dp7412
g1519
g27
(g31
S'2\xfc\xff\xa0\xea\xa5\xba?'
p7413
tp7414
Rp7415
sg1523
g27
(g31
S'7\xb7"\xda\xf5c\xa0\xbf'
p7416
tp7417
Rp7418
sg1527
g27
(g31
S'\x03\x8a\xed\xe3\xd0\xb6\xe4?'
p7419
tp7420
Rp7421
sF0.5
Ntp7422
bI01
NF-inf
Finf
NNNg7405
Ntp7423
bag6
(g7
g8
Ntp7424
Rp7425
(g3269
g6
(g7
g8
Ntp7426
Rp7427
(g1527
g27
(g31
S'\xa38\xe6\xfe\xff\xff;@'
p7428
tp7429
Rp7430
I01
NI7
I28
Ng27
(g31
S'P(\xe8\x9d\x1aD\x00@'
p7431
tp7432
Rp7433
(dp7434
g1519
g27
(g31
S'\xdb\x0b&?\x99\x83\xa0?'
p7435
tp7436
Rp7437
sg1511
g27
(g31
S'\x03\x8a\xed\xe3\xd0\xb6\xe4?'
p7438
tp7439
Rp7440
sg1523
g27
(g31
S'5\xd7yz\x03\x9c\xd5?'
p7441
tp7442
Rp7443
sI14
Ntp7444
bI01
NF-inf
Finf
NNNg7427
Ntp7445
bag6
(g7
g8
Ntp7446
Rp7447
(g452
g6
(g7
g8
Ntp7448
Rp7449
(g455
I94117
I00
NF-inf
Finf
NI0
NI94117
Ntp7450
bI00
NF-inf
Finf
NNNg7449
Ntp7451
bag6
(g7
g8
Ntp7452
Rp7453
(g3068
g6
(g7
g8
Ntp7454
Rp7455
(g1519
g27
(g31
S' \xb1\x8cO|\xc6\x8b?'
p7456
tp7457
Rp7458
I01
NI0
I1
Ng27
(g31
S'\xfc\x97\x95\xbe%/]?'
p7459
tp7460
Rp7461
(dp7462
g1511
g27
(g31
S'*\xfc\xff\xa0\xea\xa5\xba?'
p7463
tp7464
Rp7465
sg1523
g27
(g31
S'v\xb2\xb4R\xa1\xb5\xe4\xbf'
p7466
tp7467
Rp7468
sg1527
g27
(g31
S'@\x0c&?\x99\x83\xa0?'
p7469
tp7470
Rp7471
sF0.5
Ntp7472
bI01
NF-inf
Finf
NNNg7455
Ntp7473
bag6
(g7
g8
Ntp7474
Rp7475
(g1751
g6
(g7
g8
Ntp7476
Rp7477
(g1523
g27
(g31
S'\xba\x80\xf9\x01\x90\xf9;@'
p7478
tp7479
Rp7480
I01
NI7
I28
Ng27
(g31
S';WU7`\xa7\x18@'
p7481
tp7482
Rp7483
(dp7484
g1519
g27
(g31
S'v\xb2\xb4R\xa1\xb5\xe4\xbf'
p7485
tp7486
Rp7487
sg1511
g27
(g31
S'J\xb7"\xda\xf5c\xa0\xbf'
p7488
tp7489
Rp7490
sg1527
g27
(g31
S'(\xd7yz\x03\x9c\xd5?'
p7491
tp7492
Rp7493
sI14
Ntp7494
bI01
NF-inf
Finf
NNNg7477
Ntp7495
bag6
(g7
g8
Ntp7496
Rp7497
(g3302
g6
(g7
g8
Ntp7498
Rp7499
(g3305
I94172
I00
NF-inf
Finf
NI0
NI94172
Ntp7500
bI00
NF-inf
Finf
NNNg7499
Ntp7501
bag6
(g7
g8
Ntp7502
Rp7503
(g4365
g6
(g7
g8
Ntp7504
Rp7505
(g745
g27
(g31
S'\xa0<s\x9a:\xfe\x94?'
p7506
tp7507
Rp7508
I01
NI0
I1
Ng27
(g31
S'J\x1f\x9d\x93\xc2|G?'
p7509
tp7510
Rp7511
(dp7512
g737
g27
(g31
S'y\x0e\xc6\xa9G\xc9\xe6\xbf'
p7513
tp7514
Rp7515
sF0.5
Ntp7516
bI01
NF-inf
Finf
NNNg7505
Ntp7517
bag6
(g7
g8
Ntp7518
Rp7519
(g734
g6
(g7
g8
Ntp7520
Rp7521
(g737
g27
(g31
S'\x03\xec\xf5\xfe\xff\xff;@'
p7522
tp7523
Rp7524
I01
NI7
I28
Ng27
(g31
S'\xc2\xfe\x1c@\xb8{\xf8?'
p7525
tp7526
Rp7527
(dp7528
g745
g27
(g31
S'y\x0e\xc6\xa9G\xc9\xe6\xbf'
p7529
tp7530
Rp7531
sI14
Ntp7532
bI01
NF-inf
Finf
NNNg7521
Ntp7533
bag6
(g7
g8
Ntp7534
Rp7535
(g1391
g6
(g7
g8
Ntp7536
Rp7537
(g1394
I94264
I00
NF-inf
Finf
NI0
NI94264
Ntp7538
bI00
NF-inf
Finf
NNNg7537
Ntp7539
bag6
(g7
g8
Ntp7540
Rp7541
(g336
g6
(g7
g8
Ntp7542
Rp7543
(g339
g27
(g31
S'\xc0\xdb\x8e\xee\x0e\xb1\x86?'
p7544
tp7545
Rp7546
I01
NI0
I1
Ng27
(g31
S'u\xb6\xeeQ<\xd7D?'
p7547
tp7548
Rp7549
(dp7550
g347
g27
(g31
S'qv9\xc4\xb0\xe1\xe6?'
p7551
tp7552
Rp7553
sF0.5
Ntp7554
bI01
NF-inf
Finf
NNNg7543
Ntp7555
bag6
(g7
g8
Ntp7556
Rp7557
(g4245
g6
(g7
g8
Ntp7558
Rp7559
(g347
g27
(g31
S'.E\xfd\xff\xff\xff;@'
p7560
tp7561
Rp7562
I01
NI7
I28
Ng27
(g31
S'\xc7T\x12\x87\xdf\xa0\xdf?'
p7563
tp7564
Rp7565
(dp7566
g339
g27
(g31
S'qv9\xc4\xb0\xe1\xe6?'
p7567
tp7568
Rp7569
sI14
Ntp7570
bI01
NF-inf
Finf
NNNg7559
Ntp7571
bag6
(g7
g8
Ntp7572
Rp7573
(g2051
g6
(g7
g8
Ntp7574
Rp7575
(g2054
I94354
I00
NF-inf
Finf
NI0
NI94354
Ntp7576
bI00
NF-inf
Finf
NNNg7575
Ntp7577
bag6
(g7
g8
Ntp7578
Rp7579
(g4331
g6
(g7
g8
Ntp7580
Rp7581
(g2867
g27
(g31
S'\xa0\n9#\xbep\x88?'
p7582
tp7583
Rp7584
I01
NI0
I1
Ng27
(g31
S'm\xca\xb2[\x87\xf7/?'
p7585
tp7586
Rp7587
(dp7588
g2859
g27
(g31
S']\xdd\xb5Q\xc1\xdc\xe6\xbf'
p7589
tp7590
Rp7591
sF0.5
Ntp7592
bI01
NF-inf
Finf
NNNg7581
Ntp7593
bag6
(g7
g8
Ntp7594
Rp7595
(g2856
g6
(g7
g8
Ntp7596
Rp7597
(g2859
g27
(g31
S'\x8e\xa0\xf8\xc8\xda\xc0:@'
p7598
tp7599
Rp7600
I01
NI7
I28
Ng27
(g31
S'\x1e\xea<\x05\xc5\x89\xeb?'
p7601
tp7602
Rp7603
(dp7604
g2867
g27
(g31
S']\xdd\xb5Q\xc1\xdc\xe6\xbf'
p7605
tp7606
Rp7607
sI14
Ntp7608
bI01
NF-inf
Finf
NNNg7597
Ntp7609
bag6
(g7
g8
Ntp7610
Rp7611
(g3445
g6
(g7
g8
Ntp7612
Rp7613
(g3448
I95314
I00
NF-inf
Finf
NI0
NI95314
Ntp7614
bI00
NF-inf
Finf
NNNg7613
Ntp7615
bag6
(g7
g8
Ntp7616
Rp7617
(g3088
g6
(g7
g8
Ntp7618
Rp7619
(g117
g27
(g31
S'\xc0\x9e\x96\xd9\xbf\x10\x8c?'
p7620
tp7621
Rp7622
I01
NI0
I1
Ng27
(g31
S'\xe7\x02\xe9\x7f\x85\xffN?'
p7623
tp7624
Rp7625
(dp7626
g101
g27
(g31
S'\x9fP\x1d\xc0\x07\x98g?'
p7627
tp7628
Rp7629
sg105
g27
(g31
S'1\x0e\x07\xd1\x0b\xb2\x84?'
p7630
tp7631
Rp7632
sg121
g27
(g31
S'\xa2\x01\x17\xa3\xc8\x12Y\xbf'
p7633
tp7634
Rp7635
sg97
g27
(g31
S'w\xa0\x98\xbcC\xa8\xe4\xbf'
p7636
tp7637
Rp7638
sg113
g27
(g31
S'\xa4\xb6l\x16jd\xb8?'
p7639
tp7640
Rp7641
sg89
g27
(g31
S'P\x7f\xc5\xe5\xday\x99\xbf'
p7642
tp7643
Rp7644
sg109
g27
(g31
S']\xc3\xca\x02\xde\xd9\x9a?'
p7645
tp7646
Rp7647
sg125
g27
(g31
S'\xec_\x81\xe0r\x1e|?'
p7648
tp7649
Rp7650
sg129
g27
(g31
S'\xa1j\xca\x12\xd4\xdfF?'
p7651
tp7652
Rp7653
sF0.5
Ntp7654
bI01
NF-inf
Finf
NNNg7619
Ntp7655
bag6
(g7
g8
Ntp7656
Rp7657
(g4052
g6
(g7
g8
Ntp7658
Rp7659
(g97
g27
(g31
S'B&fm\x00\xb7;@'
p7660
tp7661
Rp7662
I01
NI7
I28
Ng27
(g31
S'|*\xe3\x9c\xa7\xd8\t@'
p7663
tp7664
Rp7665
(dp7666
g101
g27
(g31
S'\x19`\xe1\x0c\xbd\x82w\xbf'
p7667
tp7668
Rp7669
sg105
g27
(g31
S'\xa7Dy\xba\xbe;P?'
p7670
tp7671
Rp7672
sg121
g27
(g31
S'\xb9W_\x1f3\x95\xba?'
p7673
tp7674
Rp7675
sg117
g27
(g31
S'\x82\xa0\x98\xbcC\xa8\xe4\xbf'
p7676
tp7677
Rp7678
sg113
g27
(g31
S'\x7f"OoY\xf7\xa3\xbf'
p7679
tp7680
Rp7681
sg89
g27
(g31
S'\x05\xa9\x16!w\x80\xd6\xbf'
p7682
tp7683
Rp7684
sg109
g27
(g31
S'K\x98\xa7$a\x10\xa6?'
p7685
tp7686
Rp7687
sg125
g27
(g31
S'\xab\xb5\xb8\x87\x87\x00\x7f?'
p7688
tp7689
Rp7690
sg129
g27
(g31
S'\xf8\xc0h0\xab\x91\xa7\xbf'
p7691
tp7692
Rp7693
sI14
Ntp7694
bI01
NF-inf
Finf
NNNg7659
Ntp7695
bag6
(g7
g8
Ntp7696
Rp7697
(g233
g6
(g7
g8
Ntp7698
Rp7699
(g236
I97872
I00
NF-inf
Finf
NI0
NI97872
Ntp7700
bI00
NF-inf
Finf
NNNg7699
Ntp7701
bag6
(g7
g8
Ntp7702
Rp7703
(g147
g6
(g7
g8
Ntp7704
Rp7705
(g113
g27
(g31
S"@yG\x98\x1a'\x87?"
p7706
tp7707
Rp7708
I01
NI0
I1
Ng27
(g31
S'H\xfcX\xc3\x9f\xdfN?'
p7709
tp7710
Rp7711
(dp7712
g101
g27
(g31
S'U\xb2\x8fa1\xbb\x91?'
p7713
tp7714
Rp7715
sg105
g27
(g31
S'\xed\xf5\xdei\xf3]\x9b?'
p7716
tp7717
Rp7718
sg121
g27
(g31
S'\xec\x86\n\x9c\xa3@\xc0\xbf'
p7719
tp7720
Rp7721
sg117
g27
(g31
S'5\xb6l\x16jd\xb8?'
p7722
tp7723
Rp7724
sg97
g27
(g31
S'\xe2 OoY\xf7\xa3\xbf'
p7725
tp7726
Rp7727
sg89
g27
(g31
S'\xeb\x11\xf7wI\xf5\xe0\xbf'
p7728
tp7729
Rp7730
sg109
g27
(g31
S'\xe6\x10Q\xeaZ\x19\xc4?'
p7731
tp7732
Rp7733
sg125
g27
(g31
S'ph\xbbS\x02+{?'
p7734
tp7735
Rp7736
sg129
g27
(g31
S'\xb6ep0\x05t\xa5?'
p7737
tp7738
Rp7739
sF0.5
Ntp7740
bI01
NF-inf
Finf
NNNg7705
Ntp7741
bag6
(g7
g8
Ntp7742
Rp7743
(g86
g6
(g7
g8
Ntp7744
Rp7745
(g89
g27
(g31
S'\xde\xa8\xe7q\xf6\xff;@'
p7746
tp7747
Rp7748
I01
NI7
I28
Ng27
(g31
S'Y\x0bkb\x9b\x1c\x11@'
p7749
tp7750
Rp7751
(dp7752
g97
g27
(g31
S'\x12\xa9\x16!w\x80\xd6\xbf'
p7753
tp7754
Rp7755
sg101
g27
(g31
S'\xe9\rE\xae\xff\x92\xa4?'
p7756
tp7757
Rp7758
sg105
g27
(g31
S'\xcc,`}}`q\xbf'
p7759
tp7760
Rp7761
sg121
g27
(g31
S'\xb6\x10LH\xf1\x05\xd7\xbf'
p7762
tp7763
Rp7764
sg113
g27
(g31
S'\xe3\x11\xf7wI\xf5\xe0\xbf'
p7765
tp7766
Rp7767
sg117
g27
(g31
S'e|\xc5\xe5\xday\x99\xbf'
p7768
tp7769
Rp7770
sg109
g27
(g31
S'\x14\x1arkI;\xc2\xbf'
p7771
tp7772
Rp7773
sg125
g27
(g31
S'\xec\xf6\xc8\xff\xbb\x8c\x94\xbf'
p7774
tp7775
Rp7776
sg129
g27
(g31
S'>-\x1f<\x8c2\xb9?'
p7777
tp7778
Rp7779
sI14
Ntp7780
bI01
NF-inf
Finf
NNNg7745
Ntp7781
bag6
(g7
g8
Ntp7782
Rp7783
(g4654
g6
(g7
g8
Ntp7784
Rp7785
(g4657
I97928
I00
NF-inf
Finf
NI0
NI97928
Ntp7786
bI00
NF-inf
Finf
NNNg7785
Ntp7787
bag6
(g7
g8
Ntp7788
Rp7789
(g3160
g6
(g7
g8
Ntp7790
Rp7791
(g109
g27
(g31
S'\xe8G\xe1\x16\xa6-\xa6?'
p7792
tp7793
Rp7794
I01
NI0
I1
Ng27
(g31
S'\xde\xc1)Ns\x12P?'
p7795
tp7796
Rp7797
(dp7798
g97
g27
(g31
S'\xd0\x97\xa7$a\x10\xa6?'
p7799
tp7800
Rp7801
sg101
g27
(g31
S'K\xb8\x1a\x8a\xb7g~?'
p7802
tp7803
Rp7804
sg105
g27
(g31
S'b\xa7\x96\xf7M#\xb4?'
p7805
tp7806
Rp7807
sg113
g27
(g31
S'\x07\x11Q\xeaZ\x19\xc4?'
p7808
tp7809
Rp7810
sg117
g27
(g31
S'\x12\xbf\xca\x02\xde\xd9\x9a?'
p7811
tp7812
Rp7813
sg89
g27
(g31
S'7\x1arkI;\xc2\xbf'
p7814
tp7815
Rp7816
sg121
g27
(g31
S'\x8b\x08z\x85\xd7\xf2\xe0\xbf'
p7817
tp7818
Rp7819
sg125
g27
(g31
S'\xf7\xd8\xfe\xee.S\x9d?'
p7820
tp7821
Rp7822
sg129
g27
(g31
S'n\xbd\xa5\xba\xa8\xc3\x97\xbf'
p7823
tp7824
Rp7825
sF0.5
Ntp7826
bI01
NF-inf
Finf
NNNg7791
Ntp7827
bag6
(g7
g8
Ntp7828
Rp7829
(g4095
g6
(g7
g8
Ntp7830
Rp7831
(g121
g27
(g31
S'\x1a\xd7\x01;h\xce9@'
p7832
tp7833
Rp7834
I01
NI7
I28
Ng27
(g31
S'L\x10WI\xef(\xf1?'
p7835
tp7836
Rp7837
(dp7838
g97
g27
(g31
S'\xa0V_\x1f3\x95\xba?'
p7839
tp7840
Rp7841
sg101
g27
(g31
S'E;\xa9}7\x1a\xb7\xbf'
p7842
tp7843
Rp7844
sg105
g27
(g31
S'\xc3s!\xd8\x16\x1a\x95\xbf'
p7845
tp7846
Rp7847
sg113
g27
(g31
S'\x1b\x87\n\x9c\xa3@\xc0\xbf'
p7848
tp7849
Rp7850
sg117
g27
(g31
S'g\xe7\x16\xa3\xc8\x12Y\xbf'
p7851
tp7852
Rp7853
sg89
g27
(g31
S'\x99\x10LH\xf1\x05\xd7\xbf'
p7854
tp7855
Rp7856
sg109
g27
(g31
S'\x93\x08z\x85\xd7\xf2\xe0\xbf'
p7857
tp7858
Rp7859
sg125
g27
(g31
S'\x99B\x80r\xf5E\xab?'
p7860
tp7861
Rp7862
sg129
g27
(g31
S"\x8e0t\xb4\x83'\xd6\xbf"
p7863
tp7864
Rp7865
sI14
Ntp7866
bI01
NF-inf
Finf
NNNg7831
Ntp7867
bag6
(g7
g8
Ntp7868
Rp7869
(g2462
g6
(g7
g8
Ntp7870
Rp7871
(g2465
I97971
I00
NF-inf
Finf
NI0
NI97971
Ntp7872
bI00
NF-inf
Finf
NNNg7871
Ntp7873
bag6
(g7
g8
Ntp7874
Rp7875
(g3558
g6
(g7
g8
Ntp7876
Rp7877
(g105
g27
(g31
S'H\x91\xb4\x03\xb2H\xa4?'
p7878
tp7879
Rp7880
I01
NI0
I1
Ng27
(g31
S'\x07\x1f^I\xb8\xf5O?'
p7881
tp7882
Rp7883
(dp7884
g97
g27
(g31
S'\xf7^y\xba\xbe;P?'
p7885
tp7886
Rp7887
sg101
g27
(g31
S'7~0}\xd4\xce\xc6?'
p7888
tp7889
Rp7890
sg121
g27
(g31
S'$s!\xd8\x16\x1a\x95\xbf'
p7891
tp7892
Rp7893
sg113
g27
(g31
S'.\xf4\xdei\xf3]\x9b?'
p7894
tp7895
Rp7896
sg117
g27
(g31
S'\x92\r\x07\xd1\x0b\xb2\x84?'
p7897
tp7898
Rp7899
sg89
g27
(g31
S'EA`}}`q\xbf'
p7900
tp7901
Rp7902
sg109
g27
(g31
S'\x97\xa7\x96\xf7M#\xb4?'
p7903
tp7904
Rp7905
sg125
g27
(g31
S'\xa7\xc0\xd1\xa5\xd3\xa2\xc7?'
p7906
tp7907
Rp7908
sg129
g27
(g31
S'O\xd1A4\x1ep\xe0\xbf'
p7909
tp7910
Rp7911
sF0.5
Ntp7912
bI01
NF-inf
Finf
NNNg7877
Ntp7913
bag6
(g7
g8
Ntp7914
Rp7915
(g1416
g6
(g7
g8
Ntp7916
Rp7917
(g129
g27
(g31
S'\xf0#\xb3N6t:@'
p7918
tp7919
Rp7920
I01
NI7
I28
Ng27
(g31
S'\xe2\xdd\xa6\x84SG\xf3?'
p7921
tp7922
Rp7923
(dp7924
g97
g27
(g31
S'\xe6\xbch0\xab\x91\xa7\xbf'
p7925
tp7926
Rp7927
sg101
g27
(g31
S'\xdd\x8c\xff)(n\xd6?'
p7928
tp7929
Rp7930
sg105
g27
(g31
S'G\xd1A4\x1ep\xe0\xbf'
p7931
tp7932
Rp7933
sg121
g27
(g31
S"k0t\xb4\x83'\xd6\xbf"
p7934
tp7935
Rp7936
sg113
g27
(g31
S'1gp0\x05t\xa5?'
p7937
tp7938
Rp7939
sg117
g27
(g31
S'\xf8\n\xca\x12\xd4\xdfF?'
p7940
tp7941
Rp7942
sg89
g27
(g31
S'*,\x1f<\x8c2\xb9?'
p7943
tp7944
Rp7945
sg109
g27
(g31
S'n\xbd\xa5\xba\xa8\xc3\x97\xbf'
p7946
tp7947
Rp7948
sg125
g27
(g31
S'Z\x04\n\xe8\x8a\xa8\xc3\xbf'
p7949
tp7950
Rp7951
sI14
Ntp7952
bI01
NF-inf
Finf
NNNg7917
Ntp7953
bag6
(g7
g8
Ntp7954
Rp7955
(g302
g6
(g7
g8
Ntp7956
Rp7957
(g305
I98027
I00
NF-inf
Finf
NI0
NI98027
Ntp7958
bI00
NF-inf
Finf
NNNg7957
Ntp7959
bag6
(g7
g8
Ntp7960
Rp7961
(g2896
g6
(g7
g8
Ntp7962
Rp7963
(g125
g27
(g31
S'0\xf2\xb89\xaf\x92\xb2?'
p7964
tp7965
Rp7966
I01
NI0
I1
Ng27
(g31
S'\x9a\x1f\x03z\xaeOO?'
p7967
tp7968
Rp7969
(dp7970
g97
g27
(g31
S'o\xf4\xb8\x87\x87\x00\x7f?'
p7971
tp7972
Rp7973
sg101
g27
(g31
S'R\xa6\x0e\x9f\x82i\xe2?'
p7974
tp7975
Rp7976
sg105
g27
(g31
S'\xbb\xc0\xd1\xa5\xd3\xa2\xc7?'
p7977
tp7978
Rp7979
sg121
g27
(g31
S'\xa3B\x80r\xf5E\xab?'
p7980
tp7981
Rp7982
sg113
g27
(g31
S'\x99^\xbbS\x02+{?'
p7983
tp7984
Rp7985
sg117
g27
(g31
S'1/\x81\xe0r\x1e|?'
p7986
tp7987
Rp7988
sg89
g27
(g31
S'\xc6\x03\xc9\xff\xbb\x8c\x94\xbf'
p7989
tp7990
Rp7991
sg109
g27
(g31
S'8\xd9\xfe\xee.S\x9d?'
p7992
tp7993
Rp7994
sg129
g27
(g31
S'\xc1\x04\n\xe8\x8a\xa8\xc3\xbf'
p7995
tp7996
Rp7997
sF0.5
Ntp7998
bI01
NF-inf
Finf
NNNg7963
Ntp7999
bag6
(g7
g8
Ntp8000
Rp8001
(g572
g6
(g7
g8
Ntp8002
Rp8003
(g101
g27
(g31
S'i\x04\xf6\xff\xff\xff;@'
p8004
tp8005
Rp8006
I01
NI7
I28
Ng27
(g31
S'R\x03)Y\xa9\x8f\xe2?'
p8007
tp8008
Rp8009
(dp8010
g97
g27
(g31
S'\x94*\xe1\x0c\xbd\x82w\xbf'
p8011
tp8012
Rp8013
sg105
g27
(g31
S'_~0}\xd4\xce\xc6?'
p8014
tp8015
Rp8016
sg121
g27
(g31
S'b:\xa9}7\x1a\xb7\xbf'
p8017
tp8018
Rp8019
sg113
g27
(g31
S'W\xb2\x8fa1\xbb\x91?'
p8020
tp8021
Rp8022
sg117
g27
(g31
S'\xbc\xf8\x1c\xc0\x07\x98g?'
p8023
tp8024
Rp8025
sg89
g27
(g31
S'\xa3\x05E\xae\xff\x92\xa4?'
p8026
tp8027
Rp8028
sg109
g27
(g31
S'\xc1\xbd\x1a\x8a\xb7g~?'
p8029
tp8030
Rp8031
sg125
g27
(g31
S'\\\xa6\x0e\x9f\x82i\xe2?'
p8032
tp8033
Rp8034
sg129
g27
(g31
S'\xaf\x8c\xff)(n\xd6?'
p8035
tp8036
Rp8037
sI14
Ntp8038
bI01
NF-inf
Finf
NNNg8003
Ntp8039
bag6
(g7
g8
Ntp8040
Rp8041
(g803
g6
(g7
g8
Ntp8042
Rp8043
(g806
I98068
I00
NF-inf
Finf
NI0
NI98068
Ntp8044
bI00
NF-inf
Finf
NNNg8043
Ntp8045
bag6
(g7
g8
Ntp8046
Rp8047
(g4389
g6
(g7
g8
Ntp8048
Rp8049
(g220
g27
(g31
S'\xac\x8b\x07:\n\xcb\xb1?'
p8050
tp8051
Rp8052
I01
NI0
I1
Ng27
(g31
S'\x1b\x0f\x18\x1c"\x97r?'
p8053
tp8054
Rp8055
(dp8056
g224
g27
(g31
S'\xa8\xe2FE\xf3c\xd0?'
p8057
tp8058
Rp8059
sg228
g27
(g31
S'\xfeF\xf4\x94\xe5\xc2\xe0?'
p8060
tp8061
Rp8062
sg212
g27
(g31
S'\xd8\xe3\xed\xc6^\xdf\xcd?'
p8063
tp8064
Rp8065
sF0.5
Ntp8066
bI01
NF-inf
Finf
NNNg8049
Ntp8067
bag6
(g7
g8
Ntp8068
Rp8069
(g1467
g6
(g7
g8
Ntp8070
Rp8071
(g228
g27
(g31
S't\xda\xbf\xff\xff\xff;@'
p8072
tp8073
Rp8074
I01
NI7
I28
Ng27
(g31
S')\xcd\xee\xb6\x10\x15\xdc?'
p8075
tp8076
Rp8077
(dp8078
g224
g27
(g31
S'Z\xcdo\xbai\xa7\xd4\xbf'
p8079
tp8080
Rp8081
sg220
g27
(g31
S'\xfcF\xf4\x94\xe5\xc2\xe0?'
p8082
tp8083
Rp8084
sg212
g27
(g31
S'\xf4\x9b\x01\x98?j\xd0?'
p8085
tp8086
Rp8087
sI14
Ntp8088
bI01
NF-inf
Finf
NNNg8071
Ntp8089
bag6
(g7
g8
Ntp8090
Rp8091
(g889
g6
(g7
g8
Ntp8092
Rp8093
(g892
I98125
I00
NF-inf
Finf
NI0
NI98125
Ntp8094
bI00
NF-inf
Finf
NNNg8093
Ntp8095
bag6
(g7
g8
Ntp8096
Rp8097
(g209
g6
(g7
g8
Ntp8098
Rp8099
(g212
g27
(g31
S'\x98`\xed\x07e&\xba?'
p8100
tp8101
Rp8102
I01
NI0
I1
Ng27
(g31
S'\xb3\xcfLx4\x96r?'
p8103
tp8104
Rp8105
(dp8106
g220
g27
(g31
S'\xe6\xe3\xed\xc6^\xdf\xcd?'
p8107
tp8108
Rp8109
sg224
g27
(g31
S'\xe2\x06\xefls\xbf\xe0?'
p8110
tp8111
Rp8112
sg228
g27
(g31
S'\xf4\x9b\x01\x98?j\xd0?'
p8113
tp8114
Rp8115
sF0.5
Ntp8116
bI01
NF-inf
Finf
NNNg8099
Ntp8117
bag6
(g7
g8
Ntp8118
Rp8119
(g1113
g6
(g7
g8
Ntp8120
Rp8121
(g224
g27
(g31
S'\xdb/F\xff\xff\xff;@'
p8122
tp8123
Rp8124
I01
NI7
I28
Ng27
(g31
S'Rna\x07\x18\xe5#@'
p8125
tp8126
Rp8127
(dp8128
g220
g27
(g31
S'\xab\xe2FE\xf3c\xd0?'
p8129
tp8130
Rp8131
sg212
g27
(g31
S'\xe4\x06\xefls\xbf\xe0?'
p8132
tp8133
Rp8134
sg228
g27
(g31
S'S\xcdo\xbai\xa7\xd4\xbf'
p8135
tp8136
Rp8137
sI14
Ntp8138
bI01
NF-inf
Finf
NNNg8121
Ntp8139
bag6
(g7
g8
Ntp8140
Rp8141
(g331
g6
(g7
g8
Ntp8142
Rp8143
(g334
I98162
I00
NF-inf
Finf
NI0
NI98162
Ntp8144
bI00
NF-inf
Finf
NNNg8143
Ntp8145
bag6
(g7
g8
Ntp8146
Rp8147
(g1312
g6
(g7
g8
Ntp8148
Rp8149
(g1315
g27
(g31
S'|\x94v\xfb\xe8\xf9\xbd?'
p8150
tp8151
Rp8152
I01
NI0
I1
NNNF0.5
Ntp8153
bI01
NF-inf
Finf
NNNg8149
Ntp8154
bag6
(g7
g8
Ntp8155
Rp8156
(g2370
g6
(g7
g8
Ntp8157
Rp8158
(g2373
g27
(g31
S'\x00\x00\x00\x00\x00\x00<@'
p8159
tp8160
Rp8161
I01
NI7
I28
NNNI14
Ntp8162
bI01
NF-inf
Finf
NNNg8158
Ntp8163
bag6
(g7
g8
Ntp8164
Rp8165
(g2129
g6
(g7
g8
Ntp8166
Rp8167
(g2132
I98220
I00
NF-inf
Finf
NNNI98220
Ntp8168
bI00
NF-inf
Finf
NNNg8167
Ntp8169
bag6
(g7
g8
Ntp8170
Rp8171
(g643
g6
(g7
g8
Ntp8172
Rp8173
(g646
g27
(g31
S'\x08\x96\xbc\xa0NG\xb6?'
p8174
tp8175
Rp8176
I01
NI0
I1
NNNF0.5
Ntp8177
bI01
NF-inf
Finf
NNNg8173
Ntp8178
bag6
(g7
g8
Ntp8179
Rp8180
(g2734
g6
(g7
g8
Ntp8181
Rp8182
(g2737
g27
(g31
S'\x00\x00\x00\x00\x00\x00<@'
p8183
tp8184
Rp8185
I01
NI7
I28
NNNI14
Ntp8186
bI01
NF-inf
Finf
NNNg8182
Ntp8187
bag6
(g7
g8
Ntp8188
Rp8189
(g3009
g6
(g7
g8
Ntp8190
Rp8191
(g3012
I98261
I00
NF-inf
Finf
NNNI98261
Ntp8192
bI00
NF-inf
Finf
NNNg8191
Ntp8193
bag6
(g7
g8
Ntp8194
Rp8195
(g1454
g6
(g7
g8
Ntp8196
Rp8197
(g1457
g27
(g31
S'\xb8L\xce\x84a\xf8\xa5?'
p8198
tp8199
Rp8200
I01
NI0
I1
NNNF0.5
Ntp8201
bI01
NF-inf
Finf
NNNg8197
Ntp8202
bag6
(g7
g8
Ntp8203
Rp8204
(g779
g6
(g7
g8
Ntp8205
Rp8206
(g782
g27
(g31
S'\x1f[\x95\xc6\xfd\xff;@'
p8207
tp8208
Rp8209
I01
NI7
I28
NNNI14
Ntp8210
bI01
NF-inf
Finf
NNNg8206
Ntp8211
bag6
(g7
g8
Ntp8212
Rp8213
(g13
g6
(g7
g8
Ntp8214
Rp8215
(g16
I98291
I00
NF-inf
Finf
NNNI98291
Ntp8216
bI00
NF-inf
Finf
NNNg8215
Ntp8217
bag6
(g7
g8
Ntp8218
Rp8219
(g1846
g6
(g7
g8
Ntp8220
Rp8221
(g1849
g27
(g31
S'\xa0\xf3\xed<\xf9F\xc1?'
p8222
tp8223
Rp8224
I01
NI0
I1
NNNF0.5
Ntp8225
bI01
NF-inf
Finf
NNNg8221
Ntp8226
bag6
(g7
g8
Ntp8227
Rp8228
(g3630
g6
(g7
g8
Ntp8229
Rp8230
(g3633
g27
(g31
S'\xea$\xd3\xfe\xff\xff;@'
p8231
tp8232
Rp8233
I01
NI7
I28
NNNI14
Ntp8234
bI01
NF-inf
Finf
NNNg8230
Ntp8235
bag6
(g7
g8
Ntp8236
Rp8237
(g3297
g6
(g7
g8
Ntp8238
Rp8239
(g3300
I98316
I00
NF-inf
Finf
NNNI98316
Ntp8240
bI00
NF-inf
Finf
NNNg8239
Ntp8241
bag6
(g7
g8
Ntp8242
Rp8243
(g3926
g6
(g7
g8
Ntp8244
Rp8245
(g3929
g27
(g31
S'\x90o\x04s)\xb9\xb8?'
p8246
tp8247
Rp8248
I01
NI0
I1
NNNF0.5
Ntp8249
bI01
NF-inf
Finf
NNNg8245
Ntp8250
bag6
(g7
g8
Ntp8251
Rp8252
(g3709
g6
(g7
g8
Ntp8253
Rp8254
(g3712
g27
(g31
S'\xe0\x0c\xe1\xff\xff\xff;@'
p8255
tp8256
Rp8257
I01
NI7
I28
NNNI14
Ntp8258
bI01
NF-inf
Finf
NNNg8254
Ntp8259
bag6
(g7
g8
Ntp8260
Rp8261
(g2934
g6
(g7
g8
Ntp8262
Rp8263
(g2937
I98380
I00
NF-inf
Finf
NNNI98380
Ntp8264
bI00
NF-inf
Finf
NNNg8263
Ntp8265
bag6
(g7
g8
Ntp8266
Rp8267
(g4673
g6
(g7
g8
Ntp8268
Rp8269
(g4676
g27
(g31
S'|\x9a\xbf\x01R\x1a\xb8?'
p8270
tp8271
Rp8272
I01
NI0
I1
NNNF0.5
Ntp8273
bI01
NF-inf
Finf
NNNg8269
Ntp8274
bag6
(g7
g8
Ntp8275
Rp8276
(g2295
g6
(g7
g8
Ntp8277
Rp8278
(g2298
g27
(g31
S'\x00\x00\x00\x00\x00\x00<@'
p8279
tp8280
Rp8281
I01
NI7
I28
NNNI14
Ntp8282
bI01
NF-inf
Finf
NNNg8278
Ntp8283
bag6
(g7
g8
Ntp8284
Rp8285
(g3722
g6
(g7
g8
Ntp8286
Rp8287
(g3725
I98422
I00
NF-inf
Finf
NNNI98422
Ntp8288
bI00
NF-inf
Finf
NNNg8287
Ntp8289
bag6
(g7
g8
Ntp8290
Rp8291
(g3972
g6
(g7
g8
Ntp8292
Rp8293
(g3975
g27
(g31
S'\x00\xf2\xcd.\xe2\x96\x94?'
p8294
tp8295
Rp8296
I01
NI0
I1
NNNF0.5
Ntp8297
bI01
NF-inf
Finf
NNNg8293
Ntp8298
bag6
(g7
g8
Ntp8299
Rp8300
(g1635
g6
(g7
g8
Ntp8301
Rp8302
(g1638
g27
(g31
S'\x00\x00\x00\x00\x00\x00<@'
p8303
tp8304
Rp8305
I01
NI7
I28
NNNI14
Ntp8306
bI01
NF-inf
Finf
NNNg8302
Ntp8307
bag6
(g7
g8
Ntp8308
Rp8309
(g1495
g6
(g7
g8
Ntp8310
Rp8311
(g1498
I98472
I00
NF-inf
Finf
NNNI98472
Ntp8312
bI00
NF-inf
Finf
NNNg8311
Ntp8313
bag6
(g7
g8
Ntp8314
Rp8315
(g681
g6
(g7
g8
Ntp8316
Rp8317
(g684
g27
(g31
S'\xd0b[\\\x10\xfb\x97?'
p8318
tp8319
Rp8320
I01
NI0
I1
NNNF0.5
Ntp8321
bI01
NF-inf
Finf
NNNg8317
Ntp8322
bag6
(g7
g8
Ntp8323
Rp8324
(g1657
g6
(g7
g8
Ntp8325
Rp8326
(g1660
g27
(g31
S'\xac\xf8\xff\xff\xff\xff;@'
p8327
tp8328
Rp8329
I01
NI7
I28
NNNI14
Ntp8330
bI01
NF-inf
Finf
NNNg8326
Ntp8331
bag6
(g7
g8
Ntp8332
Rp8333
(g2046
g6
(g7
g8
Ntp8334
Rp8335
(g2049
I98489
I00
NF-inf
Finf
NNNI98489
Ntp8336
bI00
NF-inf
Finf
NNNg8335
Ntp8337
bag6
(g7
g8
Ntp8338
Rp8339
(g201
g6
(g7
g8
Ntp8340
Rp8341
(g204
g27
(g31
S'\x10\x04\xaa\x97\xca,\x96?'
p8342
tp8343
Rp8344
I01
NI0
I1
NNNF0.5
Ntp8345
bI01
NF-inf
Finf
NNNg8341
Ntp8346
bag6
(g7
g8
Ntp8347
Rp8348
(g3289
g6
(g7
g8
Ntp8349
Rp8350
(g3292
g27
(g31
S'\xcf\xef\xf0\xff\xff\xff;@'
p8351
tp8352
Rp8353
I01
NI7
I28
NNNI14
Ntp8354
bI01
NF-inf
Finf
NNNg8350
Ntp8355
bag6
(g7
g8
Ntp8356
Rp8357
(g3638
g6
(g7
g8
Ntp8358
Rp8359
(g3641
I98518
I00
NF-inf
Finf
NNNI98518
Ntp8360
bI00
NF-inf
Finf
NNNg8359
Ntp8361
bag6
(g7
g8
Ntp8362
Rp8363
(g1993
g6
(g7
g8
Ntp8364
Rp8365
(g1996
g27
(g31
S'pu&&\xf9[\x92?'
p8366
tp8367
Rp8368
I01
NI0
I1
NNNF0.5
Ntp8369
bI01
NF-inf
Finf
NNNg8365
Ntp8370
bag6
(g7
g8
Ntp8371
Rp8372
(g1019
g6
(g7
g8
Ntp8373
Rp8374
(g1022
g27
(g31
S'\x0fx\xb6o\x99\x878@'
p8375
tp8376
Rp8377
I01
NI7
I28
NNNI14
Ntp8378
bI01
NF-inf
Finf
NNNg8374
Ntp8379
bag6
(g7
g8
Ntp8380
Rp8381
(g863
g6
(g7
g8
Ntp8382
Rp8383
(g866
I98533
I00
NF-inf
Finf
NNNI98533
Ntp8384
bI00
NF-inf
Finf
NNNg8383
Ntp8385
bag6
(g7
g8
Ntp8386
Rp8387
(g4645
g6
(g7
g8
Ntp8388
Rp8389
(g4648
g27
(g31
S'\xe0\x87Q\xf3\xe4\xaf\x81?'
p8390
tp8391
Rp8392
I01
NI0
I1
NNNF0.5
Ntp8393
bI01
NF-inf
Finf
NNNg8389
Ntp8394
bag6
(g7
g8
Ntp8395
Rp8396
(g2939
g6
(g7
g8
Ntp8397
Rp8398
(g2942
g27
(g31
S'\x1eq\x85\xf5\xd2\xa78@'
p8399
tp8400
Rp8401
I01
NI7
I28
NNNI14
Ntp8402
bI01
NF-inf
Finf
NNNg8398
Ntp8403
bag6
(g7
g8
Ntp8404
Rp8405
(g3717
g6
(g7
g8
Ntp8406
Rp8407
(g3720
I98580
I00
NF-inf
Finf
NNNI98580
Ntp8408
bI00
NF-inf
Finf
NNNg8407
Ntp8409
bag6
(g7
g8
Ntp8410
Rp8411
(g2121
g6
(g7
g8
Ntp8412
Rp8413
(g2124
g27
(g31
S'`\xf1\xfc\x08\n\xa2\x83?'
p8414
tp8415
Rp8416
I01
NI0
I1
NNNF0.5
Ntp8417
bI01
NF-inf
Finf
NNNg8413
Ntp8418
bag6
(g7
g8
Ntp8419
Rp8420
(g899
g6
(g7
g8
Ntp8421
Rp8422
(g902
g27
(g31
S'KH\xb60\xaa\xe0;@'
p8423
tp8424
Rp8425
I01
NI7
I28
NNNI14
Ntp8426
bI01
NF-inf
Finf
NNNg8422
Ntp8427
bag6
(g7
g8
Ntp8428
Rp8429
(g1462
g6
(g7
g8
Ntp8430
Rp8431
(g1465
I98621
I00
NF-inf
Finf
NNNI98621
Ntp8432
bI00
NF-inf
Finf
NNNg8431
Ntp8433
bag6
(g7
g8
Ntp8434
Rp8435
(g1186
g6
(g7
g8
Ntp8436
Rp8437
(g1189
g27
(g31
S'\xb0\xb7\x05\xb6\x19R\x96?'
p8438
tp8439
Rp8440
I01
NI0
I1
Ng27
(g31
S'\x83+4\xaf\x94\xd1%?'
p8441
tp8442
Rp8443
(dp8444
g1197
g27
(g31
S'\x82\x95\x9d\xf8\xa3l\xe0\xbf'
p8445
tp8446
Rp8447
sF0.5
Ntp8448
bI01
NF-inf
Finf
NNNg8437
Ntp8449
bag6
(g7
g8
Ntp8450
Rp8451
(g2231
g6
(g7
g8
Ntp8452
Rp8453
(g1197
g27
(g31
S'\xc7\x1a\x92\xff\xff\xff;@'
p8454
tp8455
Rp8456
I01
NI7
I28
Ng27
(g31
S'[\xe0\x10\x92|\xcc\xd0?'
p8457
tp8458
Rp8459
(dp8460
g1189
g27
(g31
S'\x82\x95\x9d\xf8\xa3l\xe0\xbf'
p8461
tp8462
Rp8463
sI14
Ntp8464
bI01
NF-inf
Finf
NNNg8453
Ntp8465
bag6
(g7
g8
Ntp8466
Rp8467
(g671
g6
(g7
g8
Ntp8468
Rp8469
(g674
I98940
I00
NF-inf
Finf
NI0
NI98940
Ntp8470
bI00
NF-inf
Finf
NNNg8469
Ntp8471
bag6
(g7
g8
Ntp8472
Rp8473
(g4192
g6
(g7
g8
Ntp8474
Rp8475
(g2095
g27
(g31
S'`N\x8d\xfa\x8fQ\x94?'
p8476
tp8477
Rp8478
I01
NI0
I1
Ng27
(g31
S'\xcc\x8aJM\xbf\xa6K?'
p8479
tp8480
Rp8481
(dp8482
g2091
g27
(g31
S'N1\x12\xcc\x8b\x90\xdf\xbf'
p8483
tp8484
Rp8485
sg2079
g27
(g31
S'~\xb2L\xfa[\x88\xca?'
p8486
tp8487
Rp8488
sg2087
g27
(g31
S'\x97\xad\xc3"[%\xd9\xbf'
p8489
tp8490
Rp8491
sF0.5
Ntp8492
bI01
NF-inf
Finf
NNNg8475
Ntp8493
bag6
(g7
g8
Ntp8494
Rp8495
(g2275
g6
(g7
g8
Ntp8496
Rp8497
(g2087
g27
(g31
S'J\x83\xbd\xfe\xff\xff;@'
p8498
tp8499
Rp8500
I01
NI7
I28
Ng27
(g31
S'\xbf|\xb9\x8e\x84h\x00@'
p8501
tp8502
Rp8503
(dp8504
g2091
g27
(g31
S'S?l&JA\xc7\xbf'
p8505
tp8506
Rp8507
sg2079
g27
(g31
S'\xe3%\xae\xc2)\x00\xe0\xbf'
p8508
tp8509
Rp8510
sg2095
g27
(g31
S'\x99\xad\xc3"[%\xd9\xbf'
p8511
tp8512
Rp8513
sI14
Ntp8514
bI01
NF-inf
Finf
NNNg8497
Ntp8515
bag6
(g7
g8
Ntp8516
Rp8517
(g630
g6
(g7
g8
Ntp8518
Rp8519
(g633
I99013
I00
NF-inf
Finf
NI0
NI99013
Ntp8520
bI00
NF-inf
Finf
NNNg8519
Ntp8521
bag6
(g7
g8
Ntp8522
Rp8523
(g2076
g6
(g7
g8
Ntp8524
Rp8525
(g2079
g27
(g31
S'T\xb2\xd1\xe2VL\xb0?'
p8526
tp8527
Rp8528
I01
NI0
I1
Ng27
(g31
S'F\xf1\x11\x0c\xba>L?'
p8529
tp8530
Rp8531
(dp8532
g2091
g27
(g31
S':\xa9w7\xda\xe8\xd8\xbf'
p8533
tp8534
Rp8535
sg2087
g27
(g31
S'\xe3%\xae\xc2)\x00\xe0\xbf'
p8536
tp8537
Rp8538
sg2095
g27
(g31
S'v\xb2L\xfa[\x88\xca?'
p8539
tp8540
Rp8541
sF0.5
Ntp8542
bI01
NF-inf
Finf
NNNg8525
Ntp8543
bag6
(g7
g8
Ntp8544
Rp8545
(g4439
g6
(g7
g8
Ntp8546
Rp8547
(g2091
g27
(g31
S'\xab\xac\xf2\xd5\xb5\x01;@'
p8548
tp8549
Rp8550
I01
NI7
I28
Ng27
(g31
S'do\xedmW\xd7\xe3?'
p8551
tp8552
Rp8553
(dp8554
g2087
g27
(g31
S'U?l&JA\xc7\xbf'
p8555
tp8556
Rp8557
sg2095
g27
(g31
S'D1\x12\xcc\x8b\x90\xdf\xbf'
p8558
tp8559
Rp8560
sg2079
g27
(g31
S'7\xa9w7\xda\xe8\xd8\xbf'
p8561
tp8562
Rp8563
sI14
Ntp8564
bI01
NF-inf
Finf
NNNg8547
Ntp8565
bag6
(g7
g8
Ntp8566
Rp8567
(g3435
g6
(g7
g8
Ntp8568
Rp8569
(g3438
I99039
I00
NF-inf
Finf
NI0
NI99039
Ntp8570
bI00
NF-inf
Finf
NNNg8569
Ntp8571
bag6
(g7
g8
Ntp8572
Rp8573
(g1396
g6
(g7
g8
Ntp8574
Rp8575
(g837
g27
(g31
S'@\xda\x93\x85\xb7>\xb0?'
p8576
tp8577
Rp8578
I01
NI0
I1
Ng27
(g31
S'\r9Z\x0cp\xbfU?'
p8579
tp8580
Rp8581
(dp8582
g829
g27
(g31
S'\xda\x86\xca\xfez\x9a\xda?'
p8583
tp8584
Rp8585
sg833
g27
(g31
S'j(\x84\xbb\x07\xa4\xcd?'
p8586
tp8587
Rp8588
sg821
g27
(g31
S'o\x9d\xee\xb6\xc1\x92\xdd\xbf'
p8589
tp8590
Rp8591
sF0.5
Ntp8592
bI01
NF-inf
Finf
NNNg8575
Ntp8593
bag6
(g7
g8
Ntp8594
Rp8595
(g4259
g6
(g7
g8
Ntp8596
Rp8597
(g829
g27
(g31
S'\r\xd5\xf1\xff\xff\xff;@'
p8598
tp8599
Rp8600
I01
NI7
I28
Ng27
(g31
S'\x0c\xcb\xff\xea"C\x14@'
p8601
tp8602
Rp8603
(dp8604
g833
g27
(g31
S'D\xd2\x9d\xcdh\xb2\xdd?'
p8605
tp8606
Rp8607
sg821
g27
(g31
S'P\xe9\x82\x9f\x05t\xca?'
p8608
tp8609
Rp8610
sg837
g27
(g31
S'\xd7\x86\xca\xfez\x9a\xda?'
p8611
tp8612
Rp8613
sI14
Ntp8614
bI01
NF-inf
Finf
NNNg8597
Ntp8615
bag6
(g7
g8
Ntp8616
Rp8617
(g2467
g6
(g7
g8
Ntp8618
Rp8619
(g2470
I99108
I00
NF-inf
Finf
NI0
NI99108
Ntp8620
bI00
NF-inf
Finf
NNNg8619
Ntp8621
bag6
(g7
g8
Ntp8622
Rp8623
(g2056
g6
(g7
g8
Ntp8624
Rp8625
(g833
g27
(g31
S'8\rM\xa33\xd4\xb3?'
p8626
tp8627
Rp8628
I01
NI0
I1
Ng27
(g31
S'\x10\x9fo\x19"\xdaU?'
p8629
tp8630
Rp8631
(dp8632
g829
g27
(g31
S'I\xd2\x9d\xcdh\xb2\xdd?'
p8633
tp8634
Rp8635
sg821
g27
(g31
S'\xc6C.\xaa\xea\x88\xda\xbf'
p8636
tp8637
Rp8638
sg837
g27
(g31
S'^(\x84\xbb\x07\xa4\xcd?'
p8639
tp8640
Rp8641
sF0.5
Ntp8642
bI01
NF-inf
Finf
NNNg8625
Ntp8643
bag6
(g7
g8
Ntp8644
Rp8645
(g818
g6
(g7
g8
Ntp8646
Rp8647
(g821
g27
(g31
S'\xc7\xd2Z\x92\xad\xc7;@'
p8648
tp8649
Rp8650
I01
NI7
I28
Ng27
(g31
S'b\x11\xd6_\xa9m\xea?'
p8651
tp8652
Rp8653
(dp8654
g829
g27
(g31
S'8\xe9\x82\x9f\x05t\xca?'
p8655
tp8656
Rp8657
sg833
g27
(g31
S'\xc5C.\xaa\xea\x88\xda\xbf'
p8658
tp8659
Rp8660
sg837
g27
(g31
S'd\x9d\xee\xb6\xc1\x92\xdd\xbf'
p8661
tp8662
Rp8663
sI14
Ntp8664
bI01
NF-inf
Finf
NNNg8647
Ntp8665
bag6
(g7
g8
Ntp8666
Rp8667
(g3440
g6
(g7
g8
Ntp8668
Rp8669
(g3443
I99136
I00
NF-inf
Finf
NI0
NI99136
Ntp8670
bI00
NF-inf
Finf
NNNg8669
Ntp8671
bag6
(g7
g8
Ntp8672
Rp8673
(g3044
g6
(g7
g8
Ntp8674
Rp8675
(g3047
g27
(g31
S'\x88\xe5\xd7\x08\x86\x02\xb6?'
p8676
tp8677
Rp8678
I01
NI0
I1
Ng27
(g31
S'\xcc\x8b\xdae\xe9lX?'
p8679
tp8680
Rp8681
(dp8682
g3055
g27
(g31
S'\x8f\xe5g\xac\xf8\xe6\xcb?'
p8683
tp8684
Rp8685
sg3063
g27
(g31
S'\xd3\x8a\x1f[\xd6<\xdf\xbf'
p8686
tp8687
Rp8688
sg3059
g27
(g31
S'\x1c\x83\xb2\x15$\x84\xd9?'
p8689
tp8690
Rp8691
sF0.5
Ntp8692
bI01
NF-inf
Finf
NNNg8675
Ntp8693
bag6
(g7
g8
Ntp8694
Rp8695
(g3952
g6
(g7
g8
Ntp8696
Rp8697
(g3059
g27
(g31
S'q\xab\xcc\xff\xff\xff;@'
p8698
tp8699
Rp8700
I01
NI7
I28
Ng27
(g31
S"r'c\xb4\xdaL\xd0?"
p8701
tp8702
Rp8703
(dp8704
g3055
g27
(g31
S'\xb2\xcf\xf9}\x8c<\xdf?'
p8705
tp8706
Rp8707
sg3047
g27
(g31
S'&\x83\xb2\x15$\x84\xd9?'
p8708
tp8709
Rp8710
sg3063
g27
(g31
S'\xd8@\xec\x84\xb1*\xc8?'
p8711
tp8712
Rp8713
sI14
Ntp8714
bI01
NF-inf
Finf
NNNg8697
Ntp8715
bag6
(g7
g8
Ntp8716
Rp8717
(g1014
g6
(g7
g8
Ntp8718
Rp8719
(g1017
I99205
I00
NF-inf
Finf
NI0
NI99205
Ntp8720
bI00
NF-inf
Finf
NNNg8719
Ntp8721
bag6
(g7
g8
Ntp8722
Rp8723
(g3331
g6
(g7
g8
Ntp8724
Rp8725
(g3055
g27
(g31
S'\xc8Fn\x1f\xef\xd4\xaf?'
p8726
tp8727
Rp8728
I01
NI0
I1
Ng27
(g31
S'\xd3%)\xc0$mX?'
p8729
tp8730
Rp8731
(dp8732
g3063
g27
(g31
S'\x82\x84\xb7\xa5\x13\x85\xd9\xbf'
p8733
tp8734
Rp8735
sg3047
g27
(g31
S'\x90\xe5g\xac\xf8\xe6\xcb?'
p8736
tp8737
Rp8738
sg3059
g27
(g31
S'\xa8\xcf\xf9}\x8c<\xdf?'
p8739
tp8740
Rp8741
sF0.5
Ntp8742
bI01
NF-inf
Finf
NNNg8725
Ntp8743
bag6
(g7
g8
Ntp8744
Rp8745
(g3415
g6
(g7
g8
Ntp8746
Rp8747
(g3063
g27
(g31
S'\x14\x91/\xac\xfe\xff;@'
p8748
tp8749
Rp8750
I01
NI7
I28
Ng27
(g31
S'\xa4\x08\x83\xe6\xd9u\xf1?'
p8751
tp8752
Rp8753
(dp8754
g3055
g27
(g31
S'\x84\x84\xb7\xa5\x13\x85\xd9\xbf'
p8755
tp8756
Rp8757
sg3047
g27
(g31
S'\xd5\x8a\x1f[\xd6<\xdf\xbf'
p8758
tp8759
Rp8760
sg3059
g27
(g31
S'\x04A\xec\x84\xb1*\xc8?'
p8761
tp8762
Rp8763
sI14
Ntp8764
bI01
NF-inf
Finf
NNNg8747
Ntp8765
bag6
(g7
g8
Ntp8766
Rp8767
(g4434
g6
(g7
g8
Ntp8768
Rp8769
(g4437
I99232
I00
NF-inf
Finf
NI0
NI99232
Ntp8770
bI00
NF-inf
Finf
NNNg8769
Ntp8771
bag6
(g7
g8
Ntp8772
Rp8773
(g3140
g6
(g7
g8
Ntp8774
Rp8775
(g931
g27
(g31
S'\xdc!\x14\xf2g\x8c\xb3?'
p8776
tp8777
Rp8778
I01
NI0
I1
Ng27
(g31
S' W\x12\x1bmdU?'
p8779
tp8780
Rp8781
(dp8782
g923
g27
(g31
S'\xb3\x1ej\xd7H;\xdf\xbf'
p8783
tp8784
Rp8785
sg927
g27
(g31
S'\x13\xaf\xc0\r.\x87\xd9?'
p8786
tp8787
Rp8788
sg915
g27
(g31
S'\xc7\xf7\xf3\xa2_\xe9\xcb?'
p8789
tp8790
Rp8791
sF0.5
Ntp8792
bI01
NF-inf
Finf
NNNg8775
Ntp8793
bag6
(g7
g8
Ntp8794
Rp8795
(g2442
g6
(g7
g8
Ntp8796
Rp8797
(g927
g27
(g31
S'=\xb9\xfd\xff\xff\xff;@'
p8798
tp8799
Rp8800
I01
NI7
I28
Ng27
(g31
S'\x97\xfc\xd1\xef\x92\x91\xb6?'
p8801
tp8802
Rp8803
(dp8804
g923
g27
(g31
S'\xd9\xedK;\x9f+\xc8?'
p8805
tp8806
Rp8807
sg915
g27
(g31
S'Pyw\xbe9<\xdf?'
p8808
tp8809
Rp8810
sg931
g27
(g31
S'\x14\xaf\xc0\r.\x87\xd9?'
p8811
tp8812
Rp8813
sI14
Ntp8814
bI01
NF-inf
Finf
NNNg8797
Ntp8815
bag6
(g7
g8
Ntp8816
Rp8817
(g4240
g6
(g7
g8
Ntp8818
Rp8819
(g4243
I99301
I00
NF-inf
Finf
NI0
NI99301
Ntp8820
bI00
NF-inf
Finf
NNNg8819
Ntp8821
bag6
(g7
g8
Ntp8822
Rp8823
(g912
g6
(g7
g8
Ntp8824
Rp8825
(g915
g27
(g31
S'\xc8\xe7\xc0P:m\xa7?'
p8826
tp8827
Rp8828
I01
NI0
I1
Ng27
(g31
S'V\xc5\x06\xd2\xfacU?'
p8829
tp8830
Rp8831
(dp8832
g923
g27
(g31
S'HE\xdf\xce\xc1\x84\xd9\xbf'
p8833
tp8834
Rp8835
sg927
g27
(g31
S'Fyw\xbe9<\xdf?'
p8836
tp8837
Rp8838
sg931
g27
(g31
S'\xc0\xf7\xf3\xa2_\xe9\xcb?'
p8839
tp8840
Rp8841
sF0.5
Ntp8842
bI01
NF-inf
Finf
NNNg8825
Ntp8843
bag6
(g7
g8
Ntp8844
Rp8845
(g4547
g6
(g7
g8
Ntp8846
Rp8847
(g923
g27
(g31
S'\xfe\xed\xd8\xfb\xff\xff;@'
p8848
tp8849
Rp8850
I01
NI7
I28
Ng27
(g31
S'\x84"Bb\x8c\xd0\xf2?'
p8851
tp8852
Rp8853
(dp8854
g927
g27
(g31
S'\xe1\xedK;\x9f+\xc8?'
p8855
tp8856
Rp8857
sg915
g27
(g31
S'HE\xdf\xce\xc1\x84\xd9\xbf'
p8858
tp8859
Rp8860
sg931
g27
(g31
S'\xb3\x1ej\xd7H;\xdf\xbf'
p8861
tp8862
Rp8863
sI14
Ntp8864
bI01
NF-inf
Finf
NNNg8847
Ntp8865
bag6
(g7
g8
Ntp8866
Rp8867
(g2325
g6
(g7
g8
Ntp8868
Rp8869
(g2328
I99328
I00
NF-inf
Finf
NI0
NI99328
Ntp8870
bI00
NF-inf
Finf
NNNg8869
Ntp8871
bag6
(g7
g8
Ntp8872
Rp8873
(g2788
g6
(g7
g8
Ntp8874
Rp8875
(g2791
g27
(g31
S'\x00\x10\xff\xe0hW\xac?'
p8876
tp8877
Rp8878
I01
NI0
I1
NNNF0.5
Ntp8879
bI01
NF-inf
Finf
NNNg8875
Ntp8880
bag6
(g7
g8
Ntp8881
Rp8882
(g4617
g6
(g7
g8
Ntp8883
Rp8884
(g4620
g27
(g31
S's^\xff\xff\xff\xff;@'
p8885
tp8886
Rp8887
I01
NI7
I28
NNNI14
Ntp8888
bI01
NF-inf
Finf
NNNg8884
Ntp8889
bag6
(g7
g8
Ntp8890
Rp8891
(g1701
g6
(g7
g8
Ntp8892
Rp8893
(g1704
I99398
I00
NF-inf
Finf
NNNI99398
Ntp8894
bI00
NF-inf
Finf
NNNg8893
Ntp8895
bag6
(g7
g8
Ntp8896
Rp8897
(g1693
g6
(g7
g8
Ntp8898
Rp8899
(g1696
g27
(g31
S'\xe0:<E9`\x8d?'
p8900
tp8901
Rp8902
I01
NI0
I1
NNNF0.5
Ntp8903
bI01
NF-inf
Finf
NNNg8899
Ntp8904
bag6
(g7
g8
Ntp8905
Rp8906
(g1685
g6
(g7
g8
Ntp8907
Rp8908
(g1688
g27
(g31
S'\x00\x00\x00\x00\x00\x00<@'
p8909
tp8910
Rp8911
I01
NI7
I28
NNNI14
Ntp8912
bI01
NF-inf
Finf
NNNg8908
Ntp8913
bag6
(g7
g8
Ntp8914
Rp8915
(g984
g6
(g7
g8
Ntp8916
Rp8917
(g987
I99420
I00
NF-inf
Finf
NNNI99420
Ntp8918
bI00
NF-inf
Finf
NNNg8917
Ntp8919
bag6
(g7
g8
Ntp8920
Rp8921
(g2583
g6
(g7
g8
Ntp8922
Rp8923
(g2586
g27
(g31
S'@\x81\xe7\xd1{\x1c\x8d?'
p8924
tp8925
Rp8926
I01
NI0
I1
NNNF0.5
Ntp8927
bI01
NF-inf
Finf
NNNg8923
Ntp8928
bag6
(g7
g8
Ntp8929
Rp8930
(g2245
g6
(g7
g8
Ntp8931
Rp8932
(g2248
g27
(g31
S'\x00\x00\x00\x00\x00\x00<@'
p8933
tp8934
Rp8935
I01
NI7
I28
NNNI14
Ntp8936
bI01
NF-inf
Finf
NNNg8932
Ntp8937
bag6
(g7
g8
Ntp8938
Rp8939
(g5
g6
(g7
g8
Ntp8940
Rp8941
(g11
I99466
I00
NF-inf
Finf
NNNI99466
Ntp8942
bI00
NF-inf
Finf
NNNg8941
Ntp8943
bag6
(g7
g8
Ntp8944
Rp8945
(g1726
g6
(g7
g8
Ntp8946
Rp8947
(g1729
g27
(g31
S' \xf4\xb4B\x04m\x8e?'
p8948
tp8949
Rp8950
I01
NI0
I1
NNNF0.5
Ntp8951
bI01
NF-inf
Finf
NNNg8947
Ntp8952
bag6
(g7
g8
Ntp8953
Rp8954
(g2317
g6
(g7
g8
Ntp8955
Rp8956
(g2320
g27
(g31
S'\x19\x84ak\xc6\xff;@'
p8957
tp8958
Rp8959
I01
NI7
I28
NNNI14
Ntp8960
bI01
NF-inf
Finf
NNNg8956
Ntp8961
bag6
(g7
g8
Ntp8962
Rp8963
(g3004
g6
(g7
g8
Ntp8964
Rp8965
(g3007
I99496
I00
NF-inf
Finf
NNNI99496
Ntp8966
bI00
NF-inf
Finf
NNNg8965
Ntp8967
bag6
(g7
g8
Ntp8968
Rp8969
(g3323
g6
(g7
g8
Ntp8970
Rp8971
(g3326
g27
(g31
S'\x80\xe604\xc6x\x89?'
p8972
tp8973
Rp8974
I01
NI0
I1
NNNF0.5
Ntp8975
bI01
NF-inf
Finf
NNNg8971
Ntp8976
bag6
(g7
g8
Ntp8977
Rp8978
(g2253
g6
(g7
g8
Ntp8979
Rp8980
(g2256
g27
(g31
S'\x00\x00\x00\x00\x00\x00<@'
p8981
tp8982
Rp8983
I01
NI7
I28
NNNI14
Ntp8984
bI01
NF-inf
Finf
NNNg8980
Ntp8985
bag6
(g7
g8
Ntp8986
Rp8987
(g457
g6
(g7
g8
Ntp8988
Rp8989
(g460
I99548
I00
NF-inf
Finf
NNNI99548
Ntp8990
bI00
NF-inf
Finf
NNNg8989
Ntp8991
bag6
(g7
g8
Ntp8992
Rp8993
(g3126
g6
(g7
g8
Ntp8994
Rp8995
(g196
g27
(g31
S'D\n\x14%3~\xb6?'
p8996
tp8997
Rp8998
I01
NI0
I1
Ng27
(g31
S'\x98\x0f\x02T\xc1\xa7U?'
p8999
tp9000
Rp9001
(dp9002
g188
g27
(g31
S'\x16\x03\xd61\xa1\xc9\xe6\xbf'
p9003
tp9004
Rp9005
sF0.5
Ntp9006
bI01
NF-inf
Finf
NNNg8995
Ntp9007
bag6
(g7
g8
Ntp9008
Rp9009
(g185
g6
(g7
g8
Ntp9010
Rp9011
(g188
g27
(g31
S'\xc3j\xd3\xaaS&6@'
p9012
tp9013
Rp9014
I01
NI7
I28
Ng27
(g31
S'\xfa\x7f\xa9\xce\xf8\x1c\xe0?'
p9015
tp9016
Rp9017
(dp9018
g196
g27
(g31
S'\x16\x03\xd61\xa1\xc9\xe6\xbf'
p9019
tp9020
Rp9021
sI14
Ntp9022
bI01
NF-inf
Finf
NNNg9011
Ntp9023
bag6
(g7
g8
Ntp9024
Rp9025
(g1598
g6
(g7
g8
Ntp9026
Rp9027
(g1601
I99710
I00
NF-inf
Finf
NI0
NI99710
Ntp9028
bI00
NF-inf
Finf
NNNg9027
Ntp9029
bag6
(g7
g8
Ntp9030
Rp9031
(g3939
g6
(g7
g8
Ntp9032
Rp9033
(g3942
g27
(g31
S'`w\xbd\xf1\x16z\x85?'
p9034
tp9035
Rp9036
I01
NI0
I1
NNNF0.5
Ntp9037
bI01
NF-inf
Finf
NNNg9033
Ntp9038
bag6
(g7
g8
Ntp9039
Rp9040
(g23
g6
(g7
g8
Ntp9041
Rp9042
(g26
g27
(g31
S'\x00\x00\x00\x00\x00\x00<@'
p9043
tp9044
Rp9045
I01
NI7
I28
NNNI14
Ntp9046
bI01
NF-inf
Finf
NNNg9042
Ntp9047
bag6
(g7
g8
Ntp9048
Rp9049
(g1009
g6
(g7
g8
Ntp9050
Rp9051
(g1012
I100431
I00
NF-inf
Finf
NNNI100431
Ntp9052
bI00
NF-inf
Finf
NNNg9051
Ntp9053
bag6
(g7
g8
Ntp9054
Rp9055
(g4138
g6
(g7
g8
Ntp9056
Rp9057
(g2729
g27
(g31
S'\x90#J6\x00g\x92?'
p9058
tp9059
Rp9060
I01
NI0
I1
Ng27
(g31
S'\xf0\xee\xf2\xde\x1c\tL?'
p9061
tp9062
Rp9063
(dp9064
g2721
g27
(g31
S'\x9f\x94 \xea\x13\xe2\xe6\xbf'
p9065
tp9066
Rp9067
sF0.5
Ntp9068
bI01
NF-inf
Finf
NNNg9057
Ntp9069
bag6
(g7
g8
Ntp9070
Rp9071
(g2718
g6
(g7
g8
Ntp9072
Rp9073
(g2721
g27
(g31
S'\x14\x9d\xb3\xf9\xff\xff;@'
p9074
tp9075
Rp9076
I01
NI7
I28
Ng27
(g31
S'd\xb9\x96\xf1\xde\xfb\x00@'
p9077
tp9078
Rp9079
(dp9080
g2729
g27
(g31
S'\x9f\x94 \xea\x13\xe2\xe6\xbf'
p9081
tp9082
Rp9083
sI14
Ntp9084
bI01
NF-inf
Finf
NNNg9073
Ntp9085
bag6
(g7
g8
Ntp9086
Rp9087
(g4604
g6
(g7
g8
Ntp9088
Rp9089
(g4607
I100523
I00
NF-inf
Finf
NI0
NI100523
Ntp9090
bI00
NF-inf
Finf
NNNg9089
Ntp9091
bag6
(g7
g8
Ntp9092
Rp9093
(g3250
g6
(g7
g8
Ntp9094
Rp9095
(g2608
g27
(g31
S'\xc0i\x1d\x081V\xb4?'
p9096
tp9097
Rp9098
I01
NI0
I1
Ng27
(g31
S'\x0b\x80\xddw\xf7\x86r?'
p9099
tp9100
Rp9101
(dp9102
g2600
g27
(g31
S'\xc5\xf3\x95\xcf\r\xe2\xe6?'
p9103
tp9104
Rp9105
sF0.5
Ntp9106
bI01
NF-inf
Finf
NNNg9095
Ntp9107
bag6
(g7
g8
Ntp9108
Rp9109
(g2597
g6
(g7
g8
Ntp9110
Rp9111
(g2600
g27
(g31
S'"\x88\xe9\xff\xff\xff;@'
p9112
tp9113
Rp9114
I01
NI7
I28
Ng27
(g31
S'J$\xde\r\xbd\xc4\xd3?'
p9115
tp9116
Rp9117
(dp9118
g2608
g27
(g31
S'\xc5\xf3\x95\xcf\r\xe2\xe6?'
p9119
tp9120
Rp9121
sI14
Ntp9122
bI01
NF-inf
Finf
NNNg9111
Ntp9123
bag6
(g7
g8
Ntp9124
Rp9125
(g3689
g6
(g7
g8
Ntp9126
Rp9127
(g3692
I100630
I00
NF-inf
Finf
NI0
NI100630
Ntp9128
bI00
NF-inf
Finf
NNNg9127
Ntp9129
bag6
(g7
g8
Ntp9130
Rp9131
(g1320
g6
(g7
g8
Ntp9132
Rp9133
(g879
g27
(g31
S'\x80\x00\x0e\xf0\x9c\x16\x96?'
p9134
tp9135
Rp9136
I01
NI0
I1
Ng27
(g31
S'Y\xe7{)\x9d\xab@?'
p9137
tp9138
Rp9139
(dp9140
g871
g27
(g31
S'\x85Uke\xf0\xe1\xe6\xbf'
p9141
tp9142
Rp9143
sF0.5
Ntp9144
bI01
NF-inf
Finf
NNNg9133
Ntp9145
bag6
(g7
g8
Ntp9146
Rp9147
(g868
g6
(g7
g8
Ntp9148
Rp9149
(g871
g27
(g31
S'\x00\x00\x00\x00\x00\x00<@'
p9150
tp9151
Rp9152
I01
NI7
I28
Ng27
(g31
S'\x12\xe4\x84\xe3\x0bT\x05?'
p9153
tp9154
Rp9155
(dp9156
g879
g27
(g31
S'\x85Uke\xf0\xe1\xe6\xbf'
p9157
tp9158
Rp9159
sI14
Ntp9160
bI01
NF-inf
Finf
NNNg9149
Ntp9161
bag6
(g7
g8
Ntp9162
Rp9163
(g467
g6
(g7
g8
Ntp9164
Rp9165
(g470
I101870
I00
NF-inf
Finf
NI0
NI101870
Ntp9166
bI00
NF-inf
Finf
NNNg9165
Ntp9167
bag6
(g7
g8
Ntp9168
Rp9169
(g4659
g6
(g7
g8
Ntp9170
Rp9171
(g2150
g27
(g31
S'`X\xf7\xf6\xc0\xc5\xa1?'
p9172
tp9173
Rp9174
I01
NI0
I1
Ng27
(g31
S'\xe8\xd5\xef\xcbx7B?'
p9175
tp9176
Rp9177
(dp9178
g2142
g27
(g31
S'\x1dT\xb4 \xf3\xe1\xe6?'
p9179
tp9180
Rp9181
sF0.5
Ntp9182
bI01
NF-inf
Finf
NNNg9171
Ntp9183
bag6
(g7
g8
Ntp9184
Rp9185
(g2139
g6
(g7
g8
Ntp9186
Rp9187
(g2142
g27
(g31
S'$\xe9\xff\xff\xff\xff;@'
p9188
tp9189
Rp9190
I01
NI7
I28
Ng27
(g31
S'"N\xe7"+\xb5\x8e?'
p9191
tp9192
Rp9193
(dp9194
g2150
g27
(g31
S'\x1dT\xb4 \xf3\xe1\xe6?'
p9195
tp9196
Rp9197
sI14
Ntp9198
bI01
NF-inf
Finf
NNNg9187
Ntp9199
bag6
(g7
g8
Ntp9200
Rp9201
(g1716
g6
(g7
g8
Ntp9202
Rp9203
(g1719
I101964
I00
NF-inf
Finf
NI0
NI101964
Ntp9204
bI00
NF-inf
Finf
NNNg9203
Ntp9205
bag6
(g7
g8
Ntp9206
Rp9207
(g3481
g6
(g7
g8
Ntp9208
Rp9209
(g3484
g27
(g31
S'\xb0I\x04\xbb"Q\x92?'
p9210
tp9211
Rp9212
I01
NI0
I1
Ng27
(g31
S'\x06\xc3\x8a\xa7\xe73Q?'
p9213
tp9214
Rp9215
(dp9216
g3492
g27
(g31
S'J\xd9w7\x1f\xe2\xe6\xbf'
p9217
tp9218
Rp9219
sF0.5
Ntp9220
bI01
NF-inf
Finf
NNNg9209
Ntp9221
bag6
(g7
g8
Ntp9222
Rp9223
(g3727
g6
(g7
g8
Ntp9224
Rp9225
(g3492
g27
(g31
S'\xa8\xd8E\xe1\xff\xff;@'
p9226
tp9227
Rp9228
I01
NI7
I28
Ng27
(g31
S'\xec\x8a\x9c\xdc\xb9\xf0\x04@'
p9229
tp9230
Rp9231
(dp9232
g3484
g27
(g31
S'J\xd9w7\x1f\xe2\xe6\xbf'
p9233
tp9234
Rp9235
sI14
Ntp9236
bI01
NF-inf
Finf
NNNg9225
Ntp9237
bag6
(g7
g8
Ntp9238
Rp9239
(g18
g6
(g7
g8
Ntp9240
Rp9241
(g21
I102056
I00
NF-inf
Finf
NI0
NI102056
Ntp9242
bI00
NF-inf
Finf
NNNg9241
Ntp9243
bag6
(g7
g8
Ntp9244
Rp9245
(g4226
g6
(g7
g8
Ntp9246
Rp9247
(g1267
g27
(g31
S'\x00\x0e?_\x99\n\x89?'
p9248
tp9249
Rp9250
I01
NI0
I1
Ng27
(g31
S'E\xbf\xbf\x16\x08\xa75?'
p9251
tp9252
Rp9253
(dp9254
g1259
g27
(g31
S'u\x8e\xa9\xa5\xd8\xe5\xe6\xbf'
p9255
tp9256
Rp9257
sF0.5
Ntp9258
bI01
NF-inf
Finf
NNNg9247
Ntp9259
bag6
(g7
g8
Ntp9260
Rp9261
(g1256
g6
(g7
g8
Ntp9262
Rp9263
(g1259
g27
(g31
S'b_\xd1\xff\xff\xff;@'
p9264
tp9265
Rp9266
I01
NI7
I28
Ng27
(g31
S'\x95lf\xd9F;\xf3?'
p9267
tp9268
Rp9269
(dp9270
g1267
g27
(g31
S'u\x8e\xa9\xa5\xd8\xe5\xe6\xbf'
p9271
tp9272
Rp9273
sI14
Ntp9274
bI01
NF-inf
Finf
NNNg9263
Ntp9275
bag6
(g7
g8
Ntp9276
Rp9277
(g4584
g6
(g7
g8
Ntp9278
Rp9279
(g4587
I102337
I00
NF-inf
Finf
NI0
NI102337
Ntp9280
bI00
NF-inf
Finf
NNNg9279
Ntp9281
bag6
(g7
g8
Ntp9282
Rp9283
(g2780
g6
(g7
g8
Ntp9284
Rp9285
(g2783
g27
(g31
S'\x00\xf3\xc3i\xba\xfb\x91?'
p9286
tp9287
Rp9288
I01
NI0
I1
NNNF0.5
Ntp9289
bI01
NF-inf
Finf
NNNg9285
Ntp9290
bag6
(g7
g8
Ntp9291
Rp9292
(g2796
g6
(g7
g8
Ntp9293
Rp9294
(g2799
g27
(g31
S'\x00\x00\x00\x00\x00\x00<@'
p9295
tp9296
Rp9297
I01
NI7
I28
NNNI14
Ntp9298
bI01
NF-inf
Finf
NNNg9294
Ntp9299
bag6
(g7
g8
Ntp9300
Rp9301
(g884
g6
(g7
g8
Ntp9302
Rp9303
(g887
I102434
I00
NF-inf
Finf
NNNI102434
Ntp9304
bI00
NF-inf
Finf
NNNg9303
Ntp9305
bag6
(g7
g8
Ntp9306
Rp9307
(g2006
g6
(g7
g8
Ntp9308
Rp9309
(g2009
g27
(g31
S'\xa0\x8d\xd0\xc3\x03\x17\x8c?'
p9310
tp9311
Rp9312
I01
NI0
I1
NNNF0.5
Ntp9313
bI01
NF-inf
Finf
NNNg9309
Ntp9314
bag6
(g7
g8
Ntp9315
Rp9316
(g2618
g6
(g7
g8
Ntp9317
Rp9318
(g2621
g27
(g31
S'\x00\x00\x00\x00\x00\x00<@'
p9319
tp9320
Rp9321
I01
NI7
I28
NNNI14
Ntp9322
bI01
NF-inf
Finf
NNNg9318
Ntp9323
bag6
(g7
g8
Ntp9324
Rp9325
(g3774
g6
(g7
g8
Ntp9326
Rp9327
(g3777
I102448
I00
NF-inf
Finf
NNNI102448
Ntp9328
bI00
NF-inf
Finf
NNNg9327
Ntp9329
bag6
(g7
g8
Ntp9330
Rp9331
(g2888
g6
(g7
g8
Ntp9332
Rp9333
(g2891
g27
(g31
S'\x80\xdd \xe2\xee\xdbk?'
p9334
tp9335
Rp9336
I01
NI0
I1
NNNF0.5
Ntp9337
bI01
NF-inf
Finf
NNNg9333
Ntp9338
bag6
(g7
g8
Ntp9339
Rp9340
(g3617
g6
(g7
g8
Ntp9341
Rp9342
(g3620
g27
(g31
S'P#\x91\xf4\xf9\xfc;@'
p9343
tp9344
Rp9345
I01
NI7
I28
NNNI14
Ntp9346
bI01
NF-inf
Finf
NNNg9342
Ntp9347
bag6
(g7
g8
Ntp9348
Rp9349
(g989
g6
(g7
g8
Ntp9350
Rp9351
(g992
I102486
I00
NF-inf
Finf
NNNI102486
Ntp9352
bI00
NF-inf
Finf
NNNg9351
Ntp9353
bag6
(g7
g8
Ntp9354
Rp9355
(g3455
g6
(g7
g8
Ntp9356
Rp9357
(g3458
g27
(g31
S'\x00\x00\x00\x00@\xfd\xb6='
p9358
tp9359
Rp9360
I01
NI0
I1
NNNF0.5
Ntp9361
bI01
NF-inf
Finf
NNNg9357
Ntp9362
bag6
(g7
g8
Ntp9363
Rp9364
(g3681
g6
(g7
g8
Ntp9365
Rp9366
(g3684
g27
(g31
S'\x9a|\xe9\x9a\x13d0@'
p9367
tp9368
Rp9369
I01
NI7
I28
NNNI14
Ntp9370
bI01
NF-inf
Finf
NNNg9366
Ntp9371
bag6
(g7
g8
Ntp9372
Rp9373
(g1108
g6
(g7
g8
Ntp9374
Rp9375
(g1111
I102501
I00
NF-inf
Finf
NNNI102501
Ntp9376
bI00
NF-inf
Finf
NNNg9375
Ntp9377
bag6
(g7
g8
Ntp9378
Rp9379
(g3497
g6
(g7
g8
Ntp9380
Rp9381
(g3500
g27
(g31
S'@6f\xe9\xe6\x88\xa1?'
p9382
tp9383
Rp9384
I01
NI0
I1
NNNF0.5
Ntp9385
bI01
NF-inf
Finf
NNNg9381
Ntp9386
bag6
(g7
g8
Ntp9387
Rp9388
(g3663
g6
(g7
g8
Ntp9389
Rp9390
(g3666
g27
(g31
S'\x00\x00\x00\x00\x00\x00<@'
p9391
tp9392
Rp9393
I01
NI7
I28
NNNI14
Ntp9394
bI01
NF-inf
Finf
NNNg9390
Ntp9395
bag6
(g7
g8
Ntp9396
Rp9397
(g1065
g6
(g7
g8
Ntp9398
Rp9399
(g1068
I102508
I00
NF-inf
Finf
NNNI102508
Ntp9400
bI00
NF-inf
Finf
NNNg9399
Ntp9401
bag6
(g7
g8
Ntp9402
Rp9403
(g4528
g6
(g7
g8
Ntp9404
Rp9405
(g1988
g27
(g31
S'\xa0B\xc1Y0\xe3\xdf?'
p9406
tp9407
Rp9408
I01
NI0
I1
Ng27
(g31
S'1\x86#(\xaf\xdez?'
p9409
tp9410
Rp9411
(dp9412
g1980
g27
(g31
S'7A\\\xc9\x1a\xdc\xe6\xbf'
p9413
tp9414
Rp9415
sF0.5
Ntp9416
bI01
NF-inf
Finf
NNNg9405
Ntp9417
bag6
(g7
g8
Ntp9418
Rp9419
(g1977
g6
(g7
g8
Ntp9420
Rp9421
(g1980
g27
(g31
S'\xdc\xc5^\xf1r\x9a:@'
p9422
tp9423
Rp9424
I01
NI7
I28
Ng27
(g31
S'2\x99\xbd\xdf\xf3\x9a\xe1?'
p9425
tp9426
Rp9427
(dp9428
g1988
g27
(g31
S'7A\\\xc9\x1a\xdc\xe6\xbf'
p9429
tp9430
Rp9431
sI14
Ntp9432
bI01
NF-inf
Finf
NNNg9421
Ntp9433
bag6
(g7
g8
Ntp9434
Rp9435
(g3789
g6
(g7
g8
Ntp9436
Rp9437
(g3792
I102568
I00
NF-inf
Finf
NI0
NI102568
Ntp9438
bI00
NF-inf
Finf
NNNg9437
Ntp9439
bag6
(g7
g8
Ntp9440
Rp9441
(g2698
g6
(g7
g8
Ntp9442
Rp9443
(g559
g27
(g31
S'\xfa\xd9\xc9\xab\xb7T\xed?'
p9444
tp9445
Rp9446
I01
NI0
I1
Ng27
(g31
S'<\xe8\xc4\xcdl\xca\x87?'
p9447
tp9448
Rp9449
(dp9450
g563
g27
(g31
S'6\x8b\xc3\xf8\xe8>\xe2\xbf'
p9451
tp9452
Rp9453
sg567
g27
(g31
S'\xe4\xd1)\xf4\x15\xa6\xc9?'
p9454
tp9455
Rp9456
sg551
g27
(g31
S'\xedA\x03$:\xe5\xc5\xbf'
p9457
tp9458
Rp9459
sF0.5
Ntp9460
bI01
NF-inf
Finf
NNNg9443
Ntp9461
bag6
(g7
g8
Ntp9462
Rp9463
(g2496
g6
(g7
g8
Ntp9464
Rp9465
(g563
g27
(g31
S'z6\x13\x82n\xc59@'
p9466
tp9467
Rp9468
I01
NI7
I28
Ng27
(g31
S'\xe3\x93r\xd0d\x92\xe2?'
p9469
tp9470
Rp9471
(dp9472
g559
g27
(g31
S'5\x8b\xc3\xf8\xe8>\xe2\xbf'
p9473
tp9474
Rp9475
sg567
g27
(g31
S'-L&\xc4\xbb\x0c\xca\xbf'
p9476
tp9477
Rp9478
sg551
g27
(g31
S'\xf7\x0f\x92-\x05m\xd5\xbf'
p9479
tp9480
Rp9481
sI14
Ntp9482
bI01
NF-inf
Finf
NNNg9465
Ntp9483
bag6
(g7
g8
Ntp9484
Rp9485
(g676
g6
(g7
g8
Ntp9486
Rp9487
(g679
I102666
I00
NF-inf
Finf
NI0
NI102666
Ntp9488
bI00
NF-inf
Finf
NNNg9487
Ntp9489
bag6
(g7
g8
Ntp9490
Rp9491
(g1334
g6
(g7
g8
Ntp9492
Rp9493
(g567
g27
(g31
S'\xbc\xd1\x8d\xc2\xffY\xed?'
p9494
tp9495
Rp9496
I01
NI0
I1
Ng27
(g31
S'Z\x1e\x9e\xfe"M\x89?'
p9497
tp9498
Rp9499
(dp9500
g559
g27
(g31
S'\xde\xd1)\xf4\x15\xa6\xc9?'
p9501
tp9502
Rp9503
sg563
g27
(g31
S'5L&\xc4\xbb\x0c\xca\xbf'
p9504
tp9505
Rp9506
sg551
g27
(g31
S'\xfd\xf5`k\x84\xaf\xe1\xbf'
p9507
tp9508
Rp9509
sF0.5
Ntp9510
bI01
NF-inf
Finf
NNNg9493
Ntp9511
bag6
(g7
g8
Ntp9512
Rp9513
(g548
g6
(g7
g8
Ntp9514
Rp9515
(g551
g27
(g31
S'\xe09\x99:\xcd\xcb6@'
p9516
tp9517
Rp9518
I01
NI7
I28
Ng27
(g31
S'U\xc32\x9b\xc0\xe0\xe0?'
p9519
tp9520
Rp9521
(dp9522
g559
g27
(g31
S'\xedA\x03$:\xe5\xc5\xbf'
p9523
tp9524
Rp9525
sg563
g27
(g31
S'\xf2\x0f\x92-\x05m\xd5\xbf'
p9526
tp9527
Rp9528
sg567
g27
(g31
S'\xfd\xf5`k\x84\xaf\xe1\xbf'
p9529
tp9530
Rp9531
sI14
Ntp9532
bI01
NF-inf
Finf
NNNg9515
Ntp9533
bag6
(g7
g8
Ntp9534
Rp9535
(g4047
g6
(g7
g8
Ntp9536
Rp9537
(g4050
I102701
I00
NF-inf
Finf
NI0
NI102701
Ntp9538
bI00
NF-inf
Finf
NNNg9537
Ntp9539
bag6
(g7
g8
Ntp9540
Rp9541
(g4738
g6
(g7
g8
Ntp9542
Rp9543
(g4741
g27
(g31
S'\x99\xf7\x0f\xb5\xd3Z\xe1?'
p9544
tp9545
Rp9546
I01
NI0
I1
NNNF0.5
Ntp9547
bI01
NF-inf
Finf
NNNg9543
Ntp9548
bag6
(g7
g8
Ntp9549
Rp9550
(g2014
g6
(g7
g8
Ntp9551
Rp9552
(g2017
g27
(g31
S'\x9aW\x0b\xff\xff\xff;@'
p9553
tp9554
Rp9555
I01
NI7
I28
NNNI14
Ntp9556
bI01
NF-inf
Finf
NNNg9552
Ntp9557
bag6
(g7
g8
Ntp9558
Rp9559
(g1532
g6
(g7
g8
Ntp9560
Rp9561
(g1535
I102769
I00
NF-inf
Finf
NNNI102769
Ntp9562
bI00
NF-inf
Finf
NNNg9561
Ntp9563
bag6
(g7
g8
Ntp9564
Rp9565
(g1500
g6
(g7
g8
Ntp9566
Rp9567
(g1503
g27
(g31
S'\xfb\xc4Tse\xa9\xea?'
p9568
tp9569
Rp9570
I01
NI0
I1
NNNF0.5
Ntp9571
bI01
NF-inf
Finf
NNNg9567
Ntp9572
bag6
(g7
g8
Ntp9573
Rp9574
(g3468
g6
(g7
g8
Ntp9575
Rp9576
(g3471
g27
(g31
S'\x8a4\x0b\xc1T\x045@'
p9577
tp9578
Rp9579
I01
NI7
I28
NNNI14
Ntp9580
bI01
NF-inf
Finf
NNNg9576
Ntp9581
bag6
(g7
g8
Ntp9582
Rp9583
(g4379
g6
(g7
g8
Ntp9584
Rp9585
(g4382
I102792
I00
NF-inf
Finf
NNNI102792
Ntp9586
bI00
NF-inf
Finf
NNNg9585
Ntp9587
bag6
(g7
g8
Ntp9588
Rp9589
(g694
g6
(g7
g8
Ntp9590
Rp9591
(g697
g27
(g31
S'\x00\x00\x00\x00\xa8!\xb4='
p9592
tp9593
Rp9594
I01
NI0
I1
NNNF0.5
Ntp9595
bI01
NF-inf
Finf
NNNg9591
Ntp9596
bag6
(g7
g8
Ntp9597
Rp9598
(g480
g6
(g7
g8
Ntp9599
Rp9600
(g483
g27
(g31
S'\xa4,w\x9b\xd5\x13\x1f@'
p9601
tp9602
Rp9603
I01
NI7
I28
NNNI14
Ntp9604
bI01
NF-inf
Finf
NNNg9600
Ntp9605
bag6
(g7
g8
Ntp9606
Rp9607
(g858
g6
(g7
g8
Ntp9608
Rp9609
(g861
I102826
I00
NF-inf
Finf
NNNI102826
Ntp9610
bI00
NF-inf
Finf
NNNg9609
Ntp9611
bag6
(g7
g8
Ntp9612
Rp9613
(g134
g6
(g7
g8
Ntp9614
Rp9615
(g137
g27
(g31
S'\xe0\x90^\xd1\xf9&\xb2?'
p9616
tp9617
Rp9618
I01
NI0
I1
NNNF0.5
Ntp9619
bI01
NF-inf
Finf
NNNg9615
Ntp9620
bag6
(g7
g8
Ntp9621
Rp9622
(g4609
g6
(g7
g8
Ntp9623
Rp9624
(g4612
g27
(g31
S'Kd\x82\xd6\xd8\x971@'
p9625
tp9626
Rp9627
I01
NI7
I28
NNNI14
Ntp9628
bI01
NF-inf
Finf
NNNg9624
Ntp9629
bag6
(g7
g8
Ntp9630
Rp9631
(g1665
g6
(g7
g8
Ntp9632
Rp9633
(g1668
I102863
I00
NF-inf
Finf
NNNI102863
Ntp9634
bI00
NF-inf
Finf
NNNg9633
Ntp9635
bag6
(g7
g8
Ntp9636
Rp9637
(g3014
g6
(g7
g8
Ntp9638
Rp9639
(g1964
g27
(g31
S'\xa8OB\x02\x8ay\xac?'
p9640
tp9641
Rp9642
I01
NI0
I1
Ng27
(g31
S'\x02\xb8\x9a\xf1\x8cWN?'
p9643
tp9644
Rp9645
(dp9646
g1956
g27
(g31
S'\xc5\xea\xdd\x1d\xf8\x1f\xd6\xbf'
p9647
tp9648
Rp9649
sg1968
g27
(g31
S'\xcc\x03\xc9E\xb8\xf5\xce?'
p9650
tp9651
Rp9652
sg1972
g27
(g31
S'\xd4\xea\x142\xfa\x98\xde?'
p9653
tp9654
Rp9655
sF0.5
Ntp9656
bI01
NF-inf
Finf
NNNg9639
Ntp9657
bag6
(g7
g8
Ntp9658
Rp9659
(g3901
g6
(g7
g8
Ntp9660
Rp9661
(g1972
g27
(g31
S'\xa9\xff\xff\xff\xff\xff;@'
p9662
tp9663
Rp9664
I01
NI7
I28
Ng27
(g31
S'\x04\xc0\xb1\x18\xf9KW?'
p9665
tp9666
Rp9667
(dp9668
g1964
g27
(g31
S'\xd2\xea\x142\xfa\x98\xde?'
p9669
tp9670
Rp9671
sg1968
g27
(g31
S'H\x9c\xf6\xb3v\x1b\xd9?'
p9672
tp9673
Rp9674
sg1956
g27
(g31
S'\x822\r\xe5y\xf4\xd0?'
p9675
tp9676
Rp9677
sI14
Ntp9678
bI01
NF-inf
Finf
NNNg9661
Ntp9679
bag6
(g7
g8
Ntp9680
Rp9681
(g3625
g6
(g7
g8
Ntp9682
Rp9683
(g3628
I102931
I00
NF-inf
Finf
NI0
NI102931
Ntp9684
bI00
NF-inf
Finf
NNNg9683
Ntp9685
bag6
(g7
g8
Ntp9686
Rp9687
(g2155
g6
(g7
g8
Ntp9688
Rp9689
(g1968
g27
(g31
S'\xb0&\xda\xd5\x17\x1b\x9b?'
p9690
tp9691
Rp9692
I01
NI0
I1
Ng27
(g31
S'T\x90\xd3\x91\xaf\xc7P?'
p9693
tp9694
Rp9695
(dp9696
g1964
g27
(g31
S'\xc2\x03\xc9E\xb8\xf5\xce?'
p9697
tp9698
Rp9699
sg1956
g27
(g31
S'\xb7\xe18\x1cr\xda\xdc\xbf'
p9700
tp9701
Rp9702
sg1972
g27
(g31
S'J\x9c\xf6\xb3v\x1b\xd9?'
p9703
tp9704
Rp9705
sF0.5
Ntp9706
bI01
NF-inf
Finf
NNNg9689
Ntp9707
bag6
(g7
g8
Ntp9708
Rp9709
(g1953
g6
(g7
g8
Ntp9710
Rp9711
(g1956
g27
(g31
S' c\xba4bj7@'
p9712
tp9713
Rp9714
I01
NI7
I28
Ng27
(g31
S'\xfb\xe6\xde\x0f\xa1\x86\xf8?'
p9715
tp9716
Rp9717
(dp9718
g1964
g27
(g31
S'\xc5\xea\xdd\x1d\xf8\x1f\xd6\xbf'
p9719
tp9720
Rp9721
sg1968
g27
(g31
S'\xb8\xe18\x1cr\xda\xdc\xbf'
p9722
tp9723
Rp9724
sg1972
g27
(g31
S'\x822\r\xe5y\xf4\xd0?'
p9725
tp9726
Rp9727
sI14
Ntp9728
bI01
NF-inf
Finf
NNNg9711
Ntp9729
bag6
(g7
g8
Ntp9730
Rp9731
(g1354
g6
(g7
g8
Ntp9732
Rp9733
(g1357
I102960
I00
NF-inf
Finf
NI0
NI102960
Ntp9734
bI00
NF-inf
Finf
NNNg9733
Ntp9735
bag6
(g7
g8
Ntp9736
Rp9737
(g385
g6
(g7
g8
Ntp9738
Rp9739
(g364
g27
(g31
S'\x80\xb7\x1e\xa0\xe3\x13\xa3?'
p9740
tp9741
Rp9742
I01
NI0
I1
Ng27
(g31
S'\x90\x1dgE\x11\xf0D?'
p9743
tp9744
Rp9745
(dp9746
g356
g27
(g31
S'\xdf\xae\xfa<\xd9\xd5\xe6\xbf'
p9747
tp9748
Rp9749
sF0.5
Ntp9750
bI01
NF-inf
Finf
NNNg9739
Ntp9751
bag6
(g7
g8
Ntp9752
Rp9753
(g353
g6
(g7
g8
Ntp9754
Rp9755
(g356
g27
(g31
S'\x88\x9f\xbe\xae\x88"9@'
p9756
tp9757
Rp9758
I01
NI7
I28
Ng27
(g31
S'%\xdf\xd9\xfd\x91]\xe5?'
p9759
tp9760
Rp9761
(dp9762
g364
g27
(g31
S'\xdf\xae\xfa<\xd9\xd5\xe6\xbf'
p9763
tp9764
Rp9765
sI14
Ntp9766
bI01
NF-inf
Finf
NNNg9755
Ntp9767
bag6
(g7
g8
Ntp9768
Rp9769
(g774
g6
(g7
g8
Ntp9770
Rp9771
(g777
I103026
I00
NF-inf
Finf
NI0
NI103026
Ntp9772
bI00
NF-inf
Finf
NNNg9771
Ntp9773
bag6
(g7
g8
Ntp9774
Rp9775
(g4279
g6
(g7
g8
Ntp9776
Rp9777
(g2883
g27
(g31
S'\xb0\x83\xac\xc1 \xa6\x90?'
p9778
tp9779
Rp9780
I01
NI0
I1
Ng27
(g31
S';\x17O\x93;\xa9@?'
p9781
tp9782
Rp9783
(dp9784
g2875
g27
(g31
S'\xa5\xef\x191\x98\xd4\xe6\xbf'
p9785
tp9786
Rp9787
sF0.5
Ntp9788
bI01
NF-inf
Finf
NNNg9777
Ntp9789
bag6
(g7
g8
Ntp9790
Rp9791
(g2872
g6
(g7
g8
Ntp9792
Rp9793
(g2875
g27
(g31
S"\x1e\xc7'c\xdd\xd58@"
p9794
tp9795
Rp9796
I01
NI7
I28
Ng27
(g31
S'\xa9?\xdd\xf9\xdc3\xf3?'
p9797
tp9798
Rp9799
(dp9800
g2883
g27
(g31
S'\xa5\xef\x191\x98\xd4\xe6\xbf'
p9801
tp9802
Rp9803
sI14
Ntp9804
bI01
NF-inf
Finf
NNNg9793
Ntp9805
bag6
(g7
g8
Ntp9806
Rp9807
(g3676
g6
(g7
g8
Ntp9808
Rp9809
(g3679
I106813
I00
NF-inf
Finf
NI0
NI106813
Ntp9810
bI00
NF-inf
Finf
NNNg9809
Ntp9811
basb.