clmfit.parameter
Parameters
p0
(tRp1
(dp2
S'unique_symbols'
p3
(dp4
S'A360176'
p5
ccopy_reg
_reconstructor
p6
(clmfit.parameter
Parameter
p7
cdill._dill
_load_type
p8
(S'ObjectType'
p9
tp10
Rp11
Ntp12
Rp13
(S'A360176'
p14
cnumpy.core.multiarray
scalar
p15
(cnumpy
dtype
p16
(S'f8'
p17
I0
I1
tp18
Rp19
(I3
S'<'
p20
NNNI-1
I-1
I0
tp21
bS'\x00\xaf\x81\xf9\xab\x9f`?'
p22
tp23
Rp24
I00
NI0
I1
NNNg24
Ntp25
bsS'A346809'
p26
g6
(g7
g11
Ntp27
Rp28
(S'A346809'
p29
g15
(g19
S'\xb8\x7f\x19\xa8\xeb\xd7\xad?'
p30
tp31
Rp32
I01
NI0
I1
NNNg15
(g19
S'9\xc9{\x07\xba=\xac?'
p33
tp34
Rp35
Ntp36
bsS'mu353479'
p37
g6
(g7
g11
Ntp38
Rp39
(S'mu353479'
p40
g15
(g19
S'\x91gP}\x1b\x93\x15A'
p41
tp42
Rp43
I01
Ng15
(g16
(S'i8'
p44
I0
I1
tp45
Rp46
(I3
S'<'
p47
NNNI-1
I-1
I0
tp48
bS'\xc1d\x05\x00\x00\x00\x00\x00'
p49
tp50
Rp51
g15
(g46
S'\xcdd\x05\x00\x00\x00\x00\x00'
p52
tp53
Rp54
NNNg15
(g46
S'\xc7d\x05\x00\x00\x00\x00\x00'
p55
tp56
Rp57
Ntp58
bsS'NAN'
p59
Fnan
sS'A373036'
p60
g6
(g7
g11
Ntp61
Rp62
(S'A373036'
p63
g15
(g19
S'0-\xcf\xcbK\xf3\x95?'
p64
tp65
Rp66
I00
NI0
I1
NNNg66
Ntp67
bsS'std400461'
p68
g6
(g7
g11
Ntp69
Rp70
(S'std400461'
p71
g15
(g19
S'\xa4Q\x99v4\x00J@'
p72
tp73
Rp74
I00
NI26
I156
NNNg74
Ntp75
bsS'std346809'
p76
g6
(g7
g11
Ntp77
Rp78
(S'std346809'
p79
g15
(g19
S'\xae\xd9\xad\xdf\xf9\x1bV@'
p80
tp81
Rp82
I01
NI26
I156
NNNI52
Ntp83
bsS'A360871'
p84
g6
(g7
g11
Ntp85
Rp86
(S'A360871'
p87
g15
(g19
S'\x00\xd0vzW\x12\x8a?'
p88
tp89
Rp90
I01
NI0
I1
NNNg15
(g19
S'\xc0\x8e\xb3z\xbc\xf5\x8a?'
p91
tp92
Rp93
Ntp94
bsS'std269936'
p95
g6
(g7
g11
Ntp96
Rp97
(S'std269936'
p98
g15
(g19
S'\xde\x1f\x1e\x8d\x83\x0eK@'
p99
tp100
Rp101
I01
NI26
I156
NNNg15
(g19
S'\xdb\xc1\xadR@\xd7S@'
p102
tp103
Rp104
Ntp105
bsS'mu320360'
p106
g6
(g7
g11
Ntp107
Rp108
(S'mu320360'
p109
g15
(g19
S'\xd2\xe5\xff\xff\xb7\x8d\x13A'
p110
tp111
Rp112
I00
Ng15
(g46
S'b\xe3\x04\x00\x00\x00\x00\x00'
p113
tp114
Rp115
g15
(g46
S'n\xe3\x04\x00\x00\x00\x00\x00'
p116
tp117
Rp118
NNNg112
Ntp119
bsS'mu320156'
p120
g6
(g7
g11
Ntp121
Rp122
(S'mu320156'
p123
g15
(g19
S'\xb4\xff\xff\xff\x87\x8a\x13A'
p124
tp125
Rp126
I00
Ng15
(g46
S'\x96\xe2\x04\x00\x00\x00\x00\x00'
p127
tp128
Rp129
g15
(g46
S'\xa2\xe2\x04\x00\x00\x00\x00\x00'
p130
tp131
Rp132
NNNg126
Ntp133
bsS'mu270055'
p134
g6
(g7
g11
Ntp135
Rp136
(S'mu270055'
p137
g15
(g19
S'\xa1\x1c0\x1b\xb3{\x10A'
p138
tp139
Rp140
I01
Ng15
(g46
S'\xe1\x1e\x04\x00\x00\x00\x00\x00'
p141
tp142
Rp143
g15
(g46
S'\xed\x1e\x04\x00\x00\x00\x00\x00'
p144
tp145
Rp146
NNNg15
(g46
S'\xe7\x1e\x04\x00\x00\x00\x00\x00'
p147
tp148
Rp149
Ntp150
bsS'mu290063'
p151
g6
(g7
g11
Ntp152
Rp153
(S'mu290063'
p154
g15
(g19
S'\x02\x00\x00\x00$\xb4\x11A'
p155
tp156
Rp157
I00
Ng15
(g46
S'\tm\x04\x00\x00\x00\x00\x00'
p158
tp159
Rp160
g15
(g46
S'\x15m\x04\x00\x00\x00\x00\x00'
p161
tp162
Rp163
NNNg157
Ntp164
bsS'A358399'
p165
g6
(g7
g11
Ntp166
Rp167
(S'A358399'
p168
g15
(g19
S'\x00\xdd\xa4;\xa0V\x98?'
p169
tp170
Rp171
I00
NI0
I1
NNNg171
Ntp172
bsS'mu271350'
p173
g6
(g7
g11
Ntp174
Rp175
(S'mu271350'
p176
g15
(g19
S'\x11AR\xff\xef\x8f\x10A'
p177
tp178
Rp179
I00
Ng15
(g46
S'\xf0#\x04\x00\x00\x00\x00\x00'
p180
tp181
Rp182
g15
(g46
S'\xfc#\x04\x00\x00\x00\x00\x00'
p183
tp184
Rp185
NNNg179
Ntp186
bsS'std380416'
p187
g6
(g7
g11
Ntp188
Rp189
(S'std380416'
p190
g15
(g19
S'\xe3\xe1\x8f\x1aC\xacR@'
p191
tp192
Rp193
I00
NI26
I156
NNNg193
Ntp194
bsS'std232591'
p195
g6
(g7
g11
Ntp196
Rp197
(S'std232591'
p198
g15
(g19
S'(\xca\x86M\x0egQ@'
p199
tp200
Rp201
I01
NI26
I156
NNNI52
Ntp202
bsS'std375605'
p203
g6
(g7
g11
Ntp204
Rp205
(S'std375605'
p206
g15
(g19
S'\x11EB\x01\xa5bc@'
p207
tp208
Rp209
I01
NI26
I156
NNNg15
(g19
S'99Y\xfe\xff\x7fc@'
p210
tp211
Rp212
Ntp213
bsS'std287492'
p214
g6
(g7
g11
Ntp215
Rp216
(S'std287492'
p217
g15
(g19
S'pS\x86\x08k\xe8U@'
p218
tp219
Rp220
I00
NI26
I156
NNNg220
Ntp221
bsS'A396258'
p222
g6
(g7
g11
Ntp223
Rp224
(S'A396258'
p225
g15
(g19
S'\x0e\xb4\x85\x14\xa5\xf4\xc4?'
p226
tp227
Rp228
I00
NI0
I1
NNNg228
Ntp229
bsS'mu361085'
p230
g6
(g7
g11
Ntp231
Rp232
(S'mu361085'
p233
g15
(g19
S"\xfen'\xfb\xfe\t\x16A"
p234
tp235
Rp236
I01
Ng15
(g46
S'w\x82\x05\x00\x00\x00\x00\x00'
p237
tp238
Rp239
g15
(g46
S'\x83\x82\x05\x00\x00\x00\x00\x00'
p240
tp241
Rp242
NNNg15
(g46
S'}\x82\x05\x00\x00\x00\x00\x00'
p243
tp244
Rp245
Ntp246
bsS'A397353'
p247
g6
(g7
g11
Ntp248
Rp249
(S'A397353'
p250
g15
(g19
S'\xc0\x7f\x130\xde1\x7f?'
p251
tp252
Rp253
I00
NI0
I1
NNNg253
Ntp254
bsS'std287714'
p255
g6
(g7
g11
Ntp256
Rp257
(S'std287714'
p258
g15
(g19
S'\x84\xc6\xff\xb3@\xabT@'
p259
tp260
Rp261
I00
NI26
I156
NNNg261
Ntp262
bsS'A420833'
p263
g6
(g7
g11
Ntp264
Rp265
(S'A420833'
p266
g15
(g19
S'\x00Pi\xbd\xbeso?'
p267
tp268
Rp269
I01
NI0
I1
Ng15
(g19
S'\xb0\xfd\x1b\x02\xb0t\xd7?'
p270
tp271
Rp272
(dp273
S'vregion15'
p274
g15
(g19
S'\x7f\x01\xadu5\xc5S?'
p275
tp276
Rp277
sS'mu420833'
p278
g15
(g19
S'\xf7)\x1b\xbf\xa2\x8a\xb7?'
p279
tp280
Rp281
sS'std420833'
p282
g15
(g19
S'\x87\x1d\xf4M\x97\\\xea\xbf'
p283
tp284
Rp285
sg15
(g19
S'\xcb\xff\\\xe21\xdch?'
p286
tp287
Rp288
Ntp289
bsS'std319879'
p290
g6
(g7
g11
Ntp291
Rp292
(S'std319879'
p293
g15
(g19
S'd{K\x8f\xad\x7fc@'
p294
tp295
Rp296
I00
NI26
I156
NNNg296
Ntp297
bsS'mu397353'
p298
g6
(g7
g11
Ntp299
Rp300
(S'mu397353'
p301
g15
(g19
S'q\x8d.\x00\x8c@\x18A'
p302
tp303
Rp304
I00
Ng15
(g46
S'#\x10\x06\x00\x00\x00\x00\x00'
p305
tp306
Rp307
g15
(g46
S'/\x10\x06\x00\x00\x00\x00\x00'
p308
tp309
Rp310
NNNg304
Ntp311
bsS'A420368'
p312
g6
(g7
g11
Ntp313
Rp314
(S'A420368'
p315
g15
(g19
S'@\x92kR\r3v?'
p316
tp317
Rp318
I00
NI0
I1
NI0
Ng318
Ntp319
bsS'A418372'
p320
g6
(g7
g11
Ntp321
Rp322
(S'A418372'
p323
g15
(g19
S'\xf0\x8cNP\xf5\n\xa5?'
p324
tp325
Rp326
I00
NI0
I1
NI0
Ng326
Ntp327
bsS'std359457'
p328
g6
(g7
g11
Ntp329
Rp330
(S'std359457'
p331
g15
(g19
S'\xe2\x11s\xcd6\x8dO@'
p332
tp333
Rp334
I00
NI26
I156
NNNg334
Ntp335
bsS'std420833'
p336
g6
(g7
g11
Ntp337
Rp338
(g282
g15
(g19
S'\x1e6\x86S\\,S@'
p339
tp340
Rp341
I01
NI26
I156
Ng15
(g19
S':\x1d\x0e\xc1\t\x92\xb3@'
p342
tp343
Rp344
(dp345
g274
g15
(g19
S'@\t\xd5\xe61,`\xbf'
p346
tp347
Rp348
sg278
g15
(g19
S'\xa9\xea\x85P\xec\xb3\xcd?'
p349
tp350
Rp351
sg266
g15
(g19
S'\x87\x1d\xf4M\x97\\\xea\xbf'
p352
tp353
Rp354
sI52
Ntp355
bsS'mu373705'
p356
g6
(g7
g11
Ntp357
Rp358
(S'mu373705'
p359
g15
(g19
S'\x05\x8f\xc6\x180\xcf\x16A'
p360
tp361
Rp362
I00
Ng15
(g46
S'\xc3\xb3\x05\x00\x00\x00\x00\x00'
p363
tp364
Rp365
g15
(g46
S'\xcf\xb3\x05\x00\x00\x00\x00\x00'
p366
tp367
Rp368
NNNg362
Ntp369
bsS'mu419866'
p370
g6
(g7
g11
Ntp371
Rp372
(S'mu419866'
p373
g15
(g19
S'\xabT\xf2\x02P\xa0\x19A'
p374
tp375
Rp376
I00
Ng15
(g46
S'\x14h\x06\x00\x00\x00\x00\x00'
p377
tp378
Rp379
g15
(g46
S' h\x06\x00\x00\x00\x00\x00'
p380
tp381
Rp382
NI0
Ng376
Ntp383
bsS'A391918'
p384
g6
(g7
g11
Ntp385
Rp386
(S'A391918'
p387
g15
(g19
S'\x00QI%\xb9\xb7^?'
p388
tp389
Rp390
I01
NI0
I1
NNNg15
(g19
S'~\xe9\xf4.\xc6\xb7^?'
p391
tp392
Rp393
Ntp394
bsS'std390641'
p395
g6
(g7
g11
Ntp396
Rp397
(S'std390641'
p398
g15
(g19
S'\xd6]\xee\xff\xff\x7fc@'
p399
tp400
Rp401
I00
NI26
I156
NNNg401
Ntp402
bsS'A319482'
p403
g6
(g7
g11
Ntp404
Rp405
(S'A319482'
p406
g15
(g19
S' \xaa\xc3\xff$\xf9\x8a?'
p407
tp408
Rp409
I01
NI0
I1
NNNg15
(g19
S'\xb5\xeb\xd0Q\xd3e\x90?'
p410
tp411
Rp412
Ntp413
bsS'mu288940'
p414
g6
(g7
g11
Ntp415
Rp416
(S'mu288940'
p417
g15
(g19
S'\xb4\x07\x00\x00\x98\xa2\x11A'
p418
tp419
Rp420
I01
Ng15
(g46
S'\xa6h\x04\x00\x00\x00\x00\x00'
p421
tp422
Rp423
g15
(g46
S'\xb2h\x04\x00\x00\x00\x00\x00'
p424
tp425
Rp426
NNNg15
(g19
S'\xb4\x07\x00\x00\x98\xa2\x11A'
p427
tp428
Rp429
Ntp430
bsS'A372591'
p431
g6
(g7
g11
Ntp432
Rp433
(S'A372591'
p434
g15
(g19
S'\xc0\x8cU\x1a\xd2B~?'
p435
tp436
Rp437
I00
NI0
I1
NNNg437
Ntp438
bsS'mu11'
p439
g6
(g7
g11
Ntp440
Rp441
(S'mu11'
p442
g15
(g19
S'1\x99\xf4\xac\xd4\xff0@'
p443
tp444
Rp445
I01
Ng15
(g46
S'\x05\x00\x00\x00\x00\x00\x00\x00'
p446
tp447
Rp448
g15
(g46
S'\x11\x00\x00\x00\x00\x00\x00\x00'
p449
tp450
Rp451
NNNg15
(g46
S'\x0b\x00\x00\x00\x00\x00\x00\x00'
p452
tp453
Rp454
Ntp455
bsS'infty'
p456
Finf
sS'A319000'
p457
g6
(g7
g11
Ntp458
Rp459
(S'A319000'
p460
g15
(g19
S'\xa0\xa4\xf9\xc3\x1f\xe4\x85?'
p461
tp462
Rp463
I00
NI0
I1
NNNg463
Ntp464
bsS'mu373266'
p465
g6
(g7
g11
Ntp466
Rp467
(S'mu373266'
p468
g15
(g19
S'\xb0\xc8\r\x000\xc8\x16A'
p469
tp470
Rp471
I00
Ng15
(g46
S'\x0c\xb2\x05\x00\x00\x00\x00\x00'
p472
tp473
Rp474
g15
(g46
S'\x18\xb2\x05\x00\x00\x00\x00\x00'
p475
tp476
Rp477
NNNg471
Ntp478
bsS'std358510'
p479
g6
(g7
g11
Ntp480
Rp481
(S'std358510'
p482
g15
(g19
S'\x02\xfa\xff\xff\xff\x7fc@'
p483
tp484
Rp485
I00
NI26
I156
NNNg485
Ntp486
bsS'A353627'
p487
g6
(g7
g11
Ntp488
Rp489
(S'A353627'
p490
g15
(g19
S'\x00\xed6\x1eW\xe9f?'
p491
tp492
Rp493
I01
NI0
I1
NNNg15
(g19
S'\x00\xe8\xdd\x86q\xf8f?'
p494
tp495
Rp496
Ntp497
bsS'mu369714'
p498
g6
(g7
g11
Ntp499
Rp500
(S'mu369714'
p501
g15
(g19
S'\xef\xff\xff\xff\xdf\x90\x16A'
p502
tp503
Rp504
I01
Ng15
(g46
S',\xa4\x05\x00\x00\x00\x00\x00'
p505
tp506
Rp507
g15
(g46
S'8\xa4\x05\x00\x00\x00\x00\x00'
p508
tp509
Rp510
NNNg15
(g46
S'2\xa4\x05\x00\x00\x00\x00\x00'
p511
tp512
Rp513
Ntp514
bsS'std319482'
p515
g6
(g7
g11
Ntp516
Rp517
(S'std319482'
p518
g15
(g19
S'\xcd\xac\xb9\x94\x0e4V@'
p519
tp520
Rp521
I01
NI26
I156
NNNI52
Ntp522
bsS'std360871'
p523
g6
(g7
g11
Ntp524
Rp525
(S'std360871'
p526
g15
(g19
S'\x00\x00\x00\x00\x00\x80c@'
p527
tp528
Rp529
I01
NI26
I156
NNNg15
(g19
S'\x00\x00\x00\x00\x00\x80c@'
p530
tp531
Rp532
Ntp533
bsS'mu389929'
p534
g6
(g7
g11
Ntp535
Rp536
(S'mu389929'
p537
g15
(g19
S'p\x19\x00\x00\x8c\xcc\x17A'
p538
tp539
Rp540
I00
Ng15
(g46
S'#\xf3\x05\x00\x00\x00\x00\x00'
p541
tp542
Rp543
g15
(g46
S'/\xf3\x05\x00\x00\x00\x00\x00'
p544
tp545
Rp546
NNNg540
Ntp547
bsS'std290063'
p548
g6
(g7
g11
Ntp549
Rp550
(S'std290063'
p551
g15
(g19
S'#YI\xed\xff\x7fc@'
p552
tp553
Rp554
I00
NI26
I156
NNNg554
Ntp555
bsS'A347872'
p556
g6
(g7
g11
Ntp557
Rp558
(S'A347872'
p559
g15
(g19
S'\xd0\x9aQ\xfd\x9e\xcb\xac?'
p560
tp561
Rp562
I00
NI0
I1
NNNg562
Ntp563
bsS'std360977'
p564
g6
(g7
g11
Ntp565
Rp566
(S'std360977'
p567
g15
(g19
S'\xf6W\xa2g\x02\x82\\@'
p568
tp569
Rp570
I01
NI26
I156
NNNg15
(g19
S'z\xa0\x9f\xf5\xf0\x1cZ@'
p571
tp572
Rp573
Ntp574
bsS'A417647'
p575
g6
(g7
g11
Ntp576
Rp577
(S'A417647'
p578
g15
(g19
S'\xc0\xceN\xea\x99\xce\x8a?'
p579
tp580
Rp581
I00
NI0
I1
NI0
Ng581
Ntp582
bsS'std288940'
p583
g6
(g7
g11
Ntp584
Rp585
(S'std288940'
p586
g15
(g19
S'\x93\x1f\x96\xb0\xdd\x7fc@'
p587
tp588
Rp589
I01
NI26
I156
NNNg15
(g19
S'\x00\x00\x00\x00\x00\x80c@'
p590
tp591
Rp592
Ntp593
bsS'A270055'
p594
g6
(g7
g11
Ntp595
Rp596
(S'A270055'
p597
g15
(g19
S'@\x82, \xdb\xfat?'
p598
tp599
Rp600
I01
NI0
I1
NNNg15
(g19
S'\x87\xfd\x8e]\xee\x93\x85?'
p601
tp602
Rp603
Ntp604
bsS'mu271181'
p605
g6
(g7
g11
Ntp606
Rp607
(S'mu271181'
p608
g15
(g19
S'x\x02\x00\x00\x1c\x8d\x10A'
p609
tp610
Rp611
I00
Ng15
(g46
S'G#\x04\x00\x00\x00\x00\x00'
p612
tp613
Rp614
g15
(g46
S'S#\x04\x00\x00\x00\x00\x00'
p615
tp616
Rp617
NNNg611
Ntp618
bsS'A287714'
p619
g6
(g7
g11
Ntp620
Rp621
(S'A287714'
p622
g15
(g19
S'@\xd8/\xbb\x84@\x83?'
p623
tp624
Rp625
I00
NI0
I1
NNNg625
Ntp626
bsS'std400174'
p627
g6
(g7
g11
Ntp628
Rp629
(S'std400174'
p630
g15
(g19
S'\x00\x00\x00\x00\x00\x80c@'
p631
tp632
Rp633
I01
NI26
I156
NNNg15
(g19
S'M\x80^jW\xa5b@'
p634
tp635
Rp636
Ntp637
bsS'A381366'
p638
g6
(g7
g11
Ntp639
Rp640
(S'A381366'
p641
g15
(g19
S'\x88\xc5\xe4\x01\xc5\xf5\xa1?'
p642
tp643
Rp644
I00
NI0
I1
NNNg644
Ntp645
bsS'std396484'
p646
g6
(g7
g11
Ntp647
Rp648
(S'std396484'
p649
g15
(g19
S'\x00V\xa7\x08\x9a\xcdW@'
p650
tp651
Rp652
I00
NI26
I156
NNNg652
Ntp653
bsS'A290286'
p654
g6
(g7
g11
Ntp655
Rp656
(S'A290286'
p657
g15
(g19
S'\xc0)c\x8b\xe6\xa0r?'
p658
tp659
Rp660
I00
NI0
I1
NNNg660
Ntp661
bsS'std319680'
p662
g6
(g7
g11
Ntp663
Rp664
(S'std319680'
p665
g15
(g19
S'\xaa\x8a\xe0\xb9\xa0\x05a@'
p666
tp667
Rp668
I01
NI26
I156
NNNg15
(g19
S',\x0f\xa9\xf1\xff\x7fc@'
p669
tp670
Rp671
Ntp672
bsS'False'
p673
I00
sS'std370262'
p674
g6
(g7
g11
Ntp675
Rp676
(S'std370262'
p677
g15
(g19
S'\x07j\xfd\xc3\xff\x7fc@'
p678
tp679
Rp680
I00
NI26
I156
NNNg680
Ntp681
bsS'A270141'
p682
g6
(g7
g11
Ntp683
Rp684
(S'A270141'
p685
g15
(g19
S'@\x1e2\xa3\xc1\xbf|?'
p686
tp687
Rp688
I01
NI0
I1
NNNg15
(g19
S'\x00\xdaa\xc3\x84\xf2\x86?'
p689
tp690
Rp691
Ntp692
bsS'mu418743'
p693
g6
(g7
g11
Ntp694
Rp695
(S'mu418743'
p696
g15
(g19
S'i\x08\xec\xff\xdb\x8e\x19A'
p697
tp698
Rp699
I00
Ng15
(g46
S'\xb1c\x06\x00\x00\x00\x00\x00'
p700
tp701
Rp702
g15
(g46
S'\xbdc\x06\x00\x00\x00\x00\x00'
p703
tp704
Rp705
NI0
Ng699
Ntp706
bsS'A271181'
p707
g6
(g7
g11
Ntp708
Rp709
(S'A271181'
p710
g15
(g19
S'\xc0\xd5y\xf5\xfa=\x89?'
p711
tp712
Rp713
I00
NI0
I1
NNNg713
Ntp714
bsS'mu420368'
p715
g6
(g7
g11
Ntp716
Rp717
(S'mu420368'
p718
g15
(g19
S'\xcf\xb0\xb8\xd34\xa8\x19A'
p719
tp720
Rp721
I00
Ng15
(g46
S'\nj\x06\x00\x00\x00\x00\x00'
p722
tp723
Rp724
g15
(g46
S'\x16j\x06\x00\x00\x00\x00\x00'
p725
tp726
Rp727
NI0
Ng721
Ntp728
bsS'A373483'
p729
g6
(g7
g11
Ntp730
Rp731
(S'A373483'
p732
g15
(g19
S"@\x0e\xac\xc96'\x9d?"
p733
tp734
Rp735
I00
NI0
I1
NNNg735
Ntp736
bsS'std360176'
p737
g6
(g7
g11
Ntp738
Rp739
(S'std360176'
p740
g15
(g19
S'\xff\xff\xff\xff\xff\x7fc@'
p741
tp742
Rp743
I00
NI26
I156
NNNg743
Ntp744
bsS'A270807'
p745
g6
(g7
g11
Ntp746
Rp747
(S'A270807'
p748
g15
(g19
S'@\xb5\xf8^\xc2\xb0\x83?'
p749
tp750
Rp751
I00
NI0
I1
NNNg751
Ntp752
bsS'A374915'
p753
g6
(g7
g11
Ntp754
Rp755
(S'A374915'
p756
g15
(g19
S'@\xd1\x16\x0e\xb8\xa1\x85?'
p757
tp758
Rp759
I00
NI0
I1
NNNg759
Ntp760
bsS'mu288835'
p761
g6
(g7
g11
Ntp762
Rp763
(S'mu288835'
p764
g15
(g19
S'\x84\xcd\xcc\xff#\xa1\x11A'
p765
tp766
Rp767
I01
Ng15
(g46
S'=h\x04\x00\x00\x00\x00\x00'
p768
tp769
Rp770
g15
(g46
S'Ih\x04\x00\x00\x00\x00\x00'
p771
tp772
Rp773
NNNg15
(g46
S'Ch\x04\x00\x00\x00\x00\x00'
p774
tp775
Rp776
Ntp777
bsS'std347872'
p778
g6
(g7
g11
Ntp779
Rp780
(S'std347872'
p781
g15
(g19
S'\xaf6\x82\x1a\xf9\x7fc@'
p782
tp783
Rp784
I00
NI26
I156
NNNg784
Ntp785
bsS'std375404'
p786
g6
(g7
g11
Ntp787
Rp788
(S'std375404'
p789
g15
(g19
S'x\xf0&2\x1e\x08a@'
p790
tp791
Rp792
I01
NI26
I156
NNNI52
Ntp793
bsS'std287621'
p794
g6
(g7
g11
Ntp795
Rp796
(S'std287621'
p797
g15
(g19
S'N!\x08\xc6E"c@'
p798
tp799
Rp800
I00
NI26
I156
NNNg800
Ntp801
bsS'A320156'
p802
g6
(g7
g11
Ntp803
Rp804
(S'A320156'
p805
g15
(g19
S' W/j \x15\x89?'
p806
tp807
Rp808
I00
NI0
I1
NNNg808
Ntp809
bsS'A270603'
p810
g6
(g7
g11
Ntp811
Rp812
(S'A270603'
p813
g15
(g19
S'\x00\xdf\x97\xfa\xd8\x83\x8a?'
p814
tp815
Rp816
I00
NI0
I1
NNNg816
Ntp817
bsS'A380416'
p818
g6
(g7
g11
Ntp819
Rp820
(S'A380416'
p821
g15
(g19
S'\xb0x\xbe\xc8\xc5\\\x91?'
p822
tp823
Rp824
I00
NI0
I1
NNNg824
Ntp825
bsS'A374628'
p826
g6
(g7
g11
Ntp827
Rp828
(S'A374628'
p829
g15
(g19
S'\x90\xc0\xaf\xd0\x11v\x93?'
p830
tp831
Rp832
I00
NI0
I1
NNNg832
Ntp833
bsS'std320156'
p834
g6
(g7
g11
Ntp835
Rp836
(S'std320156'
p837
g15
(g19
S'T\xdb\xfd\xff\xff\x7fc@'
p838
tp839
Rp840
I00
NI26
I156
NNNg840
Ntp841
bsS'A395520'
p842
g6
(g7
g11
Ntp843
Rp844
(S'A395520'
p845
g15
(g19
S'\xb4\xf0\x95\xab*f\xb4?'
p846
tp847
Rp848
I00
NI0
I1
NNNg848
Ntp849
bsS'mu374915'
p850
g6
(g7
g11
Ntp851
Rp852
(S'mu374915'
p853
g15
(g19
S'\xbe0\xb0\xc6\xfc\xe1\x16A'
p854
tp855
Rp856
I00
Ng15
(g46
S'}\xb8\x05\x00\x00\x00\x00\x00'
p857
tp858
Rp859
g15
(g46
S'\x89\xb8\x05\x00\x00\x00\x00\x00'
p860
tp861
Rp862
NNNg856
Ntp863
bsS'A389929'
p864
g6
(g7
g11
Ntp865
Rp866
(S'A389929'
p867
g15
(g19
S'\x80\xf8\x03\xf4\x93=t?'
p868
tp869
Rp870
I00
NI0
I1
NNNg870
Ntp871
bsS'mu347872'
p872
g6
(g7
g11
Ntp873
Rp874
(S'mu347872'
p875
g15
(g19
S'\xd7\x11ub\x81;\x15A'
p876
tp877
Rp878
I00
Ng15
(g46
S'\xdaN\x05\x00\x00\x00\x00\x00'
p879
tp880
Rp881
g15
(g46
S'\xe6N\x05\x00\x00\x00\x00\x00'
p882
tp883
Rp884
NNNg878
Ntp885
bsS'mu368816'
p886
g6
(g7
g11
Ntp887
Rp888
(S'mu368816'
p889
g15
(g19
S'\x06u\xa0\xcd\xd6\x82\x16A'
p890
tp891
Rp892
I00
Ng15
(g46
S'\xaa\xa0\x05\x00\x00\x00\x00\x00'
p893
tp894
Rp895
g15
(g46
S'\xb6\xa0\x05\x00\x00\x00\x00\x00'
p896
tp897
Rp898
NNNg892
Ntp899
bsS'A269018'
p900
g6
(g7
g11
Ntp901
Rp902
(S'A269018'
p903
g15
(g19
S'\x80\x16(WHmv?'
p904
tp905
Rp906
I00
NI0
I1
NNNg906
Ntp907
bsS'std391918'
p908
g6
(g7
g11
Ntp909
Rp910
(S'std391918'
p911
g15
(g19
S'\x1d{\x91\xc4\xfe\xffI@'
p912
tp913
Rp914
I01
NI26
I156
NNNI52
Ntp915
bsS'std380892'
p916
g6
(g7
g11
Ntp917
Rp918
(S'std380892'
p919
g15
(g19
S'\x8e~\xff\xff\xff\x7fc@'
p920
tp921
Rp922
I00
NI26
I156
NNNg922
Ntp923
bsS'std320360'
p924
g6
(g7
g11
Ntp925
Rp926
(S'std320360'
p927
g15
(g19
S'\xe8P\xe3nzwc@'
p928
tp929
Rp930
I00
NI26
I156
NNNg930
Ntp931
bsS'std11'
p932
g6
(g7
g11
Ntp933
Rp934
(S'std11'
p935
g15
(g19
S'\xfe\xff\xff\xff\xff\x7fc@'
p936
tp937
Rp938
I01
NI26
I156
NNNI52
Ntp939
bsS'A374162'
p940
g6
(g7
g11
Ntp941
Rp942
(S'A374162'
p943
g15
(g19
S'\x00\xdc\xfa\x81j\x9f\x9f?'
p944
tp945
Rp946
I00
NI0
I1
NNNg946
Ntp947
bsS'std269018'
p948
g6
(g7
g11
Ntp949
Rp950
(S'std269018'
p951
g15
(g19
S'\xc5\xfbe\x8c\x0b\xab^@'
p952
tp953
Rp954
I00
NI26
I156
NNNg954
Ntp955
bsS'mu360599'
p956
g6
(g7
g11
Ntp957
Rp958
(S'mu360599'
p959
g15
(g19
S'\xd1\xf2\xff\xffs\x02\x16A'
p960
tp961
Rp962
I00
Ng15
(g46
S'\x91\x80\x05\x00\x00\x00\x00\x00'
p963
tp964
Rp965
g15
(g46
S'\x9d\x80\x05\x00\x00\x00\x00\x00'
p966
tp967
Rp968
NNNg962
Ntp969
bsS'std290175'
p970
g6
(g7
g11
Ntp971
Rp972
(S'std290175'
p973
g15
(g19
S' \xf0X\xfb\xff\x7fc@'
p974
tp975
Rp976
I00
NI26
I156
NNNg976
Ntp977
bsS'pi'
p978
F3.141592653589793
sS'mu270807'
p979
g6
(g7
g11
Ntp980
Rp981
(S'mu270807'
p982
g15
(g19
S'+\xe4\xdd\nW\x87\x10A'
p983
tp984
Rp985
I00
Ng15
(g46
S'\xd1!\x04\x00\x00\x00\x00\x00'
p986
tp987
Rp988
g15
(g46
S'\xdd!\x04\x00\x00\x00\x00\x00'
p989
tp990
Rp991
NNNg985
Ntp992
bsS'std360493'
p993
g6
(g7
g11
Ntp994
Rp995
(S'std360493'
p996
g15
(g19
S'\x00\x00\x00\x00\x00\x80c@'
p997
tp998
Rp999
I00
NI26
I156
NNNg999
Ntp1000
bsS'mu380892'
p1001
g6
(g7
g11
Ntp1002
Rp1003
(S'mu380892'
p1004
g15
(g19
S'\xa1\xf8\x169_?\x17A'
p1005
tp1006
Rp1007
I00
Ng15
(g46
S'\xd6\xcf\x05\x00\x00\x00\x00\x00'
p1008
tp1009
Rp1010
g15
(g46
S'\xe2\xcf\x05\x00\x00\x00\x00\x00'
p1011
tp1012
Rp1013
NNNg1007
Ntp1014
bsS'A400007'
p1015
g6
(g7
g11
Ntp1016
Rp1017
(S'A400007'
p1018
g15
(g19
S'\x00\x93\x02$\xe9dR?'
p1019
tp1020
Rp1021
I01
NI0
I1
NNNg15
(g19
S'\xef6_\xa3+4R?'
p1022
tp1023
Rp1024
Ntp1025
bsS'A269394'
p1026
g6
(g7
g11
Ntp1027
Rp1028
(S'A269394'
p1029
g15
(g19
S'@K\xd5LP\\z?'
p1030
tp1031
Rp1032
I00
NI0
I1
NNNg1032
Ntp1033
bsS'A396484'
p1034
g6
(g7
g11
Ntp1035
Rp1036
(S'A396484'
p1037
g15
(g19
S'\x18\xd3z\x06$\xf3\xb5?'
p1038
tp1039
Rp1040
I00
NI0
I1
NNNg1040
Ntp1041
bsS'std417647'
p1042
g6
(g7
g11
Ntp1043
Rp1044
(S'std417647'
p1045
g15
(g19
S'\xeb\x0c\xc0\xff\xff\x7fc@'
p1046
tp1047
Rp1048
I00
NI26
I156
NI0
Ng1048
Ntp1049
bsS'mu382315'
p1050
g6
(g7
g11
Ntp1051
Rp1052
(S'mu382315'
p1053
g15
(g19
S'\x87/\xabN\xafU\x17A'
p1054
tp1055
Rp1056
I00
Ng15
(g46
S'e\xd5\x05\x00\x00\x00\x00\x00'
p1057
tp1058
Rp1059
g15
(g46
S'q\xd5\x05\x00\x00\x00\x00\x00'
p1060
tp1061
Rp1062
NNNg1056
Ntp1063
bsS'mu419504'
p1064
g6
(g7
g11
Ntp1065
Rp1066
(S'mu419504'
p1067
g15
(g19
S')8\xfc\xff\xd7\x9a\x19A'
p1068
tp1069
Rp1070
I00
Ng15
(g46
S'\xaaf\x06\x00\x00\x00\x00\x00'
p1071
tp1072
Rp1073
g15
(g46
S'\xb6f\x06\x00\x00\x00\x00\x00'
p1074
tp1075
Rp1076
NI0
Ng1070
Ntp1077
bsS'mu287492'
p1078
g6
(g7
g11
Ntp1079
Rp1080
(S'mu287492'
p1081
g15
(g19
S"\xa3\x13\xe8\xff'\x8c\x11A"
p1082
tp1083
Rp1084
I00
Ng15
(g46
S'\xfeb\x04\x00\x00\x00\x00\x00'
p1085
tp1086
Rp1087
g15
(g46
S'\nc\x04\x00\x00\x00\x00\x00'
p1088
tp1089
Rp1090
NNNg1084
Ntp1091
bsS'std288835'
p1092
g6
(g7
g11
Ntp1093
Rp1094
(S'std288835'
p1095
g15
(g19
S'rR\xeek4y@@'
p1096
tp1097
Rp1098
I01
NI26
I156
NNNI52
Ntp1099
bsS'A391705'
p1100
g6
(g7
g11
Ntp1101
Rp1102
(S'A391705'
p1103
g15
(g19
S'\x80F\xee\xbe\xfbMe?'
p1104
tp1105
Rp1106
I01
NI0
I1
NNNg15
(g19
S'\x00lK\xe8\x04Ne?'
p1107
tp1108
Rp1109
Ntp1110
bsS'std374915'
p1111
g6
(g7
g11
Ntp1112
Rp1113
(S'std374915'
p1114
g15
(g19
S"\x98\x07'\xb8\x98`b@"
p1115
tp1116
Rp1117
I00
NI26
I156
NNNg1117
Ntp1118
bsS'A288835'
p1119
g6
(g7
g11
Ntp1120
Rp1121
(S'A288835'
p1122
g15
(g19
S'\x00gNw\x96Qi?'
p1123
tp1124
Rp1125
I01
NI0
I1
NNNg15
(g19
S'\xd3`\xdf\x96\x88\xb4\x8a?'
p1126
tp1127
Rp1128
Ntp1129
bsS'mu359457'
p1130
g6
(g7
g11
Ntp1131
Rp1132
(S'mu359457'
p1133
g15
(g19
S'\xb2\x11\r,{\xf0\x15A'
p1134
tp1135
Rp1136
I00
Ng15
(g46
S'\x1b|\x05\x00\x00\x00\x00\x00'
p1137
tp1138
Rp1139
g15
(g46
S"'|\x05\x00\x00\x00\x00\x00"
p1140
tp1141
Rp1142
NNNg1136
Ntp1143
bsS'A271722'
p1144
g6
(g7
g11
Ntp1145
Rp1146
(S'A271722'
p1147
g15
(g19
S'\xe0\\\x96\xbcK\x11\x85?'
p1148
tp1149
Rp1150
I00
NI0
I1
NNNg1150
Ntp1151
bsS'std288151'
p1152
g6
(g7
g11
Ntp1153
Rp1154
(S'std288151'
p1155
g15
(g19
S'n:\x9e\x8b\xfc\xb9`@'
p1156
tp1157
Rp1158
I00
NI26
I156
NNNg1158
Ntp1159
bsS'std372591'
p1160
g6
(g7
g11
Ntp1161
Rp1162
(S'std372591'
p1163
g15
(g19
S'*\x7f\xe2)\xdb\xf4Y@'
p1164
tp1165
Rp1166
I00
NI26
I156
NNNg1166
Ntp1167
bsS'vregion8'
p1168
g6
(g7
g11
Ntp1169
Rp1170
(S'vregion8'
p1171
g15
(g19
S',\xc9\x01\x00\x00\x00\xf0?'
p1172
tp1173
Rp1174
I01
NI1
Finf
NNNg15
(g19
S',\xc9\x01\x00\x00\x00\xf0?'
p1175
tp1176
Rp1177
Ntp1178
bsS'mu346809'
p1179
g6
(g7
g11
Ntp1180
Rp1181
(S'mu346809'
p1182
g15
(g19
S'\xceH\x98\xd5\xee*\x15A'
p1183
tp1184
Rp1185
I01
Ng15
(g46
S'\xb3J\x05\x00\x00\x00\x00\x00'
p1186
tp1187
Rp1188
g15
(g46
S'\xbfJ\x05\x00\x00\x00\x00\x00'
p1189
tp1190
Rp1191
NNNg15
(g46
S'\xb9J\x05\x00\x00\x00\x00\x00'
p1192
tp1193
Rp1194
Ntp1195
bsS'A382789'
p1196
g6
(g7
g11
Ntp1197
Rp1198
(S'A382789'
p1199
g15
(g19
S'\x80\xc1\x00_g\x9es?'
p1200
tp1201
Rp1202
I01
NI0
I1
NNNg15
(g19
S'\xce\xd0\x11\xe3Y\xb5o?'
p1203
tp1204
Rp1205
Ntp1206
bsS'std396001'
p1207
g6
(g7
g11
Ntp1208
Rp1209
(S'std396001'
p1210
g15
(g19
S'\x97\xb0\x8f\x017\xbaZ@'
p1211
tp1212
Rp1213
I00
NI26
I156
NNNg1213
Ntp1214
bsS'std373036'
p1215
g6
(g7
g11
Ntp1216
Rp1217
(S'std373036'
p1218
g15
(g19
S'\xfe\xbc\x18#4Qb@'
p1219
tp1220
Rp1221
I00
NI26
I156
NNNg1221
Ntp1222
bsS'True'
p1223
I01
sS'A288279'
p1224
g6
(g7
g11
Ntp1225
Rp1226
(S'A288279'
p1227
g15
(g19
S' \x15V\x85\xd5\x18\x9d?'
p1228
tp1229
Rp1230
I00
NI0
I1
NNNg1230
Ntp1231
bsS'mu269685'
p1232
g6
(g7
g11
Ntp1233
Rp1234
(S'mu269685'
p1235
g15
(g19
S'\xb2.\xed\xce\xd2u\x10A'
p1236
tp1237
Rp1238
I00
Ng15
(g46
S'o\x1d\x04\x00\x00\x00\x00\x00'
p1239
tp1240
Rp1241
g15
(g46
S'{\x1d\x04\x00\x00\x00\x00\x00'
p1242
tp1243
Rp1244
NNNg1238
Ntp1245
bsS'A398564'
p1246
g6
(g7
g11
Ntp1247
Rp1248
(S'A398564'
p1249
g15
(g19
S'\x80\xb3\x06\x90\xbflm?'
p1250
tp1251
Rp1252
I01
NI0
I1
NNNg15
(g19
S'@\x9e%\x90\xe4(\x10?'
p1253
tp1254
Rp1255
Ntp1256
bsS'mu369352'
p1257
g6
(g7
g11
Ntp1258
Rp1259
(S'mu369352'
p1260
g15
(g19
S'\xa6A\xff\xff7\x8b\x16A'
p1261
tp1262
Rp1263
I00
Ng15
(g46
S'\xc2\xa2\x05\x00\x00\x00\x00\x00'
p1264
tp1265
Rp1266
g15
(g46
S'\xce\xa2\x05\x00\x00\x00\x00\x00'
p1267
tp1268
Rp1269
NNNg1263
Ntp1270
bsS'mu372591'
p1271
g6
(g7
g11
Ntp1272
Rp1273
(S'mu372591'
p1274
g15
(g19
S'\x9cQ\x9c^\xaf\xbd\x16A'
p1275
tp1276
Rp1277
I00
Ng15
(g46
S'i\xaf\x05\x00\x00\x00\x00\x00'
p1278
tp1279
Rp1280
g15
(g46
S'u\xaf\x05\x00\x00\x00\x00\x00'
p1281
tp1282
Rp1283
NNNg1277
Ntp1284
bsS'None'
p1285
NsS'mu269936'
p1286
g6
(g7
g11
Ntp1287
Rp1288
(S'mu269936'
p1289
g15
(g19
S'\xf2\r\xa6\x1a\xc3y\x10A'
p1290
tp1291
Rp1292
I01
Ng15
(g46
S'j\x1e\x04\x00\x00\x00\x00\x00'
p1293
tp1294
Rp1295
g15
(g46
S'v\x1e\x04\x00\x00\x00\x00\x00'
p1296
tp1297
Rp1298
NNNg15
(g19
S'\xd4\xd0\xff\xff\xd7y\x10A'
p1299
tp1300
Rp1301
Ntp1302
bsS'std392156'
p1303
g6
(g7
g11
Ntp1304
Rp1305
(S'std392156'
p1306
g15
(g19
S'\x8d\x94MJ\xfa\x8f_@'
p1307
tp1308
Rp1309
I01
NI26
I156
NNNg15
(g19
S'\x18\xbe\xc0\xff\xff\x7fc@'
p1310
tp1311
Rp1312
Ntp1313
bsS'A398102'
p1314
g6
(g7
g11
Ntp1315
Rp1316
(S'A398102'
p1317
g15
(g19
S'\x00:\x8d\x0bL\xd1p?'
p1318
tp1319
Rp1320
I00
NI0
I1
NNNg1320
Ntp1321
bsS'A269936'
p1322
g6
(g7
g11
Ntp1323
Rp1324
(S'A269936'
p1325
g15
(g19
S'\x80\xe3\xa1\xaf\xd8#u?'
p1326
tp1327
Rp1328
I01
NI0
I1
NNNg15
(g19
S'\x00\x84[\xda\x0b\xcax?'
p1329
tp1330
Rp1331
Ntp1332
bsS'A359569'
p1333
g6
(g7
g11
Ntp1334
Rp1335
(S'A359569'
p1336
g15
(g19
S'\x00j@\\\x88;\xa9?'
p1337
tp1338
Rp1339
I00
NI0
I1
NNNg1339
Ntp1340
bsS'A418951'
p1341
g6
(g7
g11
Ntp1342
Rp1343
(S'A418951'
p1344
g15
(g19
S'J\xb9\xfa\xff\xff\xff\xef?'
p1345
tp1346
Rp1347
I00
NI0
I1
NI0
Ng1347
Ntp1348
bsS'mu319000'
p1349
g6
(g7
g11
Ntp1350
Rp1351
(S'mu319000'
p1352
g15
(g19
S'I\x01\x00\x00Hx\x13A'
p1353
tp1354
Rp1355
I00
Ng15
(g46
S'\x12\xde\x04\x00\x00\x00\x00\x00'
p1356
tp1357
Rp1358
g15
(g46
S'\x1e\xde\x04\x00\x00\x00\x00\x00'
p1359
tp1360
Rp1361
NNNg1355
Ntp1362
bsS'A288370'
p1363
g6
(g7
g11
Ntp1364
Rp1365
(S'A288370'
p1366
g15
(g19
S'`C,|\xfd\xf1\x80?'
p1367
tp1368
Rp1369
I00
NI0
I1
NNNg1369
Ntp1370
bsS'vregion15'
p1371
g6
(g7
g11
Ntp1372
Rp1373
(g274
g15
(g19
S'\xc7\xd7\xc7\xe2\xff\xf2\x04@'
p1374
tp1375
Rp1376
I01
NI1
Finf
Ng15
(g19
S'$\xf5+\\^\xeb\xab?'
p1377
tp1378
Rp1379
(dp1380
g278
g15
(g19
S'[2[\x05\xb5\x04L\xbf'
p1381
tp1382
Rp1383
sg282
g15
(g19
S'A\t\xd5\xe61,`\xbf'
p1384
tp1385
Rp1386
sg266
g15
(g19
S'\x80\x01\xadu5\xc5S?'
p1387
tp1388
Rp1389
sg15
(g19
S'\xa9\x1d8r\xff\xf2\x04@'
p1390
tp1391
Rp1392
Ntp1393
bsS'mu396258'
p1394
g6
(g7
g11
Ntp1395
Rp1396
(S'mu396258'
p1397
g15
(g19
S'\x19\xfe\xff\xff\x9f/\x18A'
p1398
tp1399
Rp1400
I00
Ng15
(g46
S'\xdc\x0b\x06\x00\x00\x00\x00\x00'
p1401
tp1402
Rp1403
g15
(g46
S'\xe8\x0b\x06\x00\x00\x00\x00\x00'
p1404
tp1405
Rp1406
NNNg1400
Ntp1407
bsS'mu420833'
p1408
g6
(g7
g11
Ntp1409
Rp1410
(g278
g15
(g19
S'\xaf\xab\xc3Os\xaf\x19A'
p1411
tp1412
Rp1413
I01
Ng15
(g46
S'\xdbk\x06\x00\x00\x00\x00\x00'
p1414
tp1415
Rp1416
g15
(g46
S'\xe7k\x06\x00\x00\x00\x00\x00'
p1417
tp1418
Rp1419
Ng15
(g19
S'\xec0\xce\xdaLC\xa0@'
p1420
tp1421
Rp1422
(dp1423
g274
g15
(g19
S'Z2[\x05\xb5\x04L\xbf'
p1424
tp1425
Rp1426
sg282
g15
(g19
S'\xa9\xea\x85P\xec\xb3\xcd?'
p1427
tp1428
Rp1429
sg266
g15
(g19
S'\xf5)\x1b\xbf\xa2\x8a\xb7?'
p1430
tp1431
Rp1432
sg15
(g46
S'\xe1k\x06\x00\x00\x00\x00\x00'
p1433
tp1434
Rp1435
Ntp1436
bsS'std353479'
p1437
g6
(g7
g11
Ntp1438
Rp1439
(S'std353479'
p1440
g15
(g19
S'\x1d\x9d(+E\xd2I@'
p1441
tp1442
Rp1443
I01
NI26
I156
NNNI52
Ntp1444
bsS'A269685'
p1445
g6
(g7
g11
Ntp1446
Rp1447
(S'A269685'
p1448
g15
(g19
S'\xc0\xa8\xae@u\x18|?'
p1449
tp1450
Rp1451
I00
NI0
I1
NNNg1451
Ntp1452
bsS'A396001'
p1453
g6
(g7
g11
Ntp1454
Rp1455
(S'A396001'
p1456
g15
(g19
S'\xa8\t\x00\xfe\x8b1\xc2?'
p1457
tp1458
Rp1459
I00
NI0
I1
NNNg1459
Ntp1460
bsS'mu288279'
p1461
g6
(g7
g11
Ntp1462
Rp1463
(S'mu288279'
p1464
g15
(g19
S"'\xfd\xff\xffs\x98\x11A"
p1465
tp1466
Rp1467
I00
Ng15
(g46
S'\x11f\x04\x00\x00\x00\x00\x00'
p1468
tp1469
Rp1470
g15
(g46
S'\x1df\x04\x00\x00\x00\x00\x00'
p1471
tp1472
Rp1473
NNNg1467
Ntp1474
bsS'mu379938'
p1475
g6
(g7
g11
Ntp1476
Rp1477
(S'mu379938'
p1478
g15
(g19
S'\xbd&(\xf5\x8d0\x17A'
p1479
tp1480
Rp1481
I00
Ng15
(g46
S'\x1c\xcc\x05\x00\x00\x00\x00\x00'
p1482
tp1483
Rp1484
g15
(g46
S'(\xcc\x05\x00\x00\x00\x00\x00'
p1485
tp1486
Rp1487
NNNg1481
Ntp1488
bsS'A320360'
p1489
g6
(g7
g11
Ntp1490
Rp1491
(S'A320360'
p1492
g15
(g19
S'@<\x83\x86\xfc\xe1\x86?'
p1493
tp1494
Rp1495
I00
NI0
I1
NNNg1495
Ntp1496
bsS'mu390641'
p1497
g6
(g7
g11
Ntp1498
Rp1499
(S'mu390641'
p1500
g15
(g19
S'CQ\xfdB\xcc\xd7\x17A'
p1501
tp1502
Rp1503
I00
Ng15
(g46
S'\xeb\xf5\x05\x00\x00\x00\x00\x00'
p1504
tp1505
Rp1506
g15
(g46
S'\xf7\xf5\x05\x00\x00\x00\x00\x00'
p1507
tp1508
Rp1509
NNNg1503
Ntp1510
bsS'std270603'
p1511
g6
(g7
g11
Ntp1512
Rp1513
(S'std270603'
p1514
g15
(g19
S'[\xa1\xe7\xfb\xff\x7fc@'
p1515
tp1516
Rp1517
I00
NI26
I156
NNNg1517
Ntp1518
bsS'mu360176'
p1519
g6
(g7
g11
Ntp1520
Rp1521
(S'mu360176'
p1522
g15
(g19
S'\x06\xb6\xea\xff\xbf\xfb\x15A'
p1523
tp1524
Rp1525
I00
Ng15
(g46
S'\xea~\x05\x00\x00\x00\x00\x00'
p1526
tp1527
Rp1528
g15
(g46
S'\xf6~\x05\x00\x00\x00\x00\x00'
p1529
tp1530
Rp1531
NNNg1525
Ntp1532
bsS'std381840'
p1533
g6
(g7
g11
Ntp1534
Rp1535
(S'std381840'
p1536
g15
(g19
S'V=\xf0\x01ogb@'
p1537
tp1538
Rp1539
I00
NI26
I156
NNNg1539
Ntp1540
bsS'A360599'
p1541
g6
(g7
g11
Ntp1542
Rp1543
(S'A360599'
p1544
g15
(g19
S'\x80B\x18>\x90\xca\x87?'
p1545
tp1546
Rp1547
I00
NI0
I1
NNNg1547
Ntp1548
bsS'std269563'
p1549
g6
(g7
g11
Ntp1550
Rp1551
(S'std269563'
p1552
g15
(g19
S'\xa2(\xd6Gj\xbcW@'
p1553
tp1554
Rp1555
I00
NI26
I156
NNNg1555
Ntp1556
bsS'std288279'
p1557
g6
(g7
g11
Ntp1558
Rp1559
(S'std288279'
p1560
g15
(g19
S'G[J\xfd\xff\x7fc@'
p1561
tp1562
Rp1563
I00
NI26
I156
NNNg1563
Ntp1564
bsS'A359961'
p1565
g6
(g7
g11
Ntp1566
Rp1567
(S'A359961'
p1568
g15
(g19
S'\xc0\xdc\xa4i\xcbi\x88?'
p1569
tp1570
Rp1571
I00
NI0
I1
NNNg1571
Ntp1572
bsS'mu360493'
p1573
g6
(g7
g11
Ntp1574
Rp1575
(S'mu360493'
p1576
g15
(g19
S'W\x06\x00\x00\x9c\x00\x16A'
p1577
tp1578
Rp1579
I00
Ng15
(g46
S"'\x80\x05\x00\x00\x00\x00\x00"
p1580
tp1581
Rp1582
g15
(g46
S'3\x80\x05\x00\x00\x00\x00\x00'
p1583
tp1584
Rp1585
NNNg1579
Ntp1586
bsS'A369352'
p1587
g6
(g7
g11
Ntp1588
Rp1589
(S'A369352'
p1590
g15
(g19
S'\xd0\xb0fT>\x98\xa1?'
p1591
tp1592
Rp1593
I00
NI0
I1
NNNg1593
Ntp1594
bsS'std271722'
p1595
g6
(g7
g11
Ntp1596
Rp1597
(S'std271722'
p1598
g15
(g19
S'\xef\xf7\xff\xff\xff\x7fc@'
p1599
tp1600
Rp1601
I00
NI26
I156
NNNg1601
Ntp1602
bsS'mu289048'
p1603
g6
(g7
g11
Ntp1604
Rp1605
(S'mu289048'
p1606
g15
(g19
S'\xbe\x00\x00\x00H\xa4\x11A'
p1607
tp1608
Rp1609
I01
Ng15
(g46
S'\x12i\x04\x00\x00\x00\x00\x00'
p1610
tp1611
Rp1612
g15
(g46
S'\x1ei\x04\x00\x00\x00\x00\x00'
p1613
tp1614
Rp1615
NNNg15
(g19
S'\xbe\x00\x00\x00H\xa4\x11A'
p1616
tp1617
Rp1618
Ntp1619
bsS'std374162'
p1620
g6
(g7
g11
Ntp1621
Rp1622
(S'std374162'
p1623
g15
(g19
S'p\xc4\t\xab\xc1\x16]@'
p1624
tp1625
Rp1626
I00
NI26
I156
NNNg1626
Ntp1627
bsS'A360068'
p1628
g6
(g7
g11
Ntp1629
Rp1630
(S'A360068'
p1631
g15
(g19
S'\x00\xaa\x9a\xb92\xdb}?'
p1632
tp1633
Rp1634
I00
NI0
I1
NNNg1634
Ntp1635
bsS'A390641'
p1636
g6
(g7
g11
Ntp1637
Rp1638
(S'A390641'
p1639
g15
(g19
S'\x00\xed:^C\xe3e?'
p1640
tp1641
Rp1642
I00
NI0
I1
NNNg1642
Ntp1643
bsS'mu360977'
p1644
g6
(g7
g11
Ntp1645
Rp1646
(S'mu360977'
p1647
g15
(g19
S'\xa0\xeeo\xe5Q\x08\x16A'
p1648
tp1649
Rp1650
I01
Ng15
(g46
S'\x0b\x82\x05\x00\x00\x00\x00\x00'
p1651
tp1652
Rp1653
g15
(g46
S'\x17\x82\x05\x00\x00\x00\x00\x00'
p1654
tp1655
Rp1656
NNNg15
(g19
S'\x80d\xdc\xff[\x08\x16A'
p1657
tp1658
Rp1659
Ntp1660
bsS'A379938'
p1661
g6
(g7
g11
Ntp1662
Rp1663
(S'A379938'
p1664
g15
(g19
S'@\xb3\xffT\x8eru?'
p1665
tp1666
Rp1667
I00
NI0
I1
NNNg1667
Ntp1668
bsS'newaxis'
p1669
NsS'std373266'
p1670
g6
(g7
g11
Ntp1671
Rp1672
(S'std373266'
p1673
g15
(g19
S'c7\xfc]zi]@'
p1674
tp1675
Rp1676
I00
NI26
I156
NNNg1676
Ntp1677
bsS'A368816'
p1678
g6
(g7
g11
Ntp1679
Rp1680
(S'A368816'
p1681
g15
(g19
S'\x80\xfe\xb4\xd5\x89\xd2\x9b?'
p1682
tp1683
Rp1684
I00
NI0
I1
NNNg1684
Ntp1685
bsS'std382315'
p1686
g6
(g7
g11
Ntp1687
Rp1688
(S'std382315'
p1689
g15
(g19
S'\n(~\x8ds5R@'
p1690
tp1691
Rp1692
I00
NI26
I156
NNNg1692
Ntp1693
bsS'mu415150'
p1694
g6
(g7
g11
Ntp1695
Rp1696
(S'mu415150'
p1697
g15
(g19
S'\x0eO\xa8\x84\xbeV\x19A'
p1698
tp1699
Rp1700
I01
Ng15
(g46
S'\xa8U\x06\x00\x00\x00\x00\x00'
p1701
tp1702
Rp1703
g15
(g46
S'\xb4U\x06\x00\x00\x00\x00\x00'
p1704
tp1705
Rp1706
NNNg15
(g46
S'\xaeU\x06\x00\x00\x00\x00\x00'
p1707
tp1708
Rp1709
Ntp1710
bsS'mu288151'
p1711
g6
(g7
g11
Ntp1712
Rp1713
(S'mu288151'
p1714
g15
(g19
S'\xd2\x96\xa4\x00\\\x96\x11A'
p1715
tp1716
Rp1717
I00
Ng15
(g46
S'\x91e\x04\x00\x00\x00\x00\x00'
p1718
tp1719
Rp1720
g15
(g46
S'\x9de\x04\x00\x00\x00\x00\x00'
p1721
tp1722
Rp1723
NNNg1717
Ntp1724
bsS'mu392156'
p1725
g6
(g7
g11
Ntp1726
Rp1727
(S'mu392156'
p1728
g15
(g19
S'\x8e\x98\x9d\x01X\xef\x17A'
p1729
tp1730
Rp1731
I01
Ng15
(g46
S'\xd6\xfb\x05\x00\x00\x00\x00\x00'
p1732
tp1733
Rp1734
g15
(g46
S'\xe2\xfb\x05\x00\x00\x00\x00\x00'
p1735
tp1736
Rp1737
NNNg15
(g19
S'"`e\x00X\xef\x17A'
p1738
tp1739
Rp1740
Ntp1741
bsS'mu360871'
p1742
g6
(g7
g11
Ntp1743
Rp1744
(S'mu360871'
p1745
g15
(g19
S'\x00\x00\x00\x00\x84\x06\x16A'
p1746
tp1747
Rp1748
I01
Ng15
(g46
S'\xa1\x81\x05\x00\x00\x00\x00\x00'
p1749
tp1750
Rp1751
g15
(g46
S'\xad\x81\x05\x00\x00\x00\x00\x00'
p1752
tp1753
Rp1754
NNNg15
(g19
S'\x00\x00\x00\x00\x84\x06\x16A'
p1755
tp1756
Rp1757
Ntp1758
bsS'A319204'
p1759
g6
(g7
g11
Ntp1760
Rp1761
(S'A319204'
p1762
g15
(g19
S'`\xb9\xd29\x80\xa5\x89?'
p1763
tp1764
Rp1765
I01
NI0
I1
NNNg15
(g19
S'\x00\xf6X<\xb9\xa2\x8f?'
p1766
tp1767
Rp1768
Ntp1769
bsS'mu375605'
p1770
g6
(g7
g11
Ntp1771
Rp1772
(S'mu375605'
p1773
g15
(g19
S'W]{\x84\xd4\xec\x16A'
p1774
tp1775
Rp1776
I01
Ng15
(g46
S'/\xbb\x05\x00\x00\x00\x00\x00'
p1777
tp1778
Rp1779
g15
(g46
S';\xbb\x05\x00\x00\x00\x00\x00'
p1780
tp1781
Rp1782
NNNg15
(g19
S'bj\x00\x00\xbc\xec\x16A'
p1783
tp1784
Rp1785
Ntp1786
bsS'std360068'
p1787
g6
(g7
g11
Ntp1788
Rp1789
(S'std360068'
p1790
g15
(g19
S'\x84?\x8e\x80\xd1sc@'
p1791
tp1792
Rp1793
I00
NI26
I156
NNNg1793
Ntp1794
bsS'std368816'
p1795
g6
(g7
g11
Ntp1796
Rp1797
(S'std368816'
p1798
g15
(g19
S'i\x11E\xff\xff\x7fc@'
p1799
tp1800
Rp1801
I00
NI26
I156
NNNg1801
Ntp1802
bsS'A319879'
p1803
g6
(g7
g11
Ntp1804
Rp1805
(S'A319879'
p1806
g15
(g19
S'\xe0\x0ci\xa0\xefm\x85?'
p1807
tp1808
Rp1809
I00
NI0
I1
NNNg1809
Ntp1810
bsS'std419866'
p1811
g6
(g7
g11
Ntp1812
Rp1813
(S'std419866'
p1814
g15
(g19
S'\xe6yni\xff\x7fc@'
p1815
tp1816
Rp1817
I00
NI26
I156
NI0
Ng1817
Ntp1818
bsS'mu398564'
p1819
g6
(g7
g11
Ntp1820
Rp1821
(S'mu398564'
p1822
g15
(g19
S'\xbd\xb3\x02P\xa4S\x18A'
p1823
tp1824
Rp1825
I01
Ng15
(g46
S'\xde\x14\x06\x00\x00\x00\x00\x00'
p1826
tp1827
Rp1828
g15
(g46
S'\xea\x14\x06\x00\x00\x00\x00\x00'
p1829
tp1830
Rp1831
NNNg15
(g46
S'\xe4\x14\x06\x00\x00\x00\x00\x00'
p1832
tp1833
Rp1834
Ntp1835
bsS'mu418372'
p1836
g6
(g7
g11
Ntp1837
Rp1838
(S'mu418372'
p1839
g15
(g19
S"Y\xc6\xf8\xff'\x89\x19A"
p1840
tp1841
Rp1842
I00
Ng15
(g46
S'>b\x06\x00\x00\x00\x00\x00'
p1843
tp1844
Rp1845
g15
(g46
S'Jb\x06\x00\x00\x00\x00\x00'
p1846
tp1847
Rp1848
NI0
Ng1842
Ntp1849
bsS'A269563'
p1850
g6
(g7
g11
Ntp1851
Rp1852
(S'A269563'
p1853
g15
(g19
S'\x00I&\x99\x10\x05t?'
p1854
tp1855
Rp1856
I00
NI0
I1
NNNg1856
Ntp1857
bsS'little_endian'
p1858
I01
sS'A361085'
p1859
g6
(g7
g11
Ntp1860
Rp1861
(S'A361085'
p1862
g15
(g19
S'\x00\x9b\xff\x0fI\x13h?'
p1863
tp1864
Rp1865
I01
NI0
I1
NNNg15
(g19
S'l6\xc8\xa5k1z?'
p1866
tp1867
Rp1868
Ntp1869
bsS'vregion7'
p1870
g6
(g7
g11
Ntp1871
Rp1872
(S'vregion7'
p1873
g15
(g19
S'\x16\x8e]\x00\x00\x00\xf0?'
p1874
tp1875
Rp1876
I01
NI1
Finf
NNNg15
(g19
S'\x16\x8e]\x00\x00\x00\xf0?'
p1877
tp1878
Rp1879
Ntp1880
bsS'std397353'
p1881
g6
(g7
g11
Ntp1882
Rp1883
(S'std397353'
p1884
g15
(g19
S'Y\xd9\x80\xf5\xff\x7fc@'
p1885
tp1886
Rp1887
I00
NI26
I156
NNNg1887
Ntp1888
bsS'A360977'
p1889
g6
(g7
g11
Ntp1890
Rp1891
(S'A360977'
p1892
g15
(g19
S'\x00\r\xd6R3\x8f\x84?'
p1893
tp1894
Rp1895
I01
NI0
I1
NNNg15
(g19
S'@\xa3\xbd\xdd\x82\x1d\x89?'
p1896
tp1897
Rp1898
Ntp1899
bsS'A415150'
p1900
g6
(g7
g11
Ntp1901
Rp1902
(S'A415150'
p1903
g15
(g19
S'@\xb9\xa0@\x01\x11z?'
p1904
tp1905
Rp1906
I01
NI0
I1
NNNg15
(g19
S'\xae\xf4\xad\xbc\x86\x0fy?'
p1907
tp1908
Rp1909
Ntp1910
bsS'std400007'
p1911
g6
(g7
g11
Ntp1912
Rp1913
(S'std400007'
p1914
g15
(g19
S'\x9b\xe1\xee\xff\xff\x7fc@'
p1915
tp1916
Rp1917
I01
NI26
I156
NNNI52
Ntp1918
bsS'A400174'
p1919
g6
(g7
g11
Ntp1920
Rp1921
(S'A400174'
p1922
g15
(g19
S'\x00\xb06\xb3w\x0bQ?'
p1923
tp1924
Rp1925
I01
NI0
I1
NNNg15
(g19
S'\x00O^\xd6\x92\xeeZ?'
p1926
tp1927
Rp1928
Ntp1929
bsS'mu382789'
p1930
g6
(g7
g11
Ntp1931
Rp1932
(S'mu382789'
p1933
g15
(g19
S'\xea\xc9U\xd8\x15]\x17A'
p1934
tp1935
Rp1936
I01
Ng15
(g46
S'?\xd7\x05\x00\x00\x00\x00\x00'
p1937
tp1938
Rp1939
g15
(g46
S'K\xd7\x05\x00\x00\x00\x00\x00'
p1940
tp1941
Rp1942
NNNg15
(g46
S'E\xd7\x05\x00\x00\x00\x00\x00'
p1943
tp1944
Rp1945
Ntp1946
bsS'std373483'
p1947
g6
(g7
g11
Ntp1948
Rp1949
(S'std373483'
p1950
g15
(g19
S'd\xce\xb5j\xc9\xc5b@'
p1951
tp1952
Rp1953
I00
NI26
I156
NNNg1953
Ntp1954
bsS'mu271722'
p1955
g6
(g7
g11
Ntp1956
Rp1957
(S'mu271722'
p1958
g15
(g19
S'Y\xec\xbc\xcb\xab\x95\x10A'
p1959
tp1960
Rp1961
I00
Ng15
(g46
S'd%\x04\x00\x00\x00\x00\x00'
p1962
tp1963
Rp1964
g15
(g46
S'p%\x04\x00\x00\x00\x00\x00'
p1965
tp1966
Rp1967
NNNg1961
Ntp1968
bsS'std396866'
p1969
g6
(g7
g11
Ntp1970
Rp1971
(S'std396866'
p1972
g15
(g19
S'\xfc\xfb\xdb\xff\xff\x7fc@'
p1973
tp1974
Rp1975
I00
NI26
I156
NNNg1975
Ntp1976
bsS'mu396866'
p1977
g6
(g7
g11
Ntp1978
Rp1979
(S'mu396866'
p1980
g15
(g19
S'o\t\x00\x00\xf08\x18A'
p1981
tp1982
Rp1983
I00
Ng15
(g46
S'<\x0e\x06\x00\x00\x00\x00\x00'
p1984
tp1985
Rp1986
g15
(g46
S'H\x0e\x06\x00\x00\x00\x00\x00'
p1987
tp1988
Rp1989
NNNg1983
Ntp1990
bsS'vregion5'
p1991
g6
(g7
g11
Ntp1992
Rp1993
(S'vregion5'
p1994
g15
(g19
S'\x89\xbc\x11\x00\x00\x00\xf0?'
p1995
tp1996
Rp1997
I01
NI1
Finf
NNNg15
(g19
S'\x89\xbc\x11\x00\x00\x00\xf0?'
p1998
tp1999
Rp2000
Ntp2001
bsS'std361085'
p2002
g6
(g7
g11
Ntp2003
Rp2004
(S'std361085'
p2005
g15
(g19
S't\x7fO\xfdS\x16W@'
p2006
tp2007
Rp2008
I01
NI26
I156
NNNI52
Ntp2009
bsS'std381366'
p2010
g6
(g7
g11
Ntp2011
Rp2012
(S'std381366'
p2013
g15
(g19
S'\xd2\x07\xe2\xfa\xff\x7fc@'
p2014
tp2015
Rp2016
I00
NI26
I156
NNNg2016
Ntp2017
bsS'mu374628'
p2018
g6
(g7
g11
Ntp2019
Rp2020
(S'mu374628'
p2021
g15
(g19
S'w\x04\xac\xc3\x8a\xdd\x16A'
p2022
tp2023
Rp2024
I00
Ng15
(g46
S'^\xb7\x05\x00\x00\x00\x00\x00'
p2025
tp2026
Rp2027
g15
(g46
S'j\xb7\x05\x00\x00\x00\x00\x00'
p2028
tp2029
Rp2030
NNNg2024
Ntp2031
bsS'std288370'
p2032
g6
(g7
g11
Ntp2033
Rp2034
(S'std288370'
p2035
g15
(g19
S'\x12J\x1aO\xa9\xe1Q@'
p2036
tp2037
Rp2038
I00
NI26
I156
NNNg2038
Ntp2039
bsS'mu373036'
p2040
g6
(g7
g11
Ntp2041
Rp2042
(S'mu373036'
p2043
g15
(g19
S'\xa8*\xf5\xbc\xa7\xc4\x16A'
p2044
tp2045
Rp2046
I00
Ng15
(g46
S'&\xb1\x05\x00\x00\x00\x00\x00'
p2047
tp2048
Rp2049
g15
(g46
S'2\xb1\x05\x00\x00\x00\x00\x00'
p2050
tp2051
Rp2052
NNNg2046
Ntp2053
bsS'mu360068'
p2054
g6
(g7
g11
Ntp2055
Rp2056
(S'mu360068'
p2057
g15
(g19
S"\xc3\x9822'\xfa\x15A"
p2058
tp2059
Rp2060
I00
Ng15
(g46
S'~~\x05\x00\x00\x00\x00\x00'
p2061
tp2062
Rp2063
g15
(g46
S'\x8a~\x05\x00\x00\x00\x00\x00'
p2064
tp2065
Rp2066
NNNg2060
Ntp2067
bsS'A396866'
p2068
g6
(g7
g11
Ntp2069
Rp2070
(S'A396866'
p2071
g15
(g19
S'\xc0\xe8+\xd0\x0f~\x8a?'
p2072
tp2073
Rp2074
I00
NI0
I1
NNNg2074
Ntp2075
bsS'A419866'
p2076
g6
(g7
g11
Ntp2077
Rp2078
(S'A419866'
p2079
g15
(g19
S'\xb0|\xda\x04\x98\xa8\x99?'
p2080
tp2081
Rp2082
I00
NI0
I1
NI0
Ng2082
Ntp2083
bsS'std415150'
p2084
g6
(g7
g11
Ntp2085
Rp2086
(S'std415150'
p2087
g15
(g19
S'a\x86\x92\xd8\xff\x7fc@'
p2088
tp2089
Rp2090
I01
NI26
I156
NNNI52
Ntp2091
bsS'std358399'
p2092
g6
(g7
g11
Ntp2093
Rp2094
(S'std358399'
p2095
g15
(g19
S"']\xad\x82\xf2\x7fc@"
p2096
tp2097
Rp2098
I00
NI26
I156
NNNg2098
Ntp2099
bsS'mu289162'
p2100
g6
(g7
g11
Ntp2101
Rp2102
(S'mu289162'
p2103
g15
(g19
S'%\xff\x08\r/\xa6\x11A'
p2104
tp2105
Rp2106
I00
Ng15
(g46
S'\x84i\x04\x00\x00\x00\x00\x00'
p2107
tp2108
Rp2109
g15
(g46
S'\x90i\x04\x00\x00\x00\x00\x00'
p2110
tp2111
Rp2112
NNNg2106
Ntp2113
bsS'A375404'
p2114
g6
(g7
g11
Ntp2115
Rp2116
(S'A375404'
p2117
g15
(g19
S'\x80\xa9\xe4D\x87ln?'
p2118
tp2119
Rp2120
I01
NI0
I1
NNNg15
(g19
S'\x14\x8c\x91r\x04\xcdu?'
p2121
tp2122
Rp2123
Ntp2124
bsS'std270055'
p2125
g6
(g7
g11
Ntp2126
Rp2127
(S'std270055'
p2128
g15
(g19
S'[\x8f\x9c\x9f\xec\x7fc@'
p2129
tp2130
Rp2131
I01
NI26
I156
NNNI52
Ntp2132
bsS'mu359961'
p2133
g6
(g7
g11
Ntp2134
Rp2135
(S'mu359961'
p2136
g15
(g19
S'\xc8\x9e\x00\x00L\xf8\x15A'
p2137
tp2138
Rp2139
I00
Ng15
(g46
S'\x13~\x05\x00\x00\x00\x00\x00'
p2140
tp2141
Rp2142
g15
(g46
S'\x1f~\x05\x00\x00\x00\x00\x00'
p2143
tp2144
Rp2145
NNNg2139
Ntp2146
bsS'std398102'
p2147
g6
(g7
g11
Ntp2148
Rp2149
(S'std398102'
p2150
g15
(g19
S'\xc5A%e\xff\x7fc@'
p2151
tp2152
Rp2153
I00
NI26
I156
NNNg2153
Ntp2154
bsS'A380892'
p2155
g6
(g7
g11
Ntp2156
Rp2157
(S'A380892'
p2158
g15
(g19
S'\x10J5&\xffg\x9b?'
p2159
tp2160
Rp2161
I00
NI0
I1
NNNg2161
Ntp2162
bsS'mu319482'
p2163
g6
(g7
g11
Ntp2164
Rp2165
(S'mu319482'
p2166
g15
(g19
S'\x8a\xd1\x89\x95\xe4\x7f\x13A'
p2167
tp2168
Rp2169
I01
Ng15
(g46
S'\xf4\xdf\x04\x00\x00\x00\x00\x00'
p2170
tp2171
Rp2172
g15
(g46
S'\x00\xe0\x04\x00\x00\x00\x00\x00'
p2173
tp2174
Rp2175
NNNg15
(g46
S'\xfa\xdf\x04\x00\x00\x00\x00\x00'
p2176
tp2177
Rp2178
Ntp2179
bsS'mu391918'
p2180
g6
(g7
g11
Ntp2181
Rp2182
(S'mu391918'
p2183
g15
(g19
S'\x9dL3\x00\xb8\xeb\x17A'
p2184
tp2185
Rp2186
I01
Ng15
(g46
S'\xe8\xfa\x05\x00\x00\x00\x00\x00'
p2187
tp2188
Rp2189
g15
(g46
S'\xf4\xfa\x05\x00\x00\x00\x00\x00'
p2190
tp2191
Rp2192
NNNg15
(g46
S'\xee\xfa\x05\x00\x00\x00\x00\x00'
p2193
tp2194
Rp2195
Ntp2196
bsS'A288151'
p2197
g6
(g7
g11
Ntp2198
Rp2199
(S'A288151'
p2200
g15
(g19
S'\xa0\x956\x82\xb9\xda\x86?'
p2201
tp2202
Rp2203
I00
NI0
I1
NNNg2203
Ntp2204
bsS'A289162'
p2205
g6
(g7
g11
Ntp2206
Rp2207
(S'A289162'
p2208
g15
(g19
S'\xc0\xa3\xeb\x03pHz?'
p2209
tp2210
Rp2211
I00
NI0
I1
NNNg2211
Ntp2212
bsS'vregion9'
p2213
g6
(g7
g11
Ntp2214
Rp2215
(S'vregion9'
p2216
g15
(g19
S'\xe6!\x17\x00\x00\x00\xf0?'
p2217
tp2218
Rp2219
I01
NI1
Finf
NNNg15
(g19
S'\xe6!\x17\x00\x00\x00\xf0?'
p2220
tp2221
Rp2222
Ntp2223
bsS'std382789'
p2224
g6
(g7
g11
Ntp2225
Rp2226
(S'std382789'
p2227
g15
(g19
S'\xc6v\xe5\xfd\xc9\x99G@'
p2228
tp2229
Rp2230
I01
NI26
I156
NNNI52
Ntp2231
bsS'vregion4'
p2232
g6
(g7
g11
Ntp2233
Rp2234
(S'vregion4'
p2235
g15
(g19
S'F\xe3A\x00\x00\x00\xf0?'
p2236
tp2237
Rp2238
I01
NI1
Finf
NNNg15
(g19
S'F\xe3A\x00\x00\x00\xf0?'
p2239
tp2240
Rp2241
Ntp2242
bsS'std395520'
p2243
g6
(g7
g11
Ntp2244
Rp2245
(S'std395520'
p2246
g15
(g19
S'\x19q\xf0\xfa\xff\x7fc@'
p2247
tp2248
Rp2249
I00
NI26
I156
NNNg2249
Ntp2250
bsS'mu381366'
p2251
g6
(g7
g11
Ntp2252
Rp2253
(S'mu381366'
p2254
g15
(g19
S'\x8d\xd0B\xfe\xd7F\x17A'
p2255
tp2256
Rp2257
I00
Ng15
(g46
S'\xb0\xd1\x05\x00\x00\x00\x00\x00'
p2258
tp2259
Rp2260
g15
(g46
S'\xbc\xd1\x05\x00\x00\x00\x00\x00'
p2261
tp2262
Rp2263
NNNg2257
Ntp2264
bsS'std359569'
p2265
g6
(g7
g11
Ntp2266
Rp2267
(S'std359569'
p2268
g15
(g19
S'\x01\xeeA\xe1\xff\x7fc@'
p2269
tp2270
Rp2271
I00
NI26
I156
NNNg2271
Ntp2272
bsS'std269685'
p2273
g6
(g7
g11
Ntp2274
Rp2275
(S'std269685'
p2276
g15
(g19
S'\xc0\xe2\xae\xfe\xff\x7fc@'
p2277
tp2278
Rp2279
I00
NI26
I156
NNNg2279
Ntp2280
bsS'mu375404'
p2281
g6
(g7
g11
Ntp2282
Rp2283
(S'mu375404'
p2284
g15
(g19
S'\xfeh\xaf\xc4\xa6\xe9\x16A'
p2285
tp2286
Rp2287
I01
Ng15
(g46
S'f\xba\x05\x00\x00\x00\x00\x00'
p2288
tp2289
Rp2290
g15
(g46
S'r\xba\x05\x00\x00\x00\x00\x00'
p2291
tp2292
Rp2293
NNNg15
(g46
S'l\xba\x05\x00\x00\x00\x00\x00'
p2294
tp2295
Rp2296
Ntp2297
bsS'vregion2'
p2298
g6
(g7
g11
Ntp2299
Rp2300
(S'vregion2'
p2301
g15
(g19
S'\xc5\xdd_\x01\x00\x00\xf0?'
p2302
tp2303
Rp2304
I01
NI1
Finf
NNNg15
(g19
S'\xc5\xdd_\x01\x00\x00\xf0?'
p2305
tp2306
Rp2307
Ntp2308
bsS'mu269018'
p2309
g6
(g7
g11
Ntp2310
Rp2311
(S'mu269018'
p2312
g15
(g19
S'\xbd\xebP\xff\x7fk\x10A'
p2313
tp2314
Rp2315
I00
Ng15
(g46
S'\xd4\x1a\x04\x00\x00\x00\x00\x00'
p2316
tp2317
Rp2318
g15
(g46
S'\xe0\x1a\x04\x00\x00\x00\x00\x00'
p2319
tp2320
Rp2321
NNNg2315
Ntp2322
bsS'std418743'
p2323
g6
(g7
g11
Ntp2324
Rp2325
(S'std418743'
p2326
g15
(g19
S'\x847\x93\x12\x9dQF@'
p2327
tp2328
Rp2329
I00
NI26
I156
NI0
Ng2329
Ntp2330
bsS'mu287714'
p2331
g6
(g7
g11
Ntp2332
Rp2333
(S'mu287714'
p2334
g15
(g19
S'\xe2\x1eo\xc0\x7f\x8f\x11A'
p2335
tp2336
Rp2337
I00
Ng15
(g46
S'\xdcc\x04\x00\x00\x00\x00\x00'
p2338
tp2339
Rp2340
g15
(g46
S'\xe8c\x04\x00\x00\x00\x00\x00'
p2341
tp2342
Rp2343
NNNg2337
Ntp2344
bsS'std375119'
p2345
g6
(g7
g11
Ntp2346
Rp2347
(S'std375119'
p2348
g15
(g19
S'\xa5\xf5\x030\xd7\xda^@'
p2349
tp2350
Rp2351
I01
NI26
I156
NNNg15
(g19
S'\xf2\xf2\xff\xff\xff\x7fc@'
p2352
tp2353
Rp2354
Ntp2355
bsS'std319204'
p2356
g6
(g7
g11
Ntp2357
Rp2358
(S'std319204'
p2359
g15
(g19
S'\xa8-\x88\xdb\xc4\xd3b@'
p2360
tp2361
Rp2362
I01
NI26
I156
NNNg15
(g19
S'\xf1\xb8\xff\xff\xff\x7fc@'
p2363
tp2364
Rp2365
Ntp2366
bsS'mu418951'
p2367
g6
(g7
g11
Ntp2368
Rp2369
(S'mu418951'
p2370
g15
(g19
S'\xf9\xfd\xff\xff3\x92\x19A'
p2371
tp2372
Rp2373
I00
Ng15
(g46
S'\x81d\x06\x00\x00\x00\x00\x00'
p2374
tp2375
Rp2376
g15
(g46
S'\x8dd\x06\x00\x00\x00\x00\x00'
p2377
tp2378
Rp2379
NI0
Ng2373
Ntp2380
bsS'mu288370'
p2381
g6
(g7
g11
Ntp2382
Rp2383
(S'mu288370'
p2384
g15
(g19
S'X\xfe\xff\xff\xdf\x99\x11A'
p2385
tp2386
Rp2387
I00
Ng15
(g46
S'lf\x04\x00\x00\x00\x00\x00'
p2388
tp2389
Rp2390
g15
(g46
S'xf\x04\x00\x00\x00\x00\x00'
p2391
tp2392
Rp2393
NNNg2387
Ntp2394
bsS'A232591'
p2395
g6
(g7
g11
Ntp2396
Rp2397
(S'A232591'
p2398
g15
(g19
S'\xe0\xdc9A06\x91?'
p2399
tp2400
Rp2401
I01
NI0
I1
NNNg15
(g19
S'\x11C\xd7G=\xeb\x8e?'
p2402
tp2403
Rp2404
Ntp2405
bsS'mu290286'
p2406
g6
(g7
g11
Ntp2407
Rp2408
(S'mu290286'
p2409
g15
(g19
S'\xc3\x83\xe9\x93\xa7\xb7\x11A'
p2410
tp2411
Rp2412
I00
Ng15
(g46
S'\xe8m\x04\x00\x00\x00\x00\x00'
p2413
tp2414
Rp2415
g15
(g46
S'\xf4m\x04\x00\x00\x00\x00\x00'
p2416
tp2417
Rp2418
NNNg2412
Ntp2419
bsS'std289162'
p2420
g6
(g7
g11
Ntp2421
Rp2422
(S'std289162'
p2423
g15
(g19
S'n\xa9\x01\xee\xff\x7fc@'
p2424
tp2425
Rp2426
I00
NI26
I156
NNNg2426
Ntp2427
bsS'std374628'
p2428
g6
(g7
g11
Ntp2429
Rp2430
(S'std374628'
p2431
g15
(g19
S' \xca\tcj>`@'
p2432
tp2433
Rp2434
I00
NI26
I156
NNNg2434
Ntp2435
bsS'std418372'
p2436
g6
(g7
g11
Ntp2437
Rp2438
(S'std418372'
p2439
g15
(g19
S'V\xd5\x8e\xbf\xe2\x7fc@'
p2440
tp2441
Rp2442
I00
NI26
I156
NI0
Ng2442
Ntp2443
bsS'mu353627'
p2444
g6
(g7
g11
Ntp2445
Rp2446
(S'mu353627'
p2447
g15
(g19
S'\xd5\x01\x00\x00T\x95\x15A'
p2448
tp2449
Rp2450
I01
Ng15
(g46
S'Ue\x05\x00\x00\x00\x00\x00'
p2451
tp2452
Rp2453
g15
(g46
S'ae\x05\x00\x00\x00\x00\x00'
p2454
tp2455
Rp2456
NNNg15
(g19
S'\xd5\x01\x00\x00T\x95\x15A'
p2457
tp2458
Rp2459
Ntp2460
bsS'vregion3'
p2461
g6
(g7
g11
Ntp2462
Rp2463
(S'vregion3'
p2464
g15
(g19
S'\x1cQ\x1b\x00\x00\x00\xf0?'
p2465
tp2466
Rp2467
I01
NI1
Finf
NNNg15
(g19
S'\x1cQ\x1b\x00\x00\x00\xf0?'
p2468
tp2469
Rp2470
Ntp2471
bsS'std389929'
p2472
g6
(g7
g11
Ntp2473
Rp2474
(S'std389929'
p2475
g15
(g19
S'\xc3w\xe0\xfb\xff\x7fc@'
p2476
tp2477
Rp2478
I00
NI26
I156
NNNg2478
Ntp2479
bsS'mu358399'
p2480
g6
(g7
g11
Ntp2481
Rp2482
(S'mu358399'
p2483
g15
(g19
S'\xef\xea\xff\xff\x13\xe0\x15A'
p2484
tp2485
Rp2486
I00
Ng15
(g46
S'\xf9w\x05\x00\x00\x00\x00\x00'
p2487
tp2488
Rp2489
g15
(g46
S'\x05x\x05\x00\x00\x00\x00\x00'
p2490
tp2491
Rp2492
NNNg2486
Ntp2493
bsS'mu381840'
p2494
g6
(g7
g11
Ntp2495
Rp2496
(S'mu381840'
p2497
g15
(g19
S'\xf6\xe4\xfd\xffWN\x17A'
p2498
tp2499
Rp2500
I00
Ng15
(g46
S'\x8a\xd3\x05\x00\x00\x00\x00\x00'
p2501
tp2502
Rp2503
g15
(g46
S'\x96\xd3\x05\x00\x00\x00\x00\x00'
p2504
tp2505
Rp2506
NNNg2500
Ntp2507
bsS'A373953'
p2508
g6
(g7
g11
Ntp2509
Rp2510
(S'A373953'
p2511
g15
(g19
S'0\x01\xf2\xcdVn\x93?'
p2512
tp2513
Rp2514
I00
NI0
I1
NNNg2514
Ntp2515
bsS'std422874'
p2516
g6
(g7
g11
Ntp2517
Rp2518
(S'std422874'
p2519
g15
(g19
S'\xb0\xba\x90\xb8\xef\xe4Y@'
p2520
tp2521
Rp2522
I01
NI26
I156
Ng15
(g19
S'\x98/I\x97\n\xd9\xd2?'
p2523
tp2524
Rp2525
(dp2526
S'vregion16'
p2527
g15
(g19
S'\xca?\xf2"\xf6.\x91\xbf'
p2528
tp2529
Rp2530
sS'A422874'
p2531
g15
(g19
S'\x9c\x1f\xb7\xd4\x06S\xe4\xbf'
p2532
tp2533
Rp2534
sS'mu422874'
p2535
g15
(g19
S'&\x8bA\xe0\x01\x0c\xbd?'
p2536
tp2537
Rp2538
sI52
Ntp2539
bsS'A359457'
p2540
g6
(g7
g11
Ntp2541
Rp2542
(S'A359457'
p2543
g15
(g19
S' qr\xc1QZ\x8a?'
p2544
tp2545
Rp2546
I00
NI0
I1
NNNg2546
Ntp2547
bsS'A419504'
p2548
g6
(g7
g11
Ntp2549
Rp2550
(S'A419504'
p2551
g15
(g19
S'`\xa9\r\x83\xbc\x1f\xa1?'
p2552
tp2553
Rp2554
I00
NI0
I1
NI0
Ng2554
Ntp2555
bsS'Inf'
p2556
Finf
sS'mu270141'
p2557
g6
(g7
g11
Ntp2558
Rp2559
(S'mu270141'
p2560
g15
(g19
S'\t\x01\x00\x00\xdc|\x10A'
p2561
tp2562
Rp2563
I01
Ng15
(g46
S'7\x1f\x04\x00\x00\x00\x00\x00'
p2564
tp2565
Rp2566
g15
(g46
S'C\x1f\x04\x00\x00\x00\x00\x00'
p2567
tp2568
Rp2569
NNNg15
(g19
S'\t\x01\x00\x00\xdc|\x10A'
p2570
tp2571
Rp2572
Ntp2573
bsS'mu396484'
p2574
g6
(g7
g11
Ntp2575
Rp2576
(S'mu396484'
p2577
g15
(g19
S"\xc6\x1f\xfe\xff'3\x18A"
p2578
tp2579
Rp2580
I00
Ng15
(g46
S'\xbe\x0c\x06\x00\x00\x00\x00\x00'
p2581
tp2582
Rp2583
g15
(g46
S'\xca\x0c\x06\x00\x00\x00\x00\x00'
p2584
tp2585
Rp2586
NNNg2580
Ntp2587
bsS'mu400007'
p2588
g6
(g7
g11
Ntp2589
Rp2590
(S'mu400007'
p2591
g15
(g19
S'=\\\x14\x04\x04j\x18A'
p2592
tp2593
Rp2594
I01
Ng15
(g46
S'\x81\x1a\x06\x00\x00\x00\x00\x00'
p2595
tp2596
Rp2597
g15
(g46
S'\x8d\x1a\x06\x00\x00\x00\x00\x00'
p2598
tp2599
Rp2600
NNNg15
(g46
S'\x87\x1a\x06\x00\x00\x00\x00\x00'
p2601
tp2602
Rp2603
Ntp2604
bsS'mu422874'
p2605
g6
(g7
g11
Ntp2606
Rp2607
(g2535
g15
(g19
S'C%=Wk\xcf\x19A'
p2608
tp2609
Rp2610
I01
Ng15
(g46
S'\xd4s\x06\x00\x00\x00\x00\x00'
p2611
tp2612
Rp2613
g15
(g46
S'\xe0s\x06\x00\x00\x00\x00\x00'
p2614
tp2615
Rp2616
Ng15
(g19
S'\xb8\xf1ck\x80>\xbc?'
p2617
tp2618
Rp2619
(dp2620
g2527
g15
(g19
S"\xc8/?\xcc\x93'\xad?"
p2621
tp2622
Rp2623
sg2531
g15
(g19
S'\x1a\xdc=Bzq\x88?'
p2624
tp2625
Rp2626
sg2519
g15
(g19
S'$\x8bA\xe0\x01\x0c\xbd?'
p2627
tp2628
Rp2629
sg15
(g46
S'\xdas\x06\x00\x00\x00\x00\x00'
p2630
tp2631
Rp2632
Ntp2633
bsS'A400461'
p2634
g6
(g7
g11
Ntp2635
Rp2636
(S'A400461'
p2637
g15
(g19
S'\x00r\x16\xf96\xe9N?'
p2638
tp2639
Rp2640
I00
NI0
I1
NNNg2640
Ntp2641
bsS'std379938'
p2642
g6
(g7
g11
Ntp2643
Rp2644
(S'std379938'
p2645
g15
(g19
S'\xbdw&\xb80\xe8J@'
p2646
tp2647
Rp2648
I00
NI26
I156
NNNg2648
Ntp2649
bsS'A287492'
p2650
g6
(g7
g11
Ntp2651
Rp2652
(S'A287492'
p2653
g15
(g19
S'\xe0!l*\x08L\x87?'
p2654
tp2655
Rp2656
I00
NI0
I1
NNNg2656
Ntp2657
bsS'mu270603'
p2658
g6
(g7
g11
Ntp2659
Rp2660
(S'mu270603'
p2661
g15
(g19
S'l\xf9\xff\xffC\x84\x10A'
p2662
tp2663
Rp2664
I00
Ng15
(g46
S'\x05!\x04\x00\x00\x00\x00\x00'
p2665
tp2666
Rp2667
g15
(g46
S'\x11!\x04\x00\x00\x00\x00\x00'
p2668
tp2669
Rp2670
NNNg2664
Ntp2671
bsS'std359961'
p2672
g6
(g7
g11
Ntp2673
Rp2674
(S'std359961'
p2675
g15
(g19
S'\xff\xff\xff\xff\xff\x7fc@'
p2676
tp2677
Rp2678
I00
NI26
I156
NNNg2678
Ntp2679
bsS'std373953'
p2680
g6
(g7
g11
Ntp2681
Rp2682
(S'std373953'
p2683
g15
(g19
S'\xfe\xff\xff\xff\xff\x7fc@'
p2684
tp2685
Rp2686
I00
NI26
I156
NNNg2686
Ntp2687
bsS'mu400461'
p2688
g6
(g7
g11
Ntp2689
Rp2690
(S'mu400461'
p2691
g15
(g19
S'U\xa9\x12\x004q\x18A'
p2692
tp2693
Rp2694
I00
Ng15
(g46
S'G\x1c\x06\x00\x00\x00\x00\x00'
p2695
tp2696
Rp2697
g15
(g46
S'S\x1c\x06\x00\x00\x00\x00\x00'
p2698
tp2699
Rp2700
NNNg2694
Ntp2701
bsS'mu232591'
p2702
g6
(g7
g11
Ntp2703
Rp2704
(S'mu232591'
p2705
g15
(g19
S'f\xff\xff\xff\xa7d\x0cA'
p2706
tp2707
Rp2708
I01
Ng15
(g46
S'\x89\x8c\x03\x00\x00\x00\x00\x00'
p2709
tp2710
Rp2711
g15
(g46
S'\x95\x8c\x03\x00\x00\x00\x00\x00'
p2712
tp2713
Rp2714
NNNg15
(g46
S'\x8f\x8c\x03\x00\x00\x00\x00\x00'
p2715
tp2716
Rp2717
Ntp2718
bsS'mu395811'
p2719
g6
(g7
g11
Ntp2720
Rp2721
(S'mu395811'
p2722
g15
(g19
S'\x13\xab\xdc\xa8\x93(\x18A'
p2723
tp2724
Rp2725
I00
Ng15
(g46
S'\x1d\n\x06\x00\x00\x00\x00\x00'
p2726
tp2727
Rp2728
g15
(g46
S')\n\x06\x00\x00\x00\x00\x00'
p2729
tp2730
Rp2731
NNNg2725
Ntp2732
bsS'std398564'
p2733
g6
(g7
g11
Ntp2734
Rp2735
(S'std398564'
p2736
g15
(g19
S'|\x1a\xd5(\xfd\x7fc@'
p2737
tp2738
Rp2739
I01
NI26
I156
NNNI52
Ntp2740
bsS'mu358510'
p2741
g6
(g7
g11
Ntp2742
Rp2743
(S'mu358510'
p2744
g15
(g19
S'\xf3R\r\x00\xa0\xe1\x15A'
p2745
tp2746
Rp2747
I00
Ng15
(g46
S'hx\x05\x00\x00\x00\x00\x00'
p2748
tp2749
Rp2750
g15
(g46
S'tx\x05\x00\x00\x00\x00\x00'
p2751
tp2752
Rp2753
NNNg2747
Ntp2754
bsS'mu374432'
p2755
g6
(g7
g11
Ntp2756
Rp2757
(S'mu374432'
p2758
g15
(g19
S'U\x1a\xd5Bn\xda\x16A'
p2759
tp2760
Rp2761
I00
Ng15
(g46
S'\x9a\xb6\x05\x00\x00\x00\x00\x00'
p2762
tp2763
Rp2764
g15
(g46
S'\xa6\xb6\x05\x00\x00\x00\x00\x00'
p2765
tp2766
Rp2767
NNNg2761
Ntp2768
bsS'A382315'
p2769
g6
(g7
g11
Ntp2770
Rp2771
(S'A382315'
p2772
g15
(g19
S' \x7f\x94(\xd5\xfc\x8d?'
p2773
tp2774
Rp2775
I00
NI0
I1
NNNg2775
Ntp2776
bsS'std395811'
p2777
g6
(g7
g11
Ntp2778
Rp2779
(S'std395811'
p2780
g15
(g19
S'\xa2?\xf1\x8f<u_@'
p2781
tp2782
Rp2783
I00
NI26
I156
NNNg2783
Ntp2784
bsS'A358510'
p2785
g6
(g7
g11
Ntp2786
Rp2787
(S'A358510'
p2788
g15
(g19
S'\xd0\x80\xb8\xed\x04P\x9c?'
p2789
tp2790
Rp2791
I00
NI0
I1
NNNg2791
Ntp2792
bsS'std319000'
p2793
g6
(g7
g11
Ntp2794
Rp2795
(S'std319000'
p2796
g15
(g19
S'\xc5\xa3\x0f>E)\\@'
p2797
tp2798
Rp2799
I00
NI26
I156
NNNg2799
Ntp2800
bsS'mu319680'
p2801
g6
(g7
g11
Ntp2802
Rp2803
(S'mu319680'
p2804
g15
(g19
S'S\x90`\xba\x03\x83\x13A'
p2805
tp2806
Rp2807
I01
Ng15
(g46
S'\xba\xe0\x04\x00\x00\x00\x00\x00'
p2808
tp2809
Rp2810
g15
(g46
S'\xc6\xe0\x04\x00\x00\x00\x00\x00'
p2811
tp2812
Rp2813
NNNg15
(g19
S'\xf0\x10\x00\x00\xe8\x82\x13A'
p2814
tp2815
Rp2816
Ntp2817
bsS'std353627'
p2818
g6
(g7
g11
Ntp2819
Rp2820
(S'std353627'
p2821
g15
(g19
S'.p\x7fm\xd4XE@'
p2822
tp2823
Rp2824
I01
NI26
I156
NNNg15
(g19
S'\xd5~c\xbf\xff\x7fc@'
p2825
tp2826
Rp2827
Ntp2828
bsS'mu419183'
p2829
g6
(g7
g11
Ntp2830
Rp2831
(S'mu419183'
p2832
g15
(g19
S'\x06\r\x00\x00\xbc\x95\x19A'
p2833
tp2834
Rp2835
I00
Ng15
(g46
S'ie\x06\x00\x00\x00\x00\x00'
p2836
tp2837
Rp2838
g15
(g46
S'ue\x06\x00\x00\x00\x00\x00'
p2839
tp2840
Rp2841
NI0
Ng2835
Ntp2842
bsS'std360599'
p2843
g6
(g7
g11
Ntp2844
Rp2845
(S'std360599'
p2846
g15
(g19
S'\xc7\xb09]\xfe\x7fc@'
p2847
tp2848
Rp2849
I00
NI26
I156
NNNg2849
Ntp2850
bsS'std373705'
p2851
g6
(g7
g11
Ntp2852
Rp2853
(S'std373705'
p2854
g15
(g19
S'\x8as\xf9\xb9\xa2dT@'
p2855
tp2856
Rp2857
I00
NI26
I156
NNNg2857
Ntp2858
bsS'mu287621'
p2859
g6
(g7
g11
Ntp2860
Rp2861
(S'mu287621'
p2862
g15
(g19
S'\x01\x00\x00\x00\xfc\x8d\x11A'
p2863
tp2864
Rp2865
I00
Ng15
(g46
S'\x7fc\x04\x00\x00\x00\x00\x00'
p2866
tp2867
Rp2868
g15
(g46
S'\x8bc\x04\x00\x00\x00\x00\x00'
p2869
tp2870
Rp2871
NNNg2865
Ntp2872
bsS'inf'
p2873
Finf
sS'mu319204'
p2874
g6
(g7
g11
Ntp2875
Rp2876
(S'mu319204'
p2877
g15
(g19
S'\r\x01\x00\x00x{\x13A'
p2878
tp2879
Rp2880
I01
Ng15
(g46
S'\xde\xde\x04\x00\x00\x00\x00\x00'
p2881
tp2882
Rp2883
g15
(g46
S'\xea\xde\x04\x00\x00\x00\x00\x00'
p2884
tp2885
Rp2886
NNNg15
(g19
S'\r\x01\x00\x00x{\x13A'
p2887
tp2888
Rp2889
Ntp2890
bsS'std270807'
p2891
g6
(g7
g11
Ntp2892
Rp2893
(S'std270807'
p2894
g15
(g19
S'/2\xfd\xff\xff\x7fc@'
p2895
tp2896
Rp2897
I00
NI26
I156
NNNg2897
Ntp2898
bsS'std289048'
p2899
g6
(g7
g11
Ntp2900
Rp2901
(S'std289048'
p2902
g15
(g19
S'|\xff\xff\xff\xff\x7fc@'
p2903
tp2904
Rp2905
I01
NI26
I156
NNNg15
(g19
S'\xa2\xda}M\xff\x7fc@'
p2906
tp2907
Rp2908
Ntp2909
bsS'std369352'
p2910
g6
(g7
g11
Ntp2911
Rp2912
(S'std369352'
p2913
g15
(g19
S'O\xca\xfc\xff\xff\x7fc@'
p2914
tp2915
Rp2916
I00
NI26
I156
NNNg2916
Ntp2917
bsS'A11'
p2918
g6
(g7
g11
Ntp2919
Rp2920
(S'A11'
p2921
g15
(g19
S'\x00\x86\xbb4U\xb8C?'
p2922
tp2923
Rp2924
I01
NI0
I1
NNNg15
(g19
S'\x0e\x91\xfbT\xac\xf9;?'
p2925
tp2926
Rp2927
Ntp2928
bsS'A288940'
p2929
g6
(g7
g11
Ntp2930
Rp2931
(S'A288940'
p2932
g15
(g19
S'`A\xbc)\xb5p\x93?'
p2933
tp2934
Rp2935
I01
NI0
I1
NNNg15
(g19
S'\x90O\xe8\x9a\xf3\xa9\x94?'
p2936
tp2937
Rp2938
Ntp2939
bsS'A287621'
p2940
g6
(g7
g11
Ntp2941
Rp2942
(S'A287621'
p2943
g15
(g19
S'`k0\x91\x81k\x9e?'
p2944
tp2945
Rp2946
I00
NI0
I1
NNNg2946
Ntp2947
bsS'A369714'
p2948
g6
(g7
g11
Ntp2949
Rp2950
(S'A369714'
p2951
g15
(g19
S'\x10\x10=\x0e\xa0d\x96?'
p2952
tp2953
Rp2954
I01
NI0
I1
NNNg15
(g19
S'\xf9+\x9f\x80\xd2&\x94?'
p2955
tp2956
Rp2957
Ntp2958
bsS'nan'
p2959
Fnan
sS'vregion14'
p2960
g6
(g7
g11
Ntp2961
Rp2962
(S'vregion14'
p2963
g15
(g19
S'\xc8~<\x01\x00\x00\xf0?'
p2964
tp2965
Rp2966
I01
NI1
Finf
NNNF2.5
Ntp2967
bsS'A373705'
p2968
g6
(g7
g11
Ntp2969
Rp2970
(S'A373705'
p2971
g15
(g19
S'\x10ia9\rf\x9c?'
p2972
tp2973
Rp2974
I00
NI0
I1
NNNg2974
Ntp2975
bsS'A419183'
p2976
g6
(g7
g11
Ntp2977
Rp2978
(S'A419183'
p2979
g15
(g19
S'x\xb3\xa0`\xcb\xb0\xb9?'
p2980
tp2981
Rp2982
I00
NI0
I1
NI0
Ng2982
Ntp2983
bsS'A375605'
p2984
g6
(g7
g11
Ntp2985
Rp2986
(S'A375605'
p2987
g15
(g19
S'\x80D\xeb\xf4\x1e_p?'
p2988
tp2989
Rp2990
I01
NI0
I1
NNNg15
(g19
S'@\xefab\x0b;x?'
p2991
tp2992
Rp2993
Ntp2994
bsS'vregion10'
p2995
g6
(g7
g11
Ntp2996
Rp2997
(S'vregion10'
p2998
g15
(g19
S'\x07r\xb1\x00\x00\x00\xf0?'
p2999
tp3000
Rp3001
I01
NI1
Finf
NNNg15
(g19
S'\x07r\xb1\x00\x00\x00\xf0?'
p3002
tp3003
Rp3004
Ntp3005
bsS'vregion11'
p3006
g6
(g7
g11
Ntp3007
Rp3008
(S'vregion11'
p3009
g15
(g19
S'\x9e:\x06\x00\x00\x00\xf0?'
p3010
tp3011
Rp3012
I01
NI1
Finf
NNNg15
(g19
S'\x9e:\x06\x00\x00\x00\xf0?'
p3013
tp3014
Rp3015
Ntp3016
bsS'vregion12'
p3017
g6
(g7
g11
Ntp3018
Rp3019
(S'vregion12'
p3020
g15
(g19
S'\rd\x00\x00\x00\x00\xf0?'
p3021
tp3022
Rp3023
I01
NI1
Finf
NNNg15
(g19
S'\rd\x00\x00\x00\x00\xf0?'
p3024
tp3025
Rp3026
Ntp3027
bsS'vregion13'
p3028
g6
(g7
g11
Ntp3029
Rp3030
(S'vregion13'
p3031
g15
(g19
S'Y\xf0\x03\x01\x00\x00\xf0?'
p3032
tp3033
Rp3034
I01
NI1
Finf
NNNg15
(g19
S'Y\xf0\x03\x01\x00\x00\xf0?'
p3035
tp3036
Rp3037
Ntp3038
bsS'std418951'
p3039
g6
(g7
g11
Ntp3040
Rp3041
(S'std418951'
p3042
g15
(g19
S'p\xc1?\xe4\xa4\x93W@'
p3043
tp3044
Rp3045
I00
NI26
I156
NI0
Ng3045
Ntp3046
bsS'A353479'
p3047
g6
(g7
g11
Ntp3048
Rp3049
(S'A353479'
p3050
g15
(g19
S'\x00\xb0;\rV\xc6_?'
p3051
tp3052
Rp3053
I01
NI0
I1
NNNg15
(g19
S'\xea.D\xc7\xb8\xdd_?'
p3054
tp3055
Rp3056
Ntp3057
bsS'mu373953'
p3058
g6
(g7
g11
Ntp3059
Rp3060
(S'mu373953'
p3061
g15
(g19
S'\x02\x00\x00\x00\xec\xd2\x16A'
p3062
tp3063
Rp3064
I00
Ng15
(g46
S'\xbb\xb4\x05\x00\x00\x00\x00\x00'
p3065
tp3066
Rp3067
g15
(g46
S'\xc7\xb4\x05\x00\x00\x00\x00\x00'
p3068
tp3069
Rp3070
NNNg3064
Ntp3071
bsS'std270141'
p3072
g6
(g7
g11
Ntp3073
Rp3074
(S'std270141'
p3075
g15
(g19
S'\x907\xb2\xff\xff\x7fc@'
p3076
tp3077
Rp3078
I01
NI26
I156
NNNg15
(g19
S'\x8eW\xc3\xff\xff\x7fc@'
p3079
tp3080
Rp3081
Ntp3082
bsS'vregion16'
p3083
g6
(g7
g11
Ntp3084
Rp3085
(g2527
g15
(g19
S'"\x1dl\xc7g\xdf\xf3?'
p3086
tp3087
Rp3088
I01
NI1
Finf
Ng15
(g19
S'S\xba\xa6\x1b\xa9\xf6\x95?'
p3089
tp3090
Rp3091
(dp3092
g2531
g15
(g19
S'*aI\x8eS\x1c\xd8\xbf'
p3093
tp3094
Rp3095
sg2519
g15
(g19
S'\xac?\xf2"\xf6.\x91\xbf'
p3096
tp3097
Rp3098
sg2535
g15
(g19
S"\xca/?\xcc\x93'\xad?"
p3099
tp3100
Rp3101
sF2.5
Ntp3102
bsS'A290175'
p3103
g6
(g7
g11
Ntp3104
Rp3105
(S'A290175'
p3106
g15
(g19
S'\xe0O\xdf\xec\xcc}\x92?'
p3107
tp3108
Rp3109
I00
NI0
I1
NNNg3109
Ntp3110
bsS'A381840'
p3111
g6
(g7
g11
Ntp3112
Rp3113
(S'A381840'
p3114
g15
(g19
S'@\xacnrWl\x94?'
p3115
tp3116
Rp3117
I00
NI0
I1
NNNg3117
Ntp3118
bsS'mu417647'
p3119
g6
(g7
g11
Ntp3120
Rp3121
(S'mu417647'
p3122
g15
(g19
S'p^h\xc8\xd3}\x19A'
p3123
tp3124
Rp3125
I00
Ng15
(g46
S'i_\x06\x00\x00\x00\x00\x00'
p3126
tp3127
Rp3128
g15
(g46
S'u_\x06\x00\x00\x00\x00\x00'
p3129
tp3130
Rp3131
NI0
Ng3125
Ntp3132
bsS'std420368'
p3133
g6
(g7
g11
Ntp3134
Rp3135
(S'std420368'
p3136
g15
(g19
S'Ar\x16\xd1G\xb7^@'
p3137
tp3138
Rp3139
I00
NI26
I156
NI0
Ng3139
Ntp3140
bsS'std269394'
p3141
g6
(g7
g11
Ntp3142
Rp3143
(S'std269394'
p3144
g15
(g19
S'p(\x8d\xc5>AT@'
p3145
tp3146
Rp3147
I00
NI26
I156
NNNg3147
Ntp3148
bsS'A270239'
p3149
g6
(g7
g11
Ntp3150
Rp3151
(S'A270239'
p3152
g15
(g19
S'\xc0"\x9a;\x97vx?'
p3153
tp3154
Rp3155
I01
NI0
I1
NNNg15
(g19
S'\x80\x96\xc9\xeal\x05s?'
p3156
tp3157
Rp3158
Ntp3159
bsS'A289048'
p3160
g6
(g7
g11
Ntp3161
Rp3162
(S'A289048'
p3163
g15
(g19
S'@\x8aS\xb0;Q\x95?'
p3164
tp3165
Rp3166
I01
NI0
I1
NNNg15
(g19
S'\x80\xbb\xa0\xca\xd3\x0f\x95?'
p3167
tp3168
Rp3169
Ntp3170
bsS'A375119'
p3171
g6
(g7
g11
Ntp3172
Rp3173
(S'A375119'
p3174
g15
(g19
S'\x80\xdb@\xb9,\xcc\x87?'
p3175
tp3176
Rp3177
I01
NI0
I1
NNNg15
(g19
S'\xc0\xa1=(\x01\xd7\x88?'
p3178
tp3179
Rp3180
Ntp3181
bsS'std396258'
p3182
g6
(g7
g11
Ntp3183
Rp3184
(S'std396258'
p3185
g15
(g19
S'\xce\xe1Wb\xa7U^@'
p3186
tp3187
Rp3188
I00
NI26
I156
NNNg3188
Ntp3189
bsS'A319680'
p3190
g6
(g7
g11
Ntp3191
Rp3192
(S'A319680'
p3193
g15
(g19
S'\x90\x03:\xbe\xac\x1c\x99?'
p3194
tp3195
Rp3196
I01
NI0
I1
NNNg15
(g19
S'ph\xcess}\x9d?'
p3197
tp3198
Rp3199
Ntp3200
bsS'A392156'
p3201
g6
(g7
g11
Ntp3202
Rp3203
(S'A392156'
p3204
g15
(g19
S'\x80b\x8b\xf1\x01\x92j?'
p3205
tp3206
Rp3207
I01
NI0
I1
NNNg15
(g19
S'\x00\x82\x90\xd6\x12\x92j?'
p3208
tp3209
Rp3210
Ntp3211
bsS'std271181'
p3212
g6
(g7
g11
Ntp3213
Rp3214
(S'std271181'
p3215
g15
(g19
S'\xfb2\xc1\xfe\xff\x7fc@'
p3216
tp3217
Rp3218
I00
NI26
I156
NNNg3218
Ntp3219
bsS'mu370262'
p3220
g6
(g7
g11
Ntp3221
Rp3222
(S'mu370262'
p3223
g15
(g19
S'\xa3\t\x00\x00@\x99\x16A'
p3224
tp3225
Rp3226
I00
Ng15
(g46
S'P\xa6\x05\x00\x00\x00\x00\x00'
p3227
tp3228
Rp3229
g15
(g46
S'\\\xa6\x05\x00\x00\x00\x00\x00'
p3230
tp3231
Rp3232
NNNg3226
Ntp3233
bsS'A422874'
p3234
g6
(g7
g11
Ntp3235
Rp3236
(g2531
g15
(g19
S'\xc0O\xcd\x99\xdf\xf9u?'
p3237
tp3238
Rp3239
I01
NI0
I1
Ng15
(g19
S'\xab\x89l\x82\x98\x08\xe9>'
p3240
tp3241
Rp3242
(dp3243
g2527
g15
(g19
S'(aI\x8eS\x1c\xd8\xbf'
p3244
tp3245
Rp3246
sg2519
g15
(g19
S'\x9c\x1f\xb7\xd4\x06S\xe4\xbf'
p3247
tp3248
Rp3249
sg2535
g15
(g19
S'\x1e\xdc=Bzq\x88?'
p3250
tp3251
Rp3252
sg15
(g19
S'>\t\xaf\xcb};u?'
p3253
tp3254
Rp3255
Ntp3256
bsS'mu290175'
p3257
g6
(g7
g11
Ntp3258
Rp3259
(S'mu290175'
p3260
g15
(g19
S'\x80\x02\x00\x00\xe4\xb5\x11A'
p3261
tp3262
Rp3263
I00
Ng15
(g46
S'ym\x04\x00\x00\x00\x00\x00'
p3264
tp3265
Rp3266
g15
(g46
S'\x85m\x04\x00\x00\x00\x00\x00'
p3267
tp3268
Rp3269
NNNg3263
Ntp3270
bsS'A360493'
p3271
g6
(g7
g11
Ntp3272
Rp3273
(S'A360493'
p3274
g15
(g19
S'\xc0\xbf!\xf7\xe3I\x89?'
p3275
tp3276
Rp3277
I00
NI0
I1
NNNg3277
Ntp3278
bsS'std270239'
p3279
g6
(g7
g11
Ntp3280
Rp3281
(S'std270239'
p3282
g15
(g19
S'p\xd2\xac\x13\xfd\x7fc@'
p3283
tp3284
Rp3285
I01
NI26
I156
NNNg15
(g19
S'u\xfct\xce\xf9\x7fc@'
p3286
tp3287
Rp3288
Ntp3289
bsS'mu375119'
p3290
g6
(g7
g11
Ntp3291
Rp3292
(S'mu375119'
p3293
g15
(g19
S'Cw\x13\xc3<\xe5\x16A'
p3294
tp3295
Rp3296
I01
Ng15
(g46
S'I\xb9\x05\x00\x00\x00\x00\x00'
p3297
tp3298
Rp3299
g15
(g46
S'U\xb9\x05\x00\x00\x00\x00\x00'
p3300
tp3301
Rp3302
NNNg15
(g19
S'g\xe6\xff\xffS\xe5\x16A'
p3303
tp3304
Rp3305
Ntp3306
bsS'std419504'
p3307
g6
(g7
g11
Ntp3308
Rp3309
(S'std419504'
p3310
g15
(g19
S'0\x0e6\xdd\xff\x7fc@'
p3311
tp3312
Rp3313
I00
NI26
I156
NI0
Ng3313
Ntp3314
bsS'std391705'
p3315
g6
(g7
g11
Ntp3316
Rp3317
(S'std391705'
p3318
g15
(g19
S'\xf7\x16c\xa4\x1a|c@'
p3319
tp3320
Rp3321
I01
NI26
I156
NNNg15
(g19
S'\xa9j\xab\xb0\xff\x7fc@'
p3322
tp3323
Rp3324
Ntp3325
bsS'A290063'
p3326
g6
(g7
g11
Ntp3327
Rp3328
(S'A290063'
p3329
g15
(g19
S'0\x07tw\xb0\x93\x92?'
p3330
tp3331
Rp3332
I00
NI0
I1
NNNg3332
Ntp3333
bsS'std374432'
p3334
g6
(g7
g11
Ntp3335
Rp3336
(S'std374432'
p3337
g15
(g19
S'\xf8\x0e0\xe4\xdd\x7fc@'
p3338
tp3339
Rp3340
I00
NI26
I156
NNNg3340
Ntp3341
bsS'mu373483'
p3342
g6
(g7
g11
Ntp3343
Rp3344
(S'mu373483'
p3345
g15
(g19
S'\xc1\xff\xff\xff\xc3\xcb\x16A'
p3346
tp3347
Rp3348
I00
Ng15
(g46
S'\xe5\xb2\x05\x00\x00\x00\x00\x00'
p3349
tp3350
Rp3351
g15
(g46
S'\xf1\xb2\x05\x00\x00\x00\x00\x00'
p3352
tp3353
Rp3354
NNNg3348
Ntp3355
bsS'mu396001'
p3356
g6
(g7
g11
Ntp3357
Rp3358
(S'mu396001'
p3359
g15
(g19
S'\xad\xd1\xe1\xaa\x93+\x18A'
p3360
tp3361
Rp3362
I00
Ng15
(g46
S'\xdb\n\x06\x00\x00\x00\x00\x00'
p3363
tp3364
Rp3365
g15
(g46
S'\xe7\n\x06\x00\x00\x00\x00\x00'
p3366
tp3367
Rp3368
NNNg3362
Ntp3369
bsS'vregion6'
p3370
g6
(g7
g11
Ntp3371
Rp3372
(S'vregion6'
p3373
g15
(g19
S'*oe\xf3\xdc\\A@'
p3374
tp3375
Rp3376
I01
NI1
Finf
NNNg15
(g19
S'\x8a \xa3M\x00\x00\xf0?'
p3377
tp3378
Rp3379
Ntp3380
bsS'mu269563'
p3381
g6
(g7
g11
Ntp3382
Rp3383
(S'mu269563'
p3384
g15
(g19
S'\x90\x02\xc5\xbf\xe2s\x10A'
p3385
tp3386
Rp3387
I00
Ng15
(g46
S'\xf5\x1c\x04\x00\x00\x00\x00\x00'
p3388
tp3389
Rp3390
g15
(g46
S'\x01\x1d\x04\x00\x00\x00\x00\x00'
p3391
tp3392
Rp3393
NNNg3387
Ntp3394
bsS'std419183'
p3395
g6
(g7
g11
Ntp3396
Rp3397
(S'std419183'
p3398
g15
(g19
S'\xea\x1d\xf4\xff\xff\x7fc@'
p3399
tp3400
Rp3401
I00
NI26
I156
NI0
Ng3401
Ntp3402
bsS'mu359569'
p3403
g6
(g7
g11
Ntp3404
Rp3405
(S'mu359569'
p3406
g15
(g19
S'\x01\x00\x00\x00,\xf2\x15A'
p3407
tp3408
Rp3409
I00
Ng15
(g46
S'\x8b|\x05\x00\x00\x00\x00\x00'
p3410
tp3411
Rp3412
g15
(g46
S'\x97|\x05\x00\x00\x00\x00\x00'
p3413
tp3414
Rp3415
NNNg3409
Ntp3416
bsS'e'
p3417
F2.718281828459045
sS'mu269394'
p3418
g6
(g7
g11
Ntp3419
Rp3420
(S'mu269394'
p3421
g15
(g19
S'\xa2&\\\x00Hq\x10A'
p3422
tp3423
Rp3424
I00
Ng15
(g46
S'L\x1c\x04\x00\x00\x00\x00\x00'
p3425
tp3426
Rp3427
g15
(g46
S'X\x1c\x04\x00\x00\x00\x00\x00'
p3428
tp3429
Rp3430
NNNg3424
Ntp3431
bsS'vregion0'
p3432
g6
(g7
g11
Ntp3433
Rp3434
(S'vregion0'
p3435
g15
(g19
S'\x8cf\x13\x7f/*U@'
p3436
tp3437
Rp3438
I01
NI1
Finf
NNNF2.5
Ntp3439
bsS'vregion1'
p3440
g6
(g7
g11
Ntp3441
Rp3442
(S'vregion1'
p3443
g15
(g19
S'G\x07\xe6\xd4\xc7o\x07@'
p3444
tp3445
Rp3446
I01
NI1
Finf
NNNF2.5
Ntp3447
bsS'mu374162'
p3448
g6
(g7
g11
Ntp3449
Rp3450
(S'mu374162'
p3451
g15
(g19
S'\xdf\x91\xe1\x10F\xd6\x16A'
p3452
tp3453
Rp3454
I00
Ng15
(g46
S'\x8c\xb5\x05\x00\x00\x00\x00\x00'
p3455
tp3456
Rp3457
g15
(g46
S'\x98\xb5\x05\x00\x00\x00\x00\x00'
p3458
tp3459
Rp3460
NNNg3454
Ntp3461
bsS'A271350'
p3462
g6
(g7
g11
Ntp3463
Rp3464
(S'A271350'
p3465
g15
(g19
S'@\x07\x9c`\xbfZ\x80?'
p3466
tp3467
Rp3468
I00
NI0
I1
NNNg3468
Ntp3469
bsS'A395811'
p3470
g6
(g7
g11
Ntp3471
Rp3472
(S'A395811'
p3473
g15
(g19
S'\xd0\xfbFu\x9f\x9e\xc4?'
p3474
tp3475
Rp3476
I00
NI0
I1
NNNg3476
Ntp3477
bsS'std290286'
p3478
g6
(g7
g11
Ntp3479
Rp3480
(S'std290286'
p3481
g15
(g19
S'\xe4\x8ac\x81\xe9\x7fc@'
p3482
tp3483
Rp3484
I00
NI26
I156
NNNg3484
Ntp3485
bsS'mu380416'
p3486
g6
(g7
g11
Ntp3487
Rp3488
(S'mu380416'
p3489
g15
(g19
S'.q\x98S\xfe7\x17A'
p3490
tp3491
Rp3492
I00
Ng15
(g46
S'\xfa\xcd\x05\x00\x00\x00\x00\x00'
p3493
tp3494
Rp3495
g15
(g46
S'\x06\xce\x05\x00\x00\x00\x00\x00'
p3496
tp3497
Rp3498
NNNg3492
Ntp3499
bsS'mu398102'
p3500
g6
(g7
g11
Ntp3501
Rp3502
(S'mu398102'
p3503
g15
(g19
S'\xd0WQ\x1ajL\x18A'
p3504
tp3505
Rp3506
I00
Ng15
(g46
S'\x10\x13\x06\x00\x00\x00\x00\x00'
p3507
tp3508
Rp3509
g15
(g46
S'\x1c\x13\x06\x00\x00\x00\x00\x00'
p3510
tp3511
Rp3512
NNNg3506
Ntp3513
bsS'mu270239'
p3514
g6
(g7
g11
Ntp3515
Rp3516
(S'mu270239'
p3517
g15
(g19
S'\xee\xff\xff\xff\x93~\x10A'
p3518
tp3519
Rp3520
I01
Ng15
(g46
S'\x99\x1f\x04\x00\x00\x00\x00\x00'
p3521
tp3522
Rp3523
g15
(g46
S'\xa5\x1f\x04\x00\x00\x00\x00\x00'
p3524
tp3525
Rp3526
NNNg15
(g19
S'\xee\xff\xff\xff\x93~\x10A'
p3527
tp3528
Rp3529
Ntp3530
bsS'mu391705'
p3531
g6
(g7
g11
Ntp3532
Rp3533
(S'mu391705'
p3534
g15
(g19
S' \xaf\x9ac{\xe8\x17A'
p3535
tp3536
Rp3537
I01
Ng15
(g46
S'\x13\xfa\x05\x00\x00\x00\x00\x00'
p3538
tp3539
Rp3540
g15
(g46
S'\x1f\xfa\x05\x00\x00\x00\x00\x00'
p3541
tp3542
Rp3543
NNNg15
(g19
S';\xf5\xff\xff{\xe8\x17A'
p3544
tp3545
Rp3546
Ntp3547
bsS'mu395520'
p3548
g6
(g7
g11
Ntp3549
Rp3550
(S'mu395520'
p3551
g15
(g19
S'J>\xcb\xe5\xf4#\x18A'
p3552
tp3553
Rp3554
I00
Ng15
(g46
S'\xfa\x08\x06\x00\x00\x00\x00\x00'
p3555
tp3556
Rp3557
g15
(g46
S'\x06\t\x06\x00\x00\x00\x00\x00'
p3558
tp3559
Rp3560
NNNg3554
Ntp3561
bsS'A370262'
p3562
g6
(g7
g11
Ntp3563
Rp3564
(S'A370262'
p3565
g15
(g19
S'p\xfa\xe1n\xdb\xb2\x99?'
p3566
tp3567
Rp3568
I00
NI0
I1
NNNg3568
Ntp3569
bsS'A374432'
p3570
g6
(g7
g11
Ntp3571
Rp3572
(S'A374432'
p3573
g15
(g19
S'\xc0O\xf0}/3\x8b?'
p3574
tp3575
Rp3576
I00
NI0
I1
NNNg3576
Ntp3577
bsS'A373266'
p3578
g6
(g7
g11
Ntp3579
Rp3580
(S'A373266'
p3581
g15
(g19
S'\xc0\x19_X\xbf\xb2|?'
p3582
tp3583
Rp3584
I00
NI0
I1
NNNg3584
Ntp3585
bsS'mu400174'
p3586
g6
(g7
g11
Ntp3587
Rp3588
(S'mu400174'
p3589
g15
(g19
S'\x8aCu\x8e\xc3l\x18A'
p3590
tp3591
Rp3592
I01
Ng15
(g46
S'(\x1b\x06\x00\x00\x00\x00\x00'
p3593
tp3594
Rp3595
g15
(g46
S'4\x1b\x06\x00\x00\x00\x00\x00'
p3596
tp3597
Rp3598
NNNg15
(g19
S'\xd9\xce\xfe\xec\xa1l\x18A'
p3599
tp3600
Rp3601
Ntp3602
bsS'A418743'
p3603
g6
(g7
g11
Ntp3604
Rp3605
(S'A418743'
p3606
g15
(g19
S'\xf4c\x88("\xd3\xb2?'
p3607
tp3608
Rp3609
I00
NI0
I1
NI0
Ng3609
Ntp3610
bsS'std271350'
p3611
g6
(g7
g11
Ntp3612
Rp3613
(S'std271350'
p3614
g15
(g19
S'\x1b\x88\x07\x11b\x17U@'
p3615
tp3616
Rp3617
I00
NI26
I156
NNNg3617
Ntp3618
bsS'mu319879'
p3619
g6
(g7
g11
Ntp3620
Rp3621
(S'mu319879'
p3622
g15
(g19
S'\xcd\xf5\xff\xff3\x86\x13A'
p3623
tp3624
Rp3625
I00
Ng15
(g46
S'\x81\xe1\x04\x00\x00\x00\x00\x00'
p3626
tp3627
Rp3628
g15
(g46
S'\x8d\xe1\x04\x00\x00\x00\x00\x00'
p3629
tp3630
Rp3631
NNNg3625
Ntp3632
bsS'std369714'
p3633
g6
(g7
g11
Ntp3634
Rp3635
(S'std369714'
p3636
g15
(g19
S'\xf2d\xf2\xf4\x08\xcfW@'
p3637
tp3638
Rp3639
I01
NI26
I156
NNNI52
Ntp3640
bssS'params'
p3641
(lp3642
g6
(g7
g11
Ntp3643
Rp3644
(g3432
g6
(g7
g11
Ntp3645
Rp3646
(g3435
g15
(g19
S'\x8cf\x13\x7f/*U@'
p3647
tp3648
Rp3649
I01
NI1
Finf
NNNF2.5
Ntp3650
bI01
NF-inf
Finf
NNNg3646
Ntp3651
bag6
(g7
g11
Ntp3652
Rp3653
(g2918
g6
(g7
g11
Ntp3654
Rp3655
(g2921
g15
(g19
S'\x00\x86\xbb4U\xb8C?'
p3656
tp3657
Rp3658
I01
NI0
I1
NNNg15
(g19
S'\x0e\x91\xfbT\xac\xf9;?'
p3659
tp3660
Rp3661
Ntp3662
bI01
NF-inf
Finf
NNNg3655
Ntp3663
bag6
(g7
g11
Ntp3664
Rp3665
(g932
g6
(g7
g11
Ntp3666
Rp3667
(g935
g15
(g19
S'\xfe\xff\xff\xff\xff\x7fc@'
p3668
tp3669
Rp3670
I01
NI26
I156
NNNI52
Ntp3671
bI01
NF-inf
Finf
NNNg3667
Ntp3672
bag6
(g7
g11
Ntp3673
Rp3674
(g439
g6
(g7
g11
Ntp3675
Rp3676
(g442
g15
(g19
S'1\x99\xf4\xac\xd4\xff0@'
p3677
tp3678
Rp3679
I01
Ng15
(g46
S'\x05\x00\x00\x00\x00\x00\x00\x00'
p3680
tp3681
Rp3682
g15
(g46
S'\x11\x00\x00\x00\x00\x00\x00\x00'
p3683
tp3684
Rp3685
NNNg15
(g46
S'\x0b\x00\x00\x00\x00\x00\x00\x00'
p3686
tp3687
Rp3688
Ntp3689
bI00
NF-inf
Finf
NNNg3676
Ntp3690
bag6
(g7
g11
Ntp3691
Rp3692
(g3440
g6
(g7
g11
Ntp3693
Rp3694
(g3443
g15
(g19
S'G\x07\xe6\xd4\xc7o\x07@'
p3695
tp3696
Rp3697
I01
NI1
Finf
NNNF2.5
Ntp3698
bI01
NF-inf
Finf
NNNg3694
Ntp3699
bag6
(g7
g11
Ntp3700
Rp3701
(g2395
g6
(g7
g11
Ntp3702
Rp3703
(g2398
g15
(g19
S'\xe0\xdc9A06\x91?'
p3704
tp3705
Rp3706
I01
NI0
I1
NNNg15
(g19
S'\x11C\xd7G=\xeb\x8e?'
p3707
tp3708
Rp3709
Ntp3710
bI01
NF-inf
Finf
NNNg3703
Ntp3711
bag6
(g7
g11
Ntp3712
Rp3713
(g195
g6
(g7
g11
Ntp3714
Rp3715
(g198
g15
(g19
S'(\xca\x86M\x0egQ@'
p3716
tp3717
Rp3718
I01
NI26
I156
NNNI52
Ntp3719
bI01
NF-inf
Finf
NNNg3715
Ntp3720
bag6
(g7
g11
Ntp3721
Rp3722
(g2702
g6
(g7
g11
Ntp3723
Rp3724
(g2705
g15
(g19
S'f\xff\xff\xff\xa7d\x0cA'
p3725
tp3726
Rp3727
I01
Ng15
(g46
S'\x89\x8c\x03\x00\x00\x00\x00\x00'
p3728
tp3729
Rp3730
g15
(g46
S'\x95\x8c\x03\x00\x00\x00\x00\x00'
p3731
tp3732
Rp3733
NNNg15
(g46
S'\x8f\x8c\x03\x00\x00\x00\x00\x00'
p3734
tp3735
Rp3736
Ntp3737
bI00
NF-inf
Finf
NNNg3724
Ntp3738
bag6
(g7
g11
Ntp3739
Rp3740
(g2298
g6
(g7
g11
Ntp3741
Rp3742
(g2301
g15
(g19
S'\xc5\xdd_\x01\x00\x00\xf0?'
p3743
tp3744
Rp3745
I01
NI1
Finf
NNNg15
(g19
S'\xc5\xdd_\x01\x00\x00\xf0?'
p3746
tp3747
Rp3748
Ntp3749
bI01
NF-inf
Finf
NNNg3742
Ntp3750
bag6
(g7
g11
Ntp3751
Rp3752
(g900
g6
(g7
g11
Ntp3753
Rp3754
(g903
g15
(g19
S'\x80\x16(WHmv?'
p3755
tp3756
Rp3757
I00
NI0
I1
NNNg3757
Ntp3758
bI01
NF-inf
Finf
NNNg3754
Ntp3759
bag6
(g7
g11
Ntp3760
Rp3761
(g948
g6
(g7
g11
Ntp3762
Rp3763
(g951
g15
(g19
S'\xc5\xfbe\x8c\x0b\xab^@'
p3764
tp3765
Rp3766
I00
NI26
I156
NNNg3766
Ntp3767
bI01
NF-inf
Finf
NNNg3763
Ntp3768
bag6
(g7
g11
Ntp3769
Rp3770
(g2309
g6
(g7
g11
Ntp3771
Rp3772
(g2312
g15
(g19
S'\xbd\xebP\xff\x7fk\x10A'
p3773
tp3774
Rp3775
I00
Ng15
(g46
S'\xd4\x1a\x04\x00\x00\x00\x00\x00'
p3776
tp3777
Rp3778
g15
(g46
S'\xe0\x1a\x04\x00\x00\x00\x00\x00'
p3779
tp3780
Rp3781
NNNg3775
Ntp3782
bI00
NF-inf
Finf
NNNg3772
Ntp3783
bag6
(g7
g11
Ntp3784
Rp3785
(g1026
g6
(g7
g11
Ntp3786
Rp3787
(g1029
g15
(g19
S'@K\xd5LP\\z?'
p3788
tp3789
Rp3790
I00
NI0
I1
NNNg3790
Ntp3791
bI01
NF-inf
Finf
NNNg3787
Ntp3792
bag6
(g7
g11
Ntp3793
Rp3794
(g3141
g6
(g7
g11
Ntp3795
Rp3796
(g3144
g15
(g19
S'p(\x8d\xc5>AT@'
p3797
tp3798
Rp3799
I00
NI26
I156
NNNg3799
Ntp3800
bI01
NF-inf
Finf
NNNg3796
Ntp3801
bag6
(g7
g11
Ntp3802
Rp3803
(g3418
g6
(g7
g11
Ntp3804
Rp3805
(g3421
g15
(g19
S'\xa2&\\\x00Hq\x10A'
p3806
tp3807
Rp3808
I00
Ng15
(g46
S'L\x1c\x04\x00\x00\x00\x00\x00'
p3809
tp3810
Rp3811
g15
(g46
S'X\x1c\x04\x00\x00\x00\x00\x00'
p3812
tp3813
Rp3814
NNNg3808
Ntp3815
bI00
NF-inf
Finf
NNNg3805
Ntp3816
bag6
(g7
g11
Ntp3817
Rp3818
(g1850
g6
(g7
g11
Ntp3819
Rp3820
(g1853
g15
(g19
S'\x00I&\x99\x10\x05t?'
p3821
tp3822
Rp3823
I00
NI0
I1
NNNg3823
Ntp3824
bI01
NF-inf
Finf
NNNg3820
Ntp3825
bag6
(g7
g11
Ntp3826
Rp3827
(g1549
g6
(g7
g11
Ntp3828
Rp3829
(g1552
g15
(g19
S'\xa2(\xd6Gj\xbcW@'
p3830
tp3831
Rp3832
I00
NI26
I156
NNNg3832
Ntp3833
bI01
NF-inf
Finf
NNNg3829
Ntp3834
bag6
(g7
g11
Ntp3835
Rp3836
(g3381
g6
(g7
g11
Ntp3837
Rp3838
(g3384
g15
(g19
S'\x90\x02\xc5\xbf\xe2s\x10A'
p3839
tp3840
Rp3841
I00
Ng15
(g46
S'\xf5\x1c\x04\x00\x00\x00\x00\x00'
p3842
tp3843
Rp3844
g15
(g46
S'\x01\x1d\x04\x00\x00\x00\x00\x00'
p3845
tp3846
Rp3847
NNNg3841
Ntp3848
bI00
NF-inf
Finf
NNNg3838
Ntp3849
bag6
(g7
g11
Ntp3850
Rp3851
(g1445
g6
(g7
g11
Ntp3852
Rp3853
(g1448
g15
(g19
S'\xc0\xa8\xae@u\x18|?'
p3854
tp3855
Rp3856
I00
NI0
I1
NNNg3856
Ntp3857
bI01
NF-inf
Finf
NNNg3853
Ntp3858
bag6
(g7
g11
Ntp3859
Rp3860
(g2273
g6
(g7
g11
Ntp3861
Rp3862
(g2276
g15
(g19
S'\xc0\xe2\xae\xfe\xff\x7fc@'
p3863
tp3864
Rp3865
I00
NI26
I156
NNNg3865
Ntp3866
bI01
NF-inf
Finf
NNNg3862
Ntp3867
bag6
(g7
g11
Ntp3868
Rp3869
(g1232
g6
(g7
g11
Ntp3870
Rp3871
(g1235
g15
(g19
S'\xb2.\xed\xce\xd2u\x10A'
p3872
tp3873
Rp3874
I00
Ng15
(g46
S'o\x1d\x04\x00\x00\x00\x00\x00'
p3875
tp3876
Rp3877
g15
(g46
S'{\x1d\x04\x00\x00\x00\x00\x00'
p3878
tp3879
Rp3880
NNNg3874
Ntp3881
bI00
NF-inf
Finf
NNNg3871
Ntp3882
bag6
(g7
g11
Ntp3883
Rp3884
(g1322
g6
(g7
g11
Ntp3885
Rp3886
(g1325
g15
(g19
S'\x80\xe3\xa1\xaf\xd8#u?'
p3887
tp3888
Rp3889
I01
NI0
I1
NNNg15
(g19
S'\x00\x84[\xda\x0b\xcax?'
p3890
tp3891
Rp3892
Ntp3893
bI01
NF-inf
Finf
NNNg3886
Ntp3894
bag6
(g7
g11
Ntp3895
Rp3896
(g95
g6
(g7
g11
Ntp3897
Rp3898
(g98
g15
(g19
S'\xde\x1f\x1e\x8d\x83\x0eK@'
p3899
tp3900
Rp3901
I01
NI26
I156
NNNg15
(g19
S'\xdb\xc1\xadR@\xd7S@'
p3902
tp3903
Rp3904
Ntp3905
bI01
NF-inf
Finf
NNNg3898
Ntp3906
bag6
(g7
g11
Ntp3907
Rp3908
(g1286
g6
(g7
g11
Ntp3909
Rp3910
(g1289
g15
(g19
S'\xf2\r\xa6\x1a\xc3y\x10A'
p3911
tp3912
Rp3913
I01
Ng15
(g46
S'j\x1e\x04\x00\x00\x00\x00\x00'
p3914
tp3915
Rp3916
g15
(g46
S'v\x1e\x04\x00\x00\x00\x00\x00'
p3917
tp3918
Rp3919
NNNg15
(g19
S'\xd4\xd0\xff\xff\xd7y\x10A'
p3920
tp3921
Rp3922
Ntp3923
bI00
NF-inf
Finf
NNNg3910
Ntp3924
bag6
(g7
g11
Ntp3925
Rp3926
(g594
g6
(g7
g11
Ntp3927
Rp3928
(g597
g15
(g19
S'@\x82, \xdb\xfat?'
p3929
tp3930
Rp3931
I01
NI0
I1
NNNg15
(g19
S'\x87\xfd\x8e]\xee\x93\x85?'
p3932
tp3933
Rp3934
Ntp3935
bI01
NF-inf
Finf
NNNg3928
Ntp3936
bag6
(g7
g11
Ntp3937
Rp3938
(g2125
g6
(g7
g11
Ntp3939
Rp3940
(g2128
g15
(g19
S'[\x8f\x9c\x9f\xec\x7fc@'
p3941
tp3942
Rp3943
I01
NI26
I156
NNNI52
Ntp3944
bI01
NF-inf
Finf
NNNg3940
Ntp3945
bag6
(g7
g11
Ntp3946
Rp3947
(g134
g6
(g7
g11
Ntp3948
Rp3949
(g137
g15
(g19
S'\xa1\x1c0\x1b\xb3{\x10A'
p3950
tp3951
Rp3952
I01
Ng15
(g46
S'\xe1\x1e\x04\x00\x00\x00\x00\x00'
p3953
tp3954
Rp3955
g15
(g46
S'\xed\x1e\x04\x00\x00\x00\x00\x00'
p3956
tp3957
Rp3958
NNNg15
(g46
S'\xe7\x1e\x04\x00\x00\x00\x00\x00'
p3959
tp3960
Rp3961
Ntp3962
bI00
NF-inf
Finf
NNNg3949
Ntp3963
bag6
(g7
g11
Ntp3964
Rp3965
(g682
g6
(g7
g11
Ntp3966
Rp3967
(g685
g15
(g19
S'@\x1e2\xa3\xc1\xbf|?'
p3968
tp3969
Rp3970
I01
NI0
I1
NNNg15
(g19
S'\x00\xdaa\xc3\x84\xf2\x86?'
p3971
tp3972
Rp3973
Ntp3974
bI01
NF-inf
Finf
NNNg3967
Ntp3975
bag6
(g7
g11
Ntp3976
Rp3977
(g3072
g6
(g7
g11
Ntp3978
Rp3979
(g3075
g15
(g19
S'\x907\xb2\xff\xff\x7fc@'
p3980
tp3981
Rp3982
I01
NI26
I156
NNNg15
(g19
S'\x8eW\xc3\xff\xff\x7fc@'
p3983
tp3984
Rp3985
Ntp3986
bI01
NF-inf
Finf
NNNg3979
Ntp3987
bag6
(g7
g11
Ntp3988
Rp3989
(g2557
g6
(g7
g11
Ntp3990
Rp3991
(g2560
g15
(g19
S'\t\x01\x00\x00\xdc|\x10A'
p3992
tp3993
Rp3994
I01
Ng15
(g46
S'7\x1f\x04\x00\x00\x00\x00\x00'
p3995
tp3996
Rp3997
g15
(g46
S'C\x1f\x04\x00\x00\x00\x00\x00'
p3998
tp3999
Rp4000
NNNg15
(g19
S'\t\x01\x00\x00\xdc|\x10A'
p4001
tp4002
Rp4003
Ntp4004
bI00
NF-inf
Finf
NNNg3991
Ntp4005
bag6
(g7
g11
Ntp4006
Rp4007
(g3149
g6
(g7
g11
Ntp4008
Rp4009
(g3152
g15
(g19
S'\xc0"\x9a;\x97vx?'
p4010
tp4011
Rp4012
I01
NI0
I1
NNNg15
(g19
S'\x80\x96\xc9\xeal\x05s?'
p4013
tp4014
Rp4015
Ntp4016
bI01
NF-inf
Finf
NNNg4009
Ntp4017
bag6
(g7
g11
Ntp4018
Rp4019
(g3279
g6
(g7
g11
Ntp4020
Rp4021
(g3282
g15
(g19
S'p\xd2\xac\x13\xfd\x7fc@'
p4022
tp4023
Rp4024
I01
NI26
I156
NNNg15
(g19
S'u\xfct\xce\xf9\x7fc@'
p4025
tp4026
Rp4027
Ntp4028
bI01
NF-inf
Finf
NNNg4021
Ntp4029
bag6
(g7
g11
Ntp4030
Rp4031
(g3514
g6
(g7
g11
Ntp4032
Rp4033
(g3517
g15
(g19
S'\xee\xff\xff\xff\x93~\x10A'
p4034
tp4035
Rp4036
I01
Ng15
(g46
S'\x99\x1f\x04\x00\x00\x00\x00\x00'
p4037
tp4038
Rp4039
g15
(g46
S'\xa5\x1f\x04\x00\x00\x00\x00\x00'
p4040
tp4041
Rp4042
NNNg15
(g19
S'\xee\xff\xff\xff\x93~\x10A'
p4043
tp4044
Rp4045
Ntp4046
bI00
NF-inf
Finf
NNNg4033
Ntp4047
bag6
(g7
g11
Ntp4048
Rp4049
(g810
g6
(g7
g11
Ntp4050
Rp4051
(g813
g15
(g19
S'\x00\xdf\x97\xfa\xd8\x83\x8a?'
p4052
tp4053
Rp4054
I00
NI0
I1
NNNg4054
Ntp4055
bI01
NF-inf
Finf
NNNg4051
Ntp4056
bag6
(g7
g11
Ntp4057
Rp4058
(g1511
g6
(g7
g11
Ntp4059
Rp4060
(g1514
g15
(g19
S'[\xa1\xe7\xfb\xff\x7fc@'
p4061
tp4062
Rp4063
I00
NI26
I156
NNNg4063
Ntp4064
bI01
NF-inf
Finf
NNNg4060
Ntp4065
bag6
(g7
g11
Ntp4066
Rp4067
(g2658
g6
(g7
g11
Ntp4068
Rp4069
(g2661
g15
(g19
S'l\xf9\xff\xffC\x84\x10A'
p4070
tp4071
Rp4072
I00
Ng15
(g46
S'\x05!\x04\x00\x00\x00\x00\x00'
p4073
tp4074
Rp4075
g15
(g46
S'\x11!\x04\x00\x00\x00\x00\x00'
p4076
tp4077
Rp4078
NNNg4072
Ntp4079
bI00
NF-inf
Finf
NNNg4069
Ntp4080
bag6
(g7
g11
Ntp4081
Rp4082
(g745
g6
(g7
g11
Ntp4083
Rp4084
(g748
g15
(g19
S'@\xb5\xf8^\xc2\xb0\x83?'
p4085
tp4086
Rp4087
I00
NI0
I1
NNNg4087
Ntp4088
bI01
NF-inf
Finf
NNNg4084
Ntp4089
bag6
(g7
g11
Ntp4090
Rp4091
(g2891
g6
(g7
g11
Ntp4092
Rp4093
(g2894
g15
(g19
S'/2\xfd\xff\xff\x7fc@'
p4094
tp4095
Rp4096
I00
NI26
I156
NNNg4096
Ntp4097
bI01
NF-inf
Finf
NNNg4093
Ntp4098
bag6
(g7
g11
Ntp4099
Rp4100
(g979
g6
(g7
g11
Ntp4101
Rp4102
(g982
g15
(g19
S'+\xe4\xdd\nW\x87\x10A'
p4103
tp4104
Rp4105
I00
Ng15
(g46
S'\xd1!\x04\x00\x00\x00\x00\x00'
p4106
tp4107
Rp4108
g15
(g46
S'\xdd!\x04\x00\x00\x00\x00\x00'
p4109
tp4110
Rp4111
NNNg4105
Ntp4112
bI00
NF-inf
Finf
NNNg4102
Ntp4113
bag6
(g7
g11
Ntp4114
Rp4115
(g707
g6
(g7
g11
Ntp4116
Rp4117
(g710
g15
(g19
S'\xc0\xd5y\xf5\xfa=\x89?'
p4118
tp4119
Rp4120
I00
NI0
I1
NNNg4120
Ntp4121
bI01
NF-inf
Finf
NNNg4117
Ntp4122
bag6
(g7
g11
Ntp4123
Rp4124
(g3212
g6
(g7
g11
Ntp4125
Rp4126
(g3215
g15
(g19
S'\xfb2\xc1\xfe\xff\x7fc@'
p4127
tp4128
Rp4129
I00
NI26
I156
NNNg4129
Ntp4130
bI01
NF-inf
Finf
NNNg4126
Ntp4131
bag6
(g7
g11
Ntp4132
Rp4133
(g605
g6
(g7
g11
Ntp4134
Rp4135
(g608
g15
(g19
S'x\x02\x00\x00\x1c\x8d\x10A'
p4136
tp4137
Rp4138
I00
Ng15
(g46
S'G#\x04\x00\x00\x00\x00\x00'
p4139
tp4140
Rp4141
g15
(g46
S'S#\x04\x00\x00\x00\x00\x00'
p4142
tp4143
Rp4144
NNNg4138
Ntp4145
bI00
NF-inf
Finf
NNNg4135
Ntp4146
bag6
(g7
g11
Ntp4147
Rp4148
(g3462
g6
(g7
g11
Ntp4149
Rp4150
(g3465
g15
(g19
S'@\x07\x9c`\xbfZ\x80?'
p4151
tp4152
Rp4153
I00
NI0
I1
NNNg4153
Ntp4154
bI01
NF-inf
Finf
NNNg4150
Ntp4155
bag6
(g7
g11
Ntp4156
Rp4157
(g3611
g6
(g7
g11
Ntp4158
Rp4159
(g3614
g15
(g19
S'\x1b\x88\x07\x11b\x17U@'
p4160
tp4161
Rp4162
I00
NI26
I156
NNNg4162
Ntp4163
bI01
NF-inf
Finf
NNNg4159
Ntp4164
bag6
(g7
g11
Ntp4165
Rp4166
(g173
g6
(g7
g11
Ntp4167
Rp4168
(g176
g15
(g19
S'\x11AR\xff\xef\x8f\x10A'
p4169
tp4170
Rp4171
I00
Ng15
(g46
S'\xf0#\x04\x00\x00\x00\x00\x00'
p4172
tp4173
Rp4174
g15
(g46
S'\xfc#\x04\x00\x00\x00\x00\x00'
p4175
tp4176
Rp4177
NNNg4171
Ntp4178
bI00
NF-inf
Finf
NNNg4168
Ntp4179
bag6
(g7
g11
Ntp4180
Rp4181
(g1144
g6
(g7
g11
Ntp4182
Rp4183
(g1147
g15
(g19
S'\xe0\\\x96\xbcK\x11\x85?'
p4184
tp4185
Rp4186
I00
NI0
I1
NNNg4186
Ntp4187
bI01
NF-inf
Finf
NNNg4183
Ntp4188
bag6
(g7
g11
Ntp4189
Rp4190
(g1595
g6
(g7
g11
Ntp4191
Rp4192
(g1598
g15
(g19
S'\xef\xf7\xff\xff\xff\x7fc@'
p4193
tp4194
Rp4195
I00
NI26
I156
NNNg4195
Ntp4196
bI01
NF-inf
Finf
NNNg4192
Ntp4197
bag6
(g7
g11
Ntp4198
Rp4199
(g1955
g6
(g7
g11
Ntp4200
Rp4201
(g1958
g15
(g19
S'Y\xec\xbc\xcb\xab\x95\x10A'
p4202
tp4203
Rp4204
I00
Ng15
(g46
S'd%\x04\x00\x00\x00\x00\x00'
p4205
tp4206
Rp4207
g15
(g46
S'p%\x04\x00\x00\x00\x00\x00'
p4208
tp4209
Rp4210
NNNg4204
Ntp4211
bI00
NF-inf
Finf
NNNg4201
Ntp4212
bag6
(g7
g11
Ntp4213
Rp4214
(g2461
g6
(g7
g11
Ntp4215
Rp4216
(g2464
g15
(g19
S'\x1cQ\x1b\x00\x00\x00\xf0?'
p4217
tp4218
Rp4219
I01
NI1
Finf
NNNg15
(g19
S'\x1cQ\x1b\x00\x00\x00\xf0?'
p4220
tp4221
Rp4222
Ntp4223
bI01
NF-inf
Finf
NNNg4216
Ntp4224
bag6
(g7
g11
Ntp4225
Rp4226
(g2650
g6
(g7
g11
Ntp4227
Rp4228
(g2653
g15
(g19
S'\xe0!l*\x08L\x87?'
p4229
tp4230
Rp4231
I00
NI0
I1
NNNg4231
Ntp4232
bI01
NF-inf
Finf
NNNg4228
Ntp4233
bag6
(g7
g11
Ntp4234
Rp4235
(g214
g6
(g7
g11
Ntp4236
Rp4237
(g217
g15
(g19
S'pS\x86\x08k\xe8U@'
p4238
tp4239
Rp4240
I00
NI26
I156
NNNg4240
Ntp4241
bI01
NF-inf
Finf
NNNg4237
Ntp4242
bag6
(g7
g11
Ntp4243
Rp4244
(g1078
g6
(g7
g11
Ntp4245
Rp4246
(g1081
g15
(g19
S"\xa3\x13\xe8\xff'\x8c\x11A"
p4247
tp4248
Rp4249
I00
Ng15
(g46
S'\xfeb\x04\x00\x00\x00\x00\x00'
p4250
tp4251
Rp4252
g15
(g46
S'\nc\x04\x00\x00\x00\x00\x00'
p4253
tp4254
Rp4255
NNNg4249
Ntp4256
bI00
NF-inf
Finf
NNNg4246
Ntp4257
bag6
(g7
g11
Ntp4258
Rp4259
(g2940
g6
(g7
g11
Ntp4260
Rp4261
(g2943
g15
(g19
S'`k0\x91\x81k\x9e?'
p4262
tp4263
Rp4264
I00
NI0
I1
NNNg4264
Ntp4265
bI01
NF-inf
Finf
NNNg4261
Ntp4266
bag6
(g7
g11
Ntp4267
Rp4268
(g794
g6
(g7
g11
Ntp4269
Rp4270
(g797
g15
(g19
S'N!\x08\xc6E"c@'
p4271
tp4272
Rp4273
I00
NI26
I156
NNNg4273
Ntp4274
bI01
NF-inf
Finf
NNNg4270
Ntp4275
bag6
(g7
g11
Ntp4276
Rp4277
(g2859
g6
(g7
g11
Ntp4278
Rp4279
(g2862
g15
(g19
S'\x01\x00\x00\x00\xfc\x8d\x11A'
p4280
tp4281
Rp4282
I00
Ng15
(g46
S'\x7fc\x04\x00\x00\x00\x00\x00'
p4283
tp4284
Rp4285
g15
(g46
S'\x8bc\x04\x00\x00\x00\x00\x00'
p4286
tp4287
Rp4288
NNNg4282
Ntp4289
bI00
NF-inf
Finf
NNNg4279
Ntp4290
bag6
(g7
g11
Ntp4291
Rp4292
(g619
g6
(g7
g11
Ntp4293
Rp4294
(g622
g15
(g19
S'@\xd8/\xbb\x84@\x83?'
p4295
tp4296
Rp4297
I00
NI0
I1
NNNg4297
Ntp4298
bI01
NF-inf
Finf
NNNg4294
Ntp4299
bag6
(g7
g11
Ntp4300
Rp4301
(g255
g6
(g7
g11
Ntp4302
Rp4303
(g258
g15
(g19
S'\x84\xc6\xff\xb3@\xabT@'
p4304
tp4305
Rp4306
I00
NI26
I156
NNNg4306
Ntp4307
bI01
NF-inf
Finf
NNNg4303
Ntp4308
bag6
(g7
g11
Ntp4309
Rp4310
(g2331
g6
(g7
g11
Ntp4311
Rp4312
(g2334
g15
(g19
S'\xe2\x1eo\xc0\x7f\x8f\x11A'
p4313
tp4314
Rp4315
I00
Ng15
(g46
S'\xdcc\x04\x00\x00\x00\x00\x00'
p4316
tp4317
Rp4318
g15
(g46
S'\xe8c\x04\x00\x00\x00\x00\x00'
p4319
tp4320
Rp4321
NNNg4315
Ntp4322
bI00
NF-inf
Finf
NNNg4312
Ntp4323
bag6
(g7
g11
Ntp4324
Rp4325
(g2197
g6
(g7
g11
Ntp4326
Rp4327
(g2200
g15
(g19
S'\xa0\x956\x82\xb9\xda\x86?'
p4328
tp4329
Rp4330
I00
NI0
I1
NNNg4330
Ntp4331
bI01
NF-inf
Finf
NNNg4327
Ntp4332
bag6
(g7
g11
Ntp4333
Rp4334
(g1152
g6
(g7
g11
Ntp4335
Rp4336
(g1155
g15
(g19
S'n:\x9e\x8b\xfc\xb9`@'
p4337
tp4338
Rp4339
I00
NI26
I156
NNNg4339
Ntp4340
bI01
NF-inf
Finf
NNNg4336
Ntp4341
bag6
(g7
g11
Ntp4342
Rp4343
(g1711
g6
(g7
g11
Ntp4344
Rp4345
(g1714
g15
(g19
S'\xd2\x96\xa4\x00\\\x96\x11A'
p4346
tp4347
Rp4348
I00
Ng15
(g46
S'\x91e\x04\x00\x00\x00\x00\x00'
p4349
tp4350
Rp4351
g15
(g46
S'\x9de\x04\x00\x00\x00\x00\x00'
p4352
tp4353
Rp4354
NNNg4348
Ntp4355
bI00
NF-inf
Finf
NNNg4345
Ntp4356
bag6
(g7
g11
Ntp4357
Rp4358
(g1224
g6
(g7
g11
Ntp4359
Rp4360
(g1227
g15
(g19
S' \x15V\x85\xd5\x18\x9d?'
p4361
tp4362
Rp4363
I00
NI0
I1
NNNg4363
Ntp4364
bI01
NF-inf
Finf
NNNg4360
Ntp4365
bag6
(g7
g11
Ntp4366
Rp4367
(g1557
g6
(g7
g11
Ntp4368
Rp4369
(g1560
g15
(g19
S'G[J\xfd\xff\x7fc@'
p4370
tp4371
Rp4372
I00
NI26
I156
NNNg4372
Ntp4373
bI01
NF-inf
Finf
NNNg4369
Ntp4374
bag6
(g7
g11
Ntp4375
Rp4376
(g1461
g6
(g7
g11
Ntp4377
Rp4378
(g1464
g15
(g19
S"'\xfd\xff\xffs\x98\x11A"
p4379
tp4380
Rp4381
I00
Ng15
(g46
S'\x11f\x04\x00\x00\x00\x00\x00'
p4382
tp4383
Rp4384
g15
(g46
S'\x1df\x04\x00\x00\x00\x00\x00'
p4385
tp4386
Rp4387
NNNg4381
Ntp4388
bI00
NF-inf
Finf
NNNg4378
Ntp4389
bag6
(g7
g11
Ntp4390
Rp4391
(g1363
g6
(g7
g11
Ntp4392
Rp4393
(g1366
g15
(g19
S'`C,|\xfd\xf1\x80?'
p4394
tp4395
Rp4396
I00
NI0
I1
NNNg4396
Ntp4397
bI01
NF-inf
Finf
NNNg4393
Ntp4398
bag6
(g7
g11
Ntp4399
Rp4400
(g2032
g6
(g7
g11
Ntp4401
Rp4402
(g2035
g15
(g19
S'\x12J\x1aO\xa9\xe1Q@'
p4403
tp4404
Rp4405
I00
NI26
I156
NNNg4405
Ntp4406
bI01
NF-inf
Finf
NNNg4402
Ntp4407
bag6
(g7
g11
Ntp4408
Rp4409
(g2381
g6
(g7
g11
Ntp4410
Rp4411
(g2384
g15
(g19
S'X\xfe\xff\xff\xdf\x99\x11A'
p4412
tp4413
Rp4414
I00
Ng15
(g46
S'lf\x04\x00\x00\x00\x00\x00'
p4415
tp4416
Rp4417
g15
(g46
S'xf\x04\x00\x00\x00\x00\x00'
p4418
tp4419
Rp4420
NNNg4414
Ntp4421
bI00
NF-inf
Finf
NNNg4411
Ntp4422
bag6
(g7
g11
Ntp4423
Rp4424
(g1119
g6
(g7
g11
Ntp4425
Rp4426
(g1122
g15
(g19
S'\x00gNw\x96Qi?'
p4427
tp4428
Rp4429
I01
NI0
I1
NNNg15
(g19
S'\xd3`\xdf\x96\x88\xb4\x8a?'
p4430
tp4431
Rp4432
Ntp4433
bI01
NF-inf
Finf
NNNg4426
Ntp4434
bag6
(g7
g11
Ntp4435
Rp4436
(g1092
g6
(g7
g11
Ntp4437
Rp4438
(g1095
g15
(g19
S'rR\xeek4y@@'
p4439
tp4440
Rp4441
I01
NI26
I156
NNNI52
Ntp4442
bI01
NF-inf
Finf
NNNg4438
Ntp4443
bag6
(g7
g11
Ntp4444
Rp4445
(g761
g6
(g7
g11
Ntp4446
Rp4447
(g764
g15
(g19
S'\x84\xcd\xcc\xff#\xa1\x11A'
p4448
tp4449
Rp4450
I01
Ng15
(g46
S'=h\x04\x00\x00\x00\x00\x00'
p4451
tp4452
Rp4453
g15
(g46
S'Ih\x04\x00\x00\x00\x00\x00'
p4454
tp4455
Rp4456
NNNg15
(g46
S'Ch\x04\x00\x00\x00\x00\x00'
p4457
tp4458
Rp4459
Ntp4460
bI00
NF-inf
Finf
NNNg4447
Ntp4461
bag6
(g7
g11
Ntp4462
Rp4463
(g2929
g6
(g7
g11
Ntp4464
Rp4465
(g2932
g15
(g19
S'`A\xbc)\xb5p\x93?'
p4466
tp4467
Rp4468
I01
NI0
I1
NNNg15
(g19
S'\x90O\xe8\x9a\xf3\xa9\x94?'
p4469
tp4470
Rp4471
Ntp4472
bI01
NF-inf
Finf
NNNg4465
Ntp4473
bag6
(g7
g11
Ntp4474
Rp4475
(g583
g6
(g7
g11
Ntp4476
Rp4477
(g586
g15
(g19
S'\x93\x1f\x96\xb0\xdd\x7fc@'
p4478
tp4479
Rp4480
I01
NI26
I156
NNNg15
(g19
S'\x00\x00\x00\x00\x00\x80c@'
p4481
tp4482
Rp4483
Ntp4484
bI01
NF-inf
Finf
NNNg4477
Ntp4485
bag6
(g7
g11
Ntp4486
Rp4487
(g414
g6
(g7
g11
Ntp4488
Rp4489
(g417
g15
(g19
S'\xb4\x07\x00\x00\x98\xa2\x11A'
p4490
tp4491
Rp4492
I01
Ng15
(g46
S'\xa6h\x04\x00\x00\x00\x00\x00'
p4493
tp4494
Rp4495
g15
(g46
S'\xb2h\x04\x00\x00\x00\x00\x00'
p4496
tp4497
Rp4498
NNNg15
(g19
S'\xb4\x07\x00\x00\x98\xa2\x11A'
p4499
tp4500
Rp4501
Ntp4502
bI00
NF-inf
Finf
NNNg4489
Ntp4503
bag6
(g7
g11
Ntp4504
Rp4505
(g3160
g6
(g7
g11
Ntp4506
Rp4507
(g3163
g15
(g19
S'@\x8aS\xb0;Q\x95?'
p4508
tp4509
Rp4510
I01
NI0
I1
NNNg15
(g19
S'\x80\xbb\xa0\xca\xd3\x0f\x95?'
p4511
tp4512
Rp4513
Ntp4514
bI01
NF-inf
Finf
NNNg4507
Ntp4515
bag6
(g7
g11
Ntp4516
Rp4517
(g2899
g6
(g7
g11
Ntp4518
Rp4519
(g2902
g15
(g19
S'|\xff\xff\xff\xff\x7fc@'
p4520
tp4521
Rp4522
I01
NI26
I156
NNNg15
(g19
S'\xa2\xda}M\xff\x7fc@'
p4523
tp4524
Rp4525
Ntp4526
bI01
NF-inf
Finf
NNNg4519
Ntp4527
bag6
(g7
g11
Ntp4528
Rp4529
(g1603
g6
(g7
g11
Ntp4530
Rp4531
(g1606
g15
(g19
S'\xbe\x00\x00\x00H\xa4\x11A'
p4532
tp4533
Rp4534
I01
Ng15
(g46
S'\x12i\x04\x00\x00\x00\x00\x00'
p4535
tp4536
Rp4537
g15
(g46
S'\x1ei\x04\x00\x00\x00\x00\x00'
p4538
tp4539
Rp4540
NNNg15
(g19
S'\xbe\x00\x00\x00H\xa4\x11A'
p4541
tp4542
Rp4543
Ntp4544
bI00
NF-inf
Finf
NNNg4531
Ntp4545
bag6
(g7
g11
Ntp4546
Rp4547
(g2205
g6
(g7
g11
Ntp4548
Rp4549
(g2208
g15
(g19
S'\xc0\xa3\xeb\x03pHz?'
p4550
tp4551
Rp4552
I00
NI0
I1
NNNg4552
Ntp4553
bI01
NF-inf
Finf
NNNg4549
Ntp4554
bag6
(g7
g11
Ntp4555
Rp4556
(g2420
g6
(g7
g11
Ntp4557
Rp4558
(g2423
g15
(g19
S'n\xa9\x01\xee\xff\x7fc@'
p4559
tp4560
Rp4561
I00
NI26
I156
NNNg4561
Ntp4562
bI01
NF-inf
Finf
NNNg4558
Ntp4563
bag6
(g7
g11
Ntp4564
Rp4565
(g2100
g6
(g7
g11
Ntp4566
Rp4567
(g2103
g15
(g19
S'%\xff\x08\r/\xa6\x11A'
p4568
tp4569
Rp4570
I00
Ng15
(g46
S'\x84i\x04\x00\x00\x00\x00\x00'
p4571
tp4572
Rp4573
g15
(g46
S'\x90i\x04\x00\x00\x00\x00\x00'
p4574
tp4575
Rp4576
NNNg4570
Ntp4577
bI00
NF-inf
Finf
NNNg4567
Ntp4578
bag6
(g7
g11
Ntp4579
Rp4580
(g3326
g6
(g7
g11
Ntp4581
Rp4582
(g3329
g15
(g19
S'0\x07tw\xb0\x93\x92?'
p4583
tp4584
Rp4585
I00
NI0
I1
NNNg4585
Ntp4586
bI01
NF-inf
Finf
NNNg4582
Ntp4587
bag6
(g7
g11
Ntp4588
Rp4589
(g548
g6
(g7
g11
Ntp4590
Rp4591
(g551
g15
(g19
S'#YI\xed\xff\x7fc@'
p4592
tp4593
Rp4594
I00
NI26
I156
NNNg4594
Ntp4595
bI01
NF-inf
Finf
NNNg4591
Ntp4596
bag6
(g7
g11
Ntp4597
Rp4598
(g151
g6
(g7
g11
Ntp4599
Rp4600
(g154
g15
(g19
S'\x02\x00\x00\x00$\xb4\x11A'
p4601
tp4602
Rp4603
I00
Ng15
(g46
S'\tm\x04\x00\x00\x00\x00\x00'
p4604
tp4605
Rp4606
g15
(g46
S'\x15m\x04\x00\x00\x00\x00\x00'
p4607
tp4608
Rp4609
NNNg4603
Ntp4610
bI00
NF-inf
Finf
NNNg4600
Ntp4611
bag6
(g7
g11
Ntp4612
Rp4613
(g3103
g6
(g7
g11
Ntp4614
Rp4615
(g3106
g15
(g19
S'\xe0O\xdf\xec\xcc}\x92?'
p4616
tp4617
Rp4618
I00
NI0
I1
NNNg4618
Ntp4619
bI01
NF-inf
Finf
NNNg4615
Ntp4620
bag6
(g7
g11
Ntp4621
Rp4622
(g970
g6
(g7
g11
Ntp4623
Rp4624
(g973
g15
(g19
S' \xf0X\xfb\xff\x7fc@'
p4625
tp4626
Rp4627
I00
NI26
I156
NNNg4627
Ntp4628
bI01
NF-inf
Finf
NNNg4624
Ntp4629
bag6
(g7
g11
Ntp4630
Rp4631
(g3257
g6
(g7
g11
Ntp4632
Rp4633
(g3260
g15
(g19
S'\x80\x02\x00\x00\xe4\xb5\x11A'
p4634
tp4635
Rp4636
I00
Ng15
(g46
S'ym\x04\x00\x00\x00\x00\x00'
p4637
tp4638
Rp4639
g15
(g46
S'\x85m\x04\x00\x00\x00\x00\x00'
p4640
tp4641
Rp4642
NNNg4636
Ntp4643
bI00
NF-inf
Finf
NNNg4633
Ntp4644
bag6
(g7
g11
Ntp4645
Rp4646
(g654
g6
(g7
g11
Ntp4647
Rp4648
(g657
g15
(g19
S'\xc0)c\x8b\xe6\xa0r?'
p4649
tp4650
Rp4651
I00
NI0
I1
NNNg4651
Ntp4652
bI01
NF-inf
Finf
NNNg4648
Ntp4653
bag6
(g7
g11
Ntp4654
Rp4655
(g3478
g6
(g7
g11
Ntp4656
Rp4657
(g3481
g15
(g19
S'\xe4\x8ac\x81\xe9\x7fc@'
p4658
tp4659
Rp4660
I00
NI26
I156
NNNg4660
Ntp4661
bI01
NF-inf
Finf
NNNg4657
Ntp4662
bag6
(g7
g11
Ntp4663
Rp4664
(g2406
g6
(g7
g11
Ntp4665
Rp4666
(g2409
g15
(g19
S'\xc3\x83\xe9\x93\xa7\xb7\x11A'
p4667
tp4668
Rp4669
I00
Ng15
(g46
S'\xe8m\x04\x00\x00\x00\x00\x00'
p4670
tp4671
Rp4672
g15
(g46
S'\xf4m\x04\x00\x00\x00\x00\x00'
p4673
tp4674
Rp4675
NNNg4669
Ntp4676
bI00
NF-inf
Finf
NNNg4666
Ntp4677
bag6
(g7
g11
Ntp4678
Rp4679
(g2232
g6
(g7
g11
Ntp4680
Rp4681
(g2235
g15
(g19
S'F\xe3A\x00\x00\x00\xf0?'
p4682
tp4683
Rp4684
I01
NI1
Finf
NNNg15
(g19
S'F\xe3A\x00\x00\x00\xf0?'
p4685
tp4686
Rp4687
Ntp4688
bI01
NF-inf
Finf
NNNg4681
Ntp4689
bag6
(g7
g11
Ntp4690
Rp4691
(g457
g6
(g7
g11
Ntp4692
Rp4693
(g460
g15
(g19
S'\xa0\xa4\xf9\xc3\x1f\xe4\x85?'
p4694
tp4695
Rp4696
I00
NI0
I1
NNNg4696
Ntp4697
bI01
NF-inf
Finf
NNNg4693
Ntp4698
bag6
(g7
g11
Ntp4699
Rp4700
(g2793
g6
(g7
g11
Ntp4701
Rp4702
(g2796
g15
(g19
S'\xc5\xa3\x0f>E)\\@'
p4703
tp4704
Rp4705
I00
NI26
I156
NNNg4705
Ntp4706
bI01
NF-inf
Finf
NNNg4702
Ntp4707
bag6
(g7
g11
Ntp4708
Rp4709
(g1349
g6
(g7
g11
Ntp4710
Rp4711
(g1352
g15
(g19
S'I\x01\x00\x00Hx\x13A'
p4712
tp4713
Rp4714
I00
Ng15
(g46
S'\x12\xde\x04\x00\x00\x00\x00\x00'
p4715
tp4716
Rp4717
g15
(g46
S'\x1e\xde\x04\x00\x00\x00\x00\x00'
p4718
tp4719
Rp4720
NNNg4714
Ntp4721
bI00
NF-inf
Finf
NNNg4711
Ntp4722
bag6
(g7
g11
Ntp4723
Rp4724
(g1759
g6
(g7
g11
Ntp4725
Rp4726
(g1762
g15
(g19
S'`\xb9\xd29\x80\xa5\x89?'
p4727
tp4728
Rp4729
I01
NI0
I1
NNNg15
(g19
S'\x00\xf6X<\xb9\xa2\x8f?'
p4730
tp4731
Rp4732
Ntp4733
bI01
NF-inf
Finf
NNNg4726
Ntp4734
bag6
(g7
g11
Ntp4735
Rp4736
(g2356
g6
(g7
g11
Ntp4737
Rp4738
(g2359
g15
(g19
S'\xa8-\x88\xdb\xc4\xd3b@'
p4739
tp4740
Rp4741
I01
NI26
I156
NNNg15
(g19
S'\xf1\xb8\xff\xff\xff\x7fc@'
p4742
tp4743
Rp4744
Ntp4745
bI01
NF-inf
Finf
NNNg4738
Ntp4746
bag6
(g7
g11
Ntp4747
Rp4748
(g2874
g6
(g7
g11
Ntp4749
Rp4750
(g2877
g15
(g19
S'\r\x01\x00\x00x{\x13A'
p4751
tp4752
Rp4753
I01
Ng15
(g46
S'\xde\xde\x04\x00\x00\x00\x00\x00'
p4754
tp4755
Rp4756
g15
(g46
S'\xea\xde\x04\x00\x00\x00\x00\x00'
p4757
tp4758
Rp4759
NNNg15
(g19
S'\r\x01\x00\x00x{\x13A'
p4760
tp4761
Rp4762
Ntp4763
bI00
NF-inf
Finf
NNNg4750
Ntp4764
bag6
(g7
g11
Ntp4765
Rp4766
(g403
g6
(g7
g11
Ntp4767
Rp4768
(g406
g15
(g19
S' \xaa\xc3\xff$\xf9\x8a?'
p4769
tp4770
Rp4771
I01
NI0
I1
NNNg15
(g19
S'\xb5\xeb\xd0Q\xd3e\x90?'
p4772
tp4773
Rp4774
Ntp4775
bI01
NF-inf
Finf
NNNg4768
Ntp4776
bag6
(g7
g11
Ntp4777
Rp4778
(g515
g6
(g7
g11
Ntp4779
Rp4780
(g518
g15
(g19
S'\xcd\xac\xb9\x94\x0e4V@'
p4781
tp4782
Rp4783
I01
NI26
I156
NNNI52
Ntp4784
bI01
NF-inf
Finf
NNNg4780
Ntp4785
bag6
(g7
g11
Ntp4786
Rp4787
(g2163
g6
(g7
g11
Ntp4788
Rp4789
(g2166
g15
(g19
S'\x8a\xd1\x89\x95\xe4\x7f\x13A'
p4790
tp4791
Rp4792
I01
Ng15
(g46
S'\xf4\xdf\x04\x00\x00\x00\x00\x00'
p4793
tp4794
Rp4795
g15
(g46
S'\x00\xe0\x04\x00\x00\x00\x00\x00'
p4796
tp4797
Rp4798
NNNg15
(g46
S'\xfa\xdf\x04\x00\x00\x00\x00\x00'
p4799
tp4800
Rp4801
Ntp4802
bI00
NF-inf
Finf
NNNg4789
Ntp4803
bag6
(g7
g11
Ntp4804
Rp4805
(g3190
g6
(g7
g11
Ntp4806
Rp4807
(g3193
g15
(g19
S'\x90\x03:\xbe\xac\x1c\x99?'
p4808
tp4809
Rp4810
I01
NI0
I1
NNNg15
(g19
S'ph\xcess}\x9d?'
p4811
tp4812
Rp4813
Ntp4814
bI01
NF-inf
Finf
NNNg4807
Ntp4815
bag6
(g7
g11
Ntp4816
Rp4817
(g662
g6
(g7
g11
Ntp4818
Rp4819
(g665
g15
(g19
S'\xaa\x8a\xe0\xb9\xa0\x05a@'
p4820
tp4821
Rp4822
I01
NI26
I156
NNNg15
(g19
S',\x0f\xa9\xf1\xff\x7fc@'
p4823
tp4824
Rp4825
Ntp4826
bI01
NF-inf
Finf
NNNg4819
Ntp4827
bag6
(g7
g11
Ntp4828
Rp4829
(g2801
g6
(g7
g11
Ntp4830
Rp4831
(g2804
g15
(g19
S'S\x90`\xba\x03\x83\x13A'
p4832
tp4833
Rp4834
I01
Ng15
(g46
S'\xba\xe0\x04\x00\x00\x00\x00\x00'
p4835
tp4836
Rp4837
g15
(g46
S'\xc6\xe0\x04\x00\x00\x00\x00\x00'
p4838
tp4839
Rp4840
NNNg15
(g19
S'\xf0\x10\x00\x00\xe8\x82\x13A'
p4841
tp4842
Rp4843
Ntp4844
bI00
NF-inf
Finf
NNNg4831
Ntp4845
bag6
(g7
g11
Ntp4846
Rp4847
(g1803
g6
(g7
g11
Ntp4848
Rp4849
(g1806
g15
(g19
S'\xe0\x0ci\xa0\xefm\x85?'
p4850
tp4851
Rp4852
I00
NI0
I1
NNNg4852
Ntp4853
bI01
NF-inf
Finf
NNNg4849
Ntp4854
bag6
(g7
g11
Ntp4855
Rp4856
(g290
g6
(g7
g11
Ntp4857
Rp4858
(g293
g15
(g19
S'd{K\x8f\xad\x7fc@'
p4859
tp4860
Rp4861
I00
NI26
I156
NNNg4861
Ntp4862
bI01
NF-inf
Finf
NNNg4858
Ntp4863
bag6
(g7
g11
Ntp4864
Rp4865
(g3619
g6
(g7
g11
Ntp4866
Rp4867
(g3622
g15
(g19
S'\xcd\xf5\xff\xff3\x86\x13A'
p4868
tp4869
Rp4870
I00
Ng15
(g46
S'\x81\xe1\x04\x00\x00\x00\x00\x00'
p4871
tp4872
Rp4873
g15
(g46
S'\x8d\xe1\x04\x00\x00\x00\x00\x00'
p4874
tp4875
Rp4876
NNNg4870
Ntp4877
bI00
NF-inf
Finf
NNNg4867
Ntp4878
bag6
(g7
g11
Ntp4879
Rp4880
(g802
g6
(g7
g11
Ntp4881
Rp4882
(g805
g15
(g19
S' W/j \x15\x89?'
p4883
tp4884
Rp4885
I00
NI0
I1
NNNg4885
Ntp4886
bI01
NF-inf
Finf
NNNg4882
Ntp4887
bag6
(g7
g11
Ntp4888
Rp4889
(g834
g6
(g7
g11
Ntp4890
Rp4891
(g837
g15
(g19
S'T\xdb\xfd\xff\xff\x7fc@'
p4892
tp4893
Rp4894
I00
NI26
I156
NNNg4894
Ntp4895
bI01
NF-inf
Finf
NNNg4891
Ntp4896
bag6
(g7
g11
Ntp4897
Rp4898
(g120
g6
(g7
g11
Ntp4899
Rp4900
(g123
g15
(g19
S'\xb4\xff\xff\xff\x87\x8a\x13A'
p4901
tp4902
Rp4903
I00
Ng15
(g46
S'\x96\xe2\x04\x00\x00\x00\x00\x00'
p4904
tp4905
Rp4906
g15
(g46
S'\xa2\xe2\x04\x00\x00\x00\x00\x00'
p4907
tp4908
Rp4909
NNNg4903
Ntp4910
bI00
NF-inf
Finf
NNNg4900
Ntp4911
bag6
(g7
g11
Ntp4912
Rp4913
(g1489
g6
(g7
g11
Ntp4914
Rp4915
(g1492
g15
(g19
S'@<\x83\x86\xfc\xe1\x86?'
p4916
tp4917
Rp4918
I00
NI0
I1
NNNg4918
Ntp4919
bI01
NF-inf
Finf
NNNg4915
Ntp4920
bag6
(g7
g11
Ntp4921
Rp4922
(g924
g6
(g7
g11
Ntp4923
Rp4924
(g927
g15
(g19
S'\xe8P\xe3nzwc@'
p4925
tp4926
Rp4927
I00
NI26
I156
NNNg4927
Ntp4928
bI01
NF-inf
Finf
NNNg4924
Ntp4929
bag6
(g7
g11
Ntp4930
Rp4931
(g106
g6
(g7
g11
Ntp4932
Rp4933
(g109
g15
(g19
S'\xd2\xe5\xff\xff\xb7\x8d\x13A'
p4934
tp4935
Rp4936
I00
Ng15
(g46
S'b\xe3\x04\x00\x00\x00\x00\x00'
p4937
tp4938
Rp4939
g15
(g46
S'n\xe3\x04\x00\x00\x00\x00\x00'
p4940
tp4941
Rp4942
NNNg4936
Ntp4943
bI00
NF-inf
Finf
NNNg4933
Ntp4944
bag6
(g7
g11
Ntp4945
Rp4946
(g1991
g6
(g7
g11
Ntp4947
Rp4948
(g1994
g15
(g19
S'\x89\xbc\x11\x00\x00\x00\xf0?'
p4949
tp4950
Rp4951
I01
NI1
Finf
NNNg15
(g19
S'\x89\xbc\x11\x00\x00\x00\xf0?'
p4952
tp4953
Rp4954
Ntp4955
bI01
NF-inf
Finf
NNNg4948
Ntp4956
bag6
(g7
g11
Ntp4957
Rp4958
(g26
g6
(g7
g11
Ntp4959
Rp4960
(g29
g15
(g19
S'\xb8\x7f\x19\xa8\xeb\xd7\xad?'
p4961
tp4962
Rp4963
I01
NI0
I1
NNNg15
(g19
S'9\xc9{\x07\xba=\xac?'
p4964
tp4965
Rp4966
Ntp4967
bI01
NF-inf
Finf
NNNg4960
Ntp4968
bag6
(g7
g11
Ntp4969
Rp4970
(g76
g6
(g7
g11
Ntp4971
Rp4972
(g79
g15
(g19
S'\xae\xd9\xad\xdf\xf9\x1bV@'
p4973
tp4974
Rp4975
I01
NI26
I156
NNNI52
Ntp4976
bI01
NF-inf
Finf
NNNg4972
Ntp4977
bag6
(g7
g11
Ntp4978
Rp4979
(g1179
g6
(g7
g11
Ntp4980
Rp4981
(g1182
g15
(g19
S'\xceH\x98\xd5\xee*\x15A'
p4982
tp4983
Rp4984
I01
Ng15
(g46
S'\xb3J\x05\x00\x00\x00\x00\x00'
p4985
tp4986
Rp4987
g15
(g46
S'\xbfJ\x05\x00\x00\x00\x00\x00'
p4988
tp4989
Rp4990
NNNg15
(g46
S'\xb9J\x05\x00\x00\x00\x00\x00'
p4991
tp4992
Rp4993
Ntp4994
bI00
NF-inf
Finf
NNNg4981
Ntp4995
bag6
(g7
g11
Ntp4996
Rp4997
(g556
g6
(g7
g11
Ntp4998
Rp4999
(g559
g15
(g19
S'\xd0\x9aQ\xfd\x9e\xcb\xac?'
p5000
tp5001
Rp5002
I00
NI0
I1
NNNg5002
Ntp5003
bI01
NF-inf
Finf
NNNg4999
Ntp5004
bag6
(g7
g11
Ntp5005
Rp5006
(g778
g6
(g7
g11
Ntp5007
Rp5008
(g781
g15
(g19
S'\xaf6\x82\x1a\xf9\x7fc@'
p5009
tp5010
Rp5011
I00
NI26
I156
NNNg5011
Ntp5012
bI01
NF-inf
Finf
NNNg5008
Ntp5013
bag6
(g7
g11
Ntp5014
Rp5015
(g872
g6
(g7
g11
Ntp5016
Rp5017
(g875
g15
(g19
S'\xd7\x11ub\x81;\x15A'
p5018
tp5019
Rp5020
I00
Ng15
(g46
S'\xdaN\x05\x00\x00\x00\x00\x00'
p5021
tp5022
Rp5023
g15
(g46
S'\xe6N\x05\x00\x00\x00\x00\x00'
p5024
tp5025
Rp5026
NNNg5020
Ntp5027
bI00
NF-inf
Finf
NNNg5017
Ntp5028
bag6
(g7
g11
Ntp5029
Rp5030
(g3370
g6
(g7
g11
Ntp5031
Rp5032
(g3373
g15
(g19
S'*oe\xf3\xdc\\A@'
p5033
tp5034
Rp5035
I01
NI1
Finf
NNNg15
(g19
S'\x8a \xa3M\x00\x00\xf0?'
p5036
tp5037
Rp5038
Ntp5039
bI01
NF-inf
Finf
NNNg5032
Ntp5040
bag6
(g7
g11
Ntp5041
Rp5042
(g3047
g6
(g7
g11
Ntp5043
Rp5044
(g3050
g15
(g19
S'\x00\xb0;\rV\xc6_?'
p5045
tp5046
Rp5047
I01
NI0
I1
NNNg15
(g19
S'\xea.D\xc7\xb8\xdd_?'
p5048
tp5049
Rp5050
Ntp5051
bI01
NF-inf
Finf
NNNg5044
Ntp5052
bag6
(g7
g11
Ntp5053
Rp5054
(g1437
g6
(g7
g11
Ntp5055
Rp5056
(g1440
g15
(g19
S'\x1d\x9d(+E\xd2I@'
p5057
tp5058
Rp5059
I01
NI26
I156
NNNI52
Ntp5060
bI01
NF-inf
Finf
NNNg5056
Ntp5061
bag6
(g7
g11
Ntp5062
Rp5063
(g37
g6
(g7
g11
Ntp5064
Rp5065
(g40
g15
(g19
S'\x91gP}\x1b\x93\x15A'
p5066
tp5067
Rp5068
I01
Ng15
(g46
S'\xc1d\x05\x00\x00\x00\x00\x00'
p5069
tp5070
Rp5071
g15
(g46
S'\xcdd\x05\x00\x00\x00\x00\x00'
p5072
tp5073
Rp5074
NNNg15
(g46
S'\xc7d\x05\x00\x00\x00\x00\x00'
p5075
tp5076
Rp5077
Ntp5078
bI00
NF-inf
Finf
NNNg5065
Ntp5079
bag6
(g7
g11
Ntp5080
Rp5081
(g487
g6
(g7
g11
Ntp5082
Rp5083
(g490
g15
(g19
S'\x00\xed6\x1eW\xe9f?'
p5084
tp5085
Rp5086
I01
NI0
I1
NNNg15
(g19
S'\x00\xe8\xdd\x86q\xf8f?'
p5087
tp5088
Rp5089
Ntp5090
bI01
NF-inf
Finf
NNNg5083
Ntp5091
bag6
(g7
g11
Ntp5092
Rp5093
(g2818
g6
(g7
g11
Ntp5094
Rp5095
(g2821
g15
(g19
S'.p\x7fm\xd4XE@'
p5096
tp5097
Rp5098
I01
NI26
I156
NNNg15
(g19
S'\xd5~c\xbf\xff\x7fc@'
p5099
tp5100
Rp5101
Ntp5102
bI01
NF-inf
Finf
NNNg5095
Ntp5103
bag6
(g7
g11
Ntp5104
Rp5105
(g2444
g6
(g7
g11
Ntp5106
Rp5107
(g2447
g15
(g19
S'\xd5\x01\x00\x00T\x95\x15A'
p5108
tp5109
Rp5110
I01
Ng15
(g46
S'Ue\x05\x00\x00\x00\x00\x00'
p5111
tp5112
Rp5113
g15
(g46
S'ae\x05\x00\x00\x00\x00\x00'
p5114
tp5115
Rp5116
NNNg15
(g19
S'\xd5\x01\x00\x00T\x95\x15A'
p5117
tp5118
Rp5119
Ntp5120
bI00
NF-inf
Finf
NNNg5107
Ntp5121
bag6
(g7
g11
Ntp5122
Rp5123
(g1870
g6
(g7
g11
Ntp5124
Rp5125
(g1873
g15
(g19
S'\x16\x8e]\x00\x00\x00\xf0?'
p5126
tp5127
Rp5128
I01
NI1
Finf
NNNg15
(g19
S'\x16\x8e]\x00\x00\x00\xf0?'
p5129
tp5130
Rp5131
Ntp5132
bI01
NF-inf
Finf
NNNg5125
Ntp5133
bag6
(g7
g11
Ntp5134
Rp5135
(g165
g6
(g7
g11
Ntp5136
Rp5137
(g168
g15
(g19
S'\x00\xdd\xa4;\xa0V\x98?'
p5138
tp5139
Rp5140
I00
NI0
I1
NNNg5140
Ntp5141
bI01
NF-inf
Finf
NNNg5137
Ntp5142
bag6
(g7
g11
Ntp5143
Rp5144
(g2092
g6
(g7
g11
Ntp5145
Rp5146
(g2095
g15
(g19
S"']\xad\x82\xf2\x7fc@"
p5147
tp5148
Rp5149
I00
NI26
I156
NNNg5149
Ntp5150
bI01
NF-inf
Finf
NNNg5146
Ntp5151
bag6
(g7
g11
Ntp5152
Rp5153
(g2480
g6
(g7
g11
Ntp5154
Rp5155
(g2483
g15
(g19
S'\xef\xea\xff\xff\x13\xe0\x15A'
p5156
tp5157
Rp5158
I00
Ng15
(g46
S'\xf9w\x05\x00\x00\x00\x00\x00'
p5159
tp5160
Rp5161
g15
(g46
S'\x05x\x05\x00\x00\x00\x00\x00'
p5162
tp5163
Rp5164
NNNg5158
Ntp5165
bI00
NF-inf
Finf
NNNg5155
Ntp5166
bag6
(g7
g11
Ntp5167
Rp5168
(g2785
g6
(g7
g11
Ntp5169
Rp5170
(g2788
g15
(g19
S'\xd0\x80\xb8\xed\x04P\x9c?'
p5171
tp5172
Rp5173
I00
NI0
I1
NNNg5173
Ntp5174
bI01
NF-inf
Finf
NNNg5170
Ntp5175
bag6
(g7
g11
Ntp5176
Rp5177
(g479
g6
(g7
g11
Ntp5178
Rp5179
(g482
g15
(g19
S'\x02\xfa\xff\xff\xff\x7fc@'
p5180
tp5181
Rp5182
I00
NI26
I156
NNNg5182
Ntp5183
bI01
NF-inf
Finf
NNNg5179
Ntp5184
bag6
(g7
g11
Ntp5185
Rp5186
(g2741
g6
(g7
g11
Ntp5187
Rp5188
(g2744
g15
(g19
S'\xf3R\r\x00\xa0\xe1\x15A'
p5189
tp5190
Rp5191
I00
Ng15
(g46
S'hx\x05\x00\x00\x00\x00\x00'
p5192
tp5193
Rp5194
g15
(g46
S'tx\x05\x00\x00\x00\x00\x00'
p5195
tp5196
Rp5197
NNNg5191
Ntp5198
bI00
NF-inf
Finf
NNNg5188
Ntp5199
bag6
(g7
g11
Ntp5200
Rp5201
(g2540
g6
(g7
g11
Ntp5202
Rp5203
(g2543
g15
(g19
S' qr\xc1QZ\x8a?'
p5204
tp5205
Rp5206
I00
NI0
I1
NNNg5206
Ntp5207
bI01
NF-inf
Finf
NNNg5203
Ntp5208
bag6
(g7
g11
Ntp5209
Rp5210
(g328
g6
(g7
g11
Ntp5211
Rp5212
(g331
g15
(g19
S'\xe2\x11s\xcd6\x8dO@'
p5213
tp5214
Rp5215
I00
NI26
I156
NNNg5215
Ntp5216
bI01
NF-inf
Finf
NNNg5212
Ntp5217
bag6
(g7
g11
Ntp5218
Rp5219
(g1130
g6
(g7
g11
Ntp5220
Rp5221
(g1133
g15
(g19
S'\xb2\x11\r,{\xf0\x15A'
p5222
tp5223
Rp5224
I00
Ng15
(g46
S'\x1b|\x05\x00\x00\x00\x00\x00'
p5225
tp5226
Rp5227
g15
(g46
S"'|\x05\x00\x00\x00\x00\x00"
p5228
tp5229
Rp5230
NNNg5224
Ntp5231
bI00
NF-inf
Finf
NNNg5221
Ntp5232
bag6
(g7
g11
Ntp5233
Rp5234
(g1333
g6
(g7
g11
Ntp5235
Rp5236
(g1336
g15
(g19
S'\x00j@\\\x88;\xa9?'
p5237
tp5238
Rp5239
I00
NI0
I1
NNNg5239
Ntp5240
bI01
NF-inf
Finf
NNNg5236
Ntp5241
bag6
(g7
g11
Ntp5242
Rp5243
(g2265
g6
(g7
g11
Ntp5244
Rp5245
(g2268
g15
(g19
S'\x01\xeeA\xe1\xff\x7fc@'
p5246
tp5247
Rp5248
I00
NI26
I156
NNNg5248
Ntp5249
bI01
NF-inf
Finf
NNNg5245
Ntp5250
bag6
(g7
g11
Ntp5251
Rp5252
(g3403
g6
(g7
g11
Ntp5253
Rp5254
(g3406
g15
(g19
S'\x01\x00\x00\x00,\xf2\x15A'
p5255
tp5256
Rp5257
I00
Ng15
(g46
S'\x8b|\x05\x00\x00\x00\x00\x00'
p5258
tp5259
Rp5260
g15
(g46
S'\x97|\x05\x00\x00\x00\x00\x00'
p5261
tp5262
Rp5263
NNNg5257
Ntp5264
bI00
NF-inf
Finf
NNNg5254
Ntp5265
bag6
(g7
g11
Ntp5266
Rp5267
(g1565
g6
(g7
g11
Ntp5268
Rp5269
(g1568
g15
(g19
S'\xc0\xdc\xa4i\xcbi\x88?'
p5270
tp5271
Rp5272
I00
NI0
I1
NNNg5272
Ntp5273
bI01
NF-inf
Finf
NNNg5269
Ntp5274
bag6
(g7
g11
Ntp5275
Rp5276
(g2672
g6
(g7
g11
Ntp5277
Rp5278
(g2675
g15
(g19
S'\xff\xff\xff\xff\xff\x7fc@'
p5279
tp5280
Rp5281
I00
NI26
I156
NNNg5281
Ntp5282
bI01
NF-inf
Finf
NNNg5278
Ntp5283
bag6
(g7
g11
Ntp5284
Rp5285
(g2133
g6
(g7
g11
Ntp5286
Rp5287
(g2136
g15
(g19
S'\xc8\x9e\x00\x00L\xf8\x15A'
p5288
tp5289
Rp5290
I00
Ng15
(g46
S'\x13~\x05\x00\x00\x00\x00\x00'
p5291
tp5292
Rp5293
g15
(g46
S'\x1f~\x05\x00\x00\x00\x00\x00'
p5294
tp5295
Rp5296
NNNg5290
Ntp5297
bI00
NF-inf
Finf
NNNg5287
Ntp5298
bag6
(g7
g11
Ntp5299
Rp5300
(g1628
g6
(g7
g11
Ntp5301
Rp5302
(g1631
g15
(g19
S'\x00\xaa\x9a\xb92\xdb}?'
p5303
tp5304
Rp5305
I00
NI0
I1
NNNg5305
Ntp5306
bI01
NF-inf
Finf
NNNg5302
Ntp5307
bag6
(g7
g11
Ntp5308
Rp5309
(g1787
g6
(g7
g11
Ntp5310
Rp5311
(g1790
g15
(g19
S'\x84?\x8e\x80\xd1sc@'
p5312
tp5313
Rp5314
I00
NI26
I156
NNNg5314
Ntp5315
bI01
NF-inf
Finf
NNNg5311
Ntp5316
bag6
(g7
g11
Ntp5317
Rp5318
(g2054
g6
(g7
g11
Ntp5319
Rp5320
(g2057
g15
(g19
S"\xc3\x9822'\xfa\x15A"
p5321
tp5322
Rp5323
I00
Ng15
(g46
S'~~\x05\x00\x00\x00\x00\x00'
p5324
tp5325
Rp5326
g15
(g46
S'\x8a~\x05\x00\x00\x00\x00\x00'
p5327
tp5328
Rp5329
NNNg5323
Ntp5330
bI00
NF-inf
Finf
NNNg5320
Ntp5331
bag6
(g7
g11
Ntp5332
Rp5333
(g5
g6
(g7
g11
Ntp5334
Rp5335
(g14
g15
(g19
S'\x00\xaf\x81\xf9\xab\x9f`?'
p5336
tp5337
Rp5338
I00
NI0
I1
NNNg5338
Ntp5339
bI01
NF-inf
Finf
NNNg5335
Ntp5340
bag6
(g7
g11
Ntp5341
Rp5342
(g737
g6
(g7
g11
Ntp5343
Rp5344
(g740
g15
(g19
S'\xff\xff\xff\xff\xff\x7fc@'
p5345
tp5346
Rp5347
I00
NI26
I156
NNNg5347
Ntp5348
bI01
NF-inf
Finf
NNNg5344
Ntp5349
bag6
(g7
g11
Ntp5350
Rp5351
(g1519
g6
(g7
g11
Ntp5352
Rp5353
(g1522
g15
(g19
S'\x06\xb6\xea\xff\xbf\xfb\x15A'
p5354
tp5355
Rp5356
I00
Ng15
(g46
S'\xea~\x05\x00\x00\x00\x00\x00'
p5357
tp5358
Rp5359
g15
(g46
S'\xf6~\x05\x00\x00\x00\x00\x00'
p5360
tp5361
Rp5362
NNNg5356
Ntp5363
bI00
NF-inf
Finf
NNNg5353
Ntp5364
bag6
(g7
g11
Ntp5365
Rp5366
(g3271
g6
(g7
g11
Ntp5367
Rp5368
(g3274
g15
(g19
S'\xc0\xbf!\xf7\xe3I\x89?'
p5369
tp5370
Rp5371
I00
NI0
I1
NNNg5371
Ntp5372
bI01
NF-inf
Finf
NNNg5368
Ntp5373
bag6
(g7
g11
Ntp5374
Rp5375
(g993
g6
(g7
g11
Ntp5376
Rp5377
(g996
g15
(g19
S'\x00\x00\x00\x00\x00\x80c@'
p5378
tp5379
Rp5380
I00
NI26
I156
NNNg5380
Ntp5381
bI01
NF-inf
Finf
NNNg5377
Ntp5382
bag6
(g7
g11
Ntp5383
Rp5384
(g1573
g6
(g7
g11
Ntp5385
Rp5386
(g1576
g15
(g19
S'W\x06\x00\x00\x9c\x00\x16A'
p5387
tp5388
Rp5389
I00
Ng15
(g46
S"'\x80\x05\x00\x00\x00\x00\x00"
p5390
tp5391
Rp5392
g15
(g46
S'3\x80\x05\x00\x00\x00\x00\x00'
p5393
tp5394
Rp5395
NNNg5389
Ntp5396
bI00
NF-inf
Finf
NNNg5386
Ntp5397
bag6
(g7
g11
Ntp5398
Rp5399
(g1541
g6
(g7
g11
Ntp5400
Rp5401
(g1544
g15
(g19
S'\x80B\x18>\x90\xca\x87?'
p5402
tp5403
Rp5404
I00
NI0
I1
NNNg5404
Ntp5405
bI01
NF-inf
Finf
NNNg5401
Ntp5406
bag6
(g7
g11
Ntp5407
Rp5408
(g2843
g6
(g7
g11
Ntp5409
Rp5410
(g2846
g15
(g19
S'\xc7\xb09]\xfe\x7fc@'
p5411
tp5412
Rp5413
I00
NI26
I156
NNNg5413
Ntp5414
bI01
NF-inf
Finf
NNNg5410
Ntp5415
bag6
(g7
g11
Ntp5416
Rp5417
(g956
g6
(g7
g11
Ntp5418
Rp5419
(g959
g15
(g19
S'\xd1\xf2\xff\xffs\x02\x16A'
p5420
tp5421
Rp5422
I00
Ng15
(g46
S'\x91\x80\x05\x00\x00\x00\x00\x00'
p5423
tp5424
Rp5425
g15
(g46
S'\x9d\x80\x05\x00\x00\x00\x00\x00'
p5426
tp5427
Rp5428
NNNg5422
Ntp5429
bI00
NF-inf
Finf
NNNg5419
Ntp5430
bag6
(g7
g11
Ntp5431
Rp5432
(g84
g6
(g7
g11
Ntp5433
Rp5434
(g87
g15
(g19
S'\x00\xd0vzW\x12\x8a?'
p5435
tp5436
Rp5437
I01
NI0
I1
NNNg15
(g19
S'\xc0\x8e\xb3z\xbc\xf5\x8a?'
p5438
tp5439
Rp5440
Ntp5441
bI01
NF-inf
Finf
NNNg5434
Ntp5442
bag6
(g7
g11
Ntp5443
Rp5444
(g523
g6
(g7
g11
Ntp5445
Rp5446
(g526
g15
(g19
S'\x00\x00\x00\x00\x00\x80c@'
p5447
tp5448
Rp5449
I01
NI26
I156
NNNg15
(g19
S'\x00\x00\x00\x00\x00\x80c@'
p5450
tp5451
Rp5452
Ntp5453
bI01
NF-inf
Finf
NNNg5446
Ntp5454
bag6
(g7
g11
Ntp5455
Rp5456
(g1742
g6
(g7
g11
Ntp5457
Rp5458
(g1745
g15
(g19
S'\x00\x00\x00\x00\x84\x06\x16A'
p5459
tp5460
Rp5461
I01
Ng15
(g46
S'\xa1\x81\x05\x00\x00\x00\x00\x00'
p5462
tp5463
Rp5464
g15
(g46
S'\xad\x81\x05\x00\x00\x00\x00\x00'
p5465
tp5466
Rp5467
NNNg15
(g19
S'\x00\x00\x00\x00\x84\x06\x16A'
p5468
tp5469
Rp5470
Ntp5471
bI00
NF-inf
Finf
NNNg5458
Ntp5472
bag6
(g7
g11
Ntp5473
Rp5474
(g1889
g6
(g7
g11
Ntp5475
Rp5476
(g1892
g15
(g19
S'\x00\r\xd6R3\x8f\x84?'
p5477
tp5478
Rp5479
I01
NI0
I1
NNNg15
(g19
S'@\xa3\xbd\xdd\x82\x1d\x89?'
p5480
tp5481
Rp5482
Ntp5483
bI01
NF-inf
Finf
NNNg5476
Ntp5484
bag6
(g7
g11
Ntp5485
Rp5486
(g564
g6
(g7
g11
Ntp5487
Rp5488
(g567
g15
(g19
S'\xf6W\xa2g\x02\x82\\@'
p5489
tp5490
Rp5491
I01
NI26
I156
NNNg15
(g19
S'z\xa0\x9f\xf5\xf0\x1cZ@'
p5492
tp5493
Rp5494
Ntp5495
bI01
NF-inf
Finf
NNNg5488
Ntp5496
bag6
(g7
g11
Ntp5497
Rp5498
(g1644
g6
(g7
g11
Ntp5499
Rp5500
(g1647
g15
(g19
S'\xa0\xeeo\xe5Q\x08\x16A'
p5501
tp5502
Rp5503
I01
Ng15
(g46
S'\x0b\x82\x05\x00\x00\x00\x00\x00'
p5504
tp5505
Rp5506
g15
(g46
S'\x17\x82\x05\x00\x00\x00\x00\x00'
p5507
tp5508
Rp5509
NNNg15
(g19
S'\x80d\xdc\xff[\x08\x16A'
p5510
tp5511
Rp5512
Ntp5513
bI00
NF-inf
Finf
NNNg5500
Ntp5514
bag6
(g7
g11
Ntp5515
Rp5516
(g1859
g6
(g7
g11
Ntp5517
Rp5518
(g1862
g15
(g19
S'\x00\x9b\xff\x0fI\x13h?'
p5519
tp5520
Rp5521
I01
NI0
I1
NNNg15
(g19
S'l6\xc8\xa5k1z?'
p5522
tp5523
Rp5524
Ntp5525
bI01
NF-inf
Finf
NNNg5518
Ntp5526
bag6
(g7
g11
Ntp5527
Rp5528
(g2002
g6
(g7
g11
Ntp5529
Rp5530
(g2005
g15
(g19
S't\x7fO\xfdS\x16W@'
p5531
tp5532
Rp5533
I01
NI26
I156
NNNI52
Ntp5534
bI01
NF-inf
Finf
NNNg5530
Ntp5535
bag6
(g7
g11
Ntp5536
Rp5537
(g230
g6
(g7
g11
Ntp5538
Rp5539
(g233
g15
(g19
S"\xfen'\xfb\xfe\t\x16A"
p5540
tp5541
Rp5542
I01
Ng15
(g46
S'w\x82\x05\x00\x00\x00\x00\x00'
p5543
tp5544
Rp5545
g15
(g46
S'\x83\x82\x05\x00\x00\x00\x00\x00'
p5546
tp5547
Rp5548
NNNg15
(g46
S'}\x82\x05\x00\x00\x00\x00\x00'
p5549
tp5550
Rp5551
Ntp5552
bI00
NF-inf
Finf
NNNg5539
Ntp5553
bag6
(g7
g11
Ntp5554
Rp5555
(g1168
g6
(g7
g11
Ntp5556
Rp5557
(g1171
g15
(g19
S',\xc9\x01\x00\x00\x00\xf0?'
p5558
tp5559
Rp5560
I01
NI1
Finf
NNNg15
(g19
S',\xc9\x01\x00\x00\x00\xf0?'
p5561
tp5562
Rp5563
Ntp5564
bI01
NF-inf
Finf
NNNg5557
Ntp5565
bag6
(g7
g11
Ntp5566
Rp5567
(g1678
g6
(g7
g11
Ntp5568
Rp5569
(g1681
g15
(g19
S'\x80\xfe\xb4\xd5\x89\xd2\x9b?'
p5570
tp5571
Rp5572
I00
NI0
I1
NNNg5572
Ntp5573
bI01
NF-inf
Finf
NNNg5569
Ntp5574
bag6
(g7
g11
Ntp5575
Rp5576
(g1795
g6
(g7
g11
Ntp5577
Rp5578
(g1798
g15
(g19
S'i\x11E\xff\xff\x7fc@'
p5579
tp5580
Rp5581
I00
NI26
I156
NNNg5581
Ntp5582
bI01
NF-inf
Finf
NNNg5578
Ntp5583
bag6
(g7
g11
Ntp5584
Rp5585
(g886
g6
(g7
g11
Ntp5586
Rp5587
(g889
g15
(g19
S'\x06u\xa0\xcd\xd6\x82\x16A'
p5588
tp5589
Rp5590
I00
Ng15
(g46
S'\xaa\xa0\x05\x00\x00\x00\x00\x00'
p5591
tp5592
Rp5593
g15
(g46
S'\xb6\xa0\x05\x00\x00\x00\x00\x00'
p5594
tp5595
Rp5596
NNNg5590
Ntp5597
bI00
NF-inf
Finf
NNNg5587
Ntp5598
bag6
(g7
g11
Ntp5599
Rp5600
(g1587
g6
(g7
g11
Ntp5601
Rp5602
(g1590
g15
(g19
S'\xd0\xb0fT>\x98\xa1?'
p5603
tp5604
Rp5605
I00
NI0
I1
NNNg5605
Ntp5606
bI01
NF-inf
Finf
NNNg5602
Ntp5607
bag6
(g7
g11
Ntp5608
Rp5609
(g2910
g6
(g7
g11
Ntp5610
Rp5611
(g2913
g15
(g19
S'O\xca\xfc\xff\xff\x7fc@'
p5612
tp5613
Rp5614
I00
NI26
I156
NNNg5614
Ntp5615
bI01
NF-inf
Finf
NNNg5611
Ntp5616
bag6
(g7
g11
Ntp5617
Rp5618
(g1257
g6
(g7
g11
Ntp5619
Rp5620
(g1260
g15
(g19
S'\xa6A\xff\xff7\x8b\x16A'
p5621
tp5622
Rp5623
I00
Ng15
(g46
S'\xc2\xa2\x05\x00\x00\x00\x00\x00'
p5624
tp5625
Rp5626
g15
(g46
S'\xce\xa2\x05\x00\x00\x00\x00\x00'
p5627
tp5628
Rp5629
NNNg5623
Ntp5630
bI00
NF-inf
Finf
NNNg5620
Ntp5631
bag6
(g7
g11
Ntp5632
Rp5633
(g2948
g6
(g7
g11
Ntp5634
Rp5635
(g2951
g15
(g19
S'\x10\x10=\x0e\xa0d\x96?'
p5636
tp5637
Rp5638
I01
NI0
I1
NNNg15
(g19
S'\xf9+\x9f\x80\xd2&\x94?'
p5639
tp5640
Rp5641
Ntp5642
bI01
NF-inf
Finf
NNNg5635
Ntp5643
bag6
(g7
g11
Ntp5644
Rp5645
(g3633
g6
(g7
g11
Ntp5646
Rp5647
(g3636
g15
(g19
S'\xf2d\xf2\xf4\x08\xcfW@'
p5648
tp5649
Rp5650
I01
NI26
I156
NNNI52
Ntp5651
bI01
NF-inf
Finf
NNNg5647
Ntp5652
bag6
(g7
g11
Ntp5653
Rp5654
(g498
g6
(g7
g11
Ntp5655
Rp5656
(g501
g15
(g19
S'\xef\xff\xff\xff\xdf\x90\x16A'
p5657
tp5658
Rp5659
I01
Ng15
(g46
S',\xa4\x05\x00\x00\x00\x00\x00'
p5660
tp5661
Rp5662
g15
(g46
S'8\xa4\x05\x00\x00\x00\x00\x00'
p5663
tp5664
Rp5665
NNNg15
(g46
S'2\xa4\x05\x00\x00\x00\x00\x00'
p5666
tp5667
Rp5668
Ntp5669
bI00
NF-inf
Finf
NNNg5656
Ntp5670
bag6
(g7
g11
Ntp5671
Rp5672
(g3562
g6
(g7
g11
Ntp5673
Rp5674
(g3565
g15
(g19
S'p\xfa\xe1n\xdb\xb2\x99?'
p5675
tp5676
Rp5677
I00
NI0
I1
NNNg5677
Ntp5678
bI01
NF-inf
Finf
NNNg5674
Ntp5679
bag6
(g7
g11
Ntp5680
Rp5681
(g674
g6
(g7
g11
Ntp5682
Rp5683
(g677
g15
(g19
S'\x07j\xfd\xc3\xff\x7fc@'
p5684
tp5685
Rp5686
I00
NI26
I156
NNNg5686
Ntp5687
bI01
NF-inf
Finf
NNNg5683
Ntp5688
bag6
(g7
g11
Ntp5689
Rp5690
(g3220
g6
(g7
g11
Ntp5691
Rp5692
(g3223
g15
(g19
S'\xa3\t\x00\x00@\x99\x16A'
p5693
tp5694
Rp5695
I00
Ng15
(g46
S'P\xa6\x05\x00\x00\x00\x00\x00'
p5696
tp5697
Rp5698
g15
(g46
S'\\\xa6\x05\x00\x00\x00\x00\x00'
p5699
tp5700
Rp5701
NNNg5695
Ntp5702
bI00
NF-inf
Finf
NNNg5692
Ntp5703
bag6
(g7
g11
Ntp5704
Rp5705
(g2213
g6
(g7
g11
Ntp5706
Rp5707
(g2216
g15
(g19
S'\xe6!\x17\x00\x00\x00\xf0?'
p5708
tp5709
Rp5710
I01
NI1
Finf
NNNg15
(g19
S'\xe6!\x17\x00\x00\x00\xf0?'
p5711
tp5712
Rp5713
Ntp5714
bI01
NF-inf
Finf
NNNg5707
Ntp5715
bag6
(g7
g11
Ntp5716
Rp5717
(g431
g6
(g7
g11
Ntp5718
Rp5719
(g434
g15
(g19
S'\xc0\x8cU\x1a\xd2B~?'
p5720
tp5721
Rp5722
I00
NI0
I1
NNNg5722
Ntp5723
bI01
NF-inf
Finf
NNNg5719
Ntp5724
bag6
(g7
g11
Ntp5725
Rp5726
(g1160
g6
(g7
g11
Ntp5727
Rp5728
(g1163
g15
(g19
S'*\x7f\xe2)\xdb\xf4Y@'
p5729
tp5730
Rp5731
I00
NI26
I156
NNNg5731
Ntp5732
bI01
NF-inf
Finf
NNNg5728
Ntp5733
bag6
(g7
g11
Ntp5734
Rp5735
(g1271
g6
(g7
g11
Ntp5736
Rp5737
(g1274
g15
(g19
S'\x9cQ\x9c^\xaf\xbd\x16A'
p5738
tp5739
Rp5740
I00
Ng15
(g46
S'i\xaf\x05\x00\x00\x00\x00\x00'
p5741
tp5742
Rp5743
g15
(g46
S'u\xaf\x05\x00\x00\x00\x00\x00'
p5744
tp5745
Rp5746
NNNg5740
Ntp5747
bI00
NF-inf
Finf
NNNg5737
Ntp5748
bag6
(g7
g11
Ntp5749
Rp5750
(g60
g6
(g7
g11
Ntp5751
Rp5752
(g63
g15
(g19
S'0-\xcf\xcbK\xf3\x95?'
p5753
tp5754
Rp5755
I00
NI0
I1
NNNg5755
Ntp5756
bI01
NF-inf
Finf
NNNg5752
Ntp5757
bag6
(g7
g11
Ntp5758
Rp5759
(g1215
g6
(g7
g11
Ntp5760
Rp5761
(g1218
g15
(g19
S'\xfe\xbc\x18#4Qb@'
p5762
tp5763
Rp5764
I00
NI26
I156
NNNg5764
Ntp5765
bI01
NF-inf
Finf
NNNg5761
Ntp5766
bag6
(g7
g11
Ntp5767
Rp5768
(g2040
g6
(g7
g11
Ntp5769
Rp5770
(g2043
g15
(g19
S'\xa8*\xf5\xbc\xa7\xc4\x16A'
p5771
tp5772
Rp5773
I00
Ng15
(g46
S'&\xb1\x05\x00\x00\x00\x00\x00'
p5774
tp5775
Rp5776
g15
(g46
S'2\xb1\x05\x00\x00\x00\x00\x00'
p5777
tp5778
Rp5779
NNNg5773
Ntp5780
bI00
NF-inf
Finf
NNNg5770
Ntp5781
bag6
(g7
g11
Ntp5782
Rp5783
(g3578
g6
(g7
g11
Ntp5784
Rp5785
(g3581
g15
(g19
S'\xc0\x19_X\xbf\xb2|?'
p5786
tp5787
Rp5788
I00
NI0
I1
NNNg5788
Ntp5789
bI01
NF-inf
Finf
NNNg5785
Ntp5790
bag6
(g7
g11
Ntp5791
Rp5792
(g1670
g6
(g7
g11
Ntp5793
Rp5794
(g1673
g15
(g19
S'c7\xfc]zi]@'
p5795
tp5796
Rp5797
I00
NI26
I156
NNNg5797
Ntp5798
bI01
NF-inf
Finf
NNNg5794
Ntp5799
bag6
(g7
g11
Ntp5800
Rp5801
(g465
g6
(g7
g11
Ntp5802
Rp5803
(g468
g15
(g19
S'\xb0\xc8\r\x000\xc8\x16A'
p5804
tp5805
Rp5806
I00
Ng15
(g46
S'\x0c\xb2\x05\x00\x00\x00\x00\x00'
p5807
tp5808
Rp5809
g15
(g46
S'\x18\xb2\x05\x00\x00\x00\x00\x00'
p5810
tp5811
Rp5812
NNNg5806
Ntp5813
bI00
NF-inf
Finf
NNNg5803
Ntp5814
bag6
(g7
g11
Ntp5815
Rp5816
(g729
g6
(g7
g11
Ntp5817
Rp5818
(g732
g15
(g19
S"@\x0e\xac\xc96'\x9d?"
p5819
tp5820
Rp5821
I00
NI0
I1
NNNg5821
Ntp5822
bI01
NF-inf
Finf
NNNg5818
Ntp5823
bag6
(g7
g11
Ntp5824
Rp5825
(g1947
g6
(g7
g11
Ntp5826
Rp5827
(g1950
g15
(g19
S'd\xce\xb5j\xc9\xc5b@'
p5828
tp5829
Rp5830
I00
NI26
I156
NNNg5830
Ntp5831
bI01
NF-inf
Finf
NNNg5827
Ntp5832
bag6
(g7
g11
Ntp5833
Rp5834
(g3342
g6
(g7
g11
Ntp5835
Rp5836
(g3345
g15
(g19
S'\xc1\xff\xff\xff\xc3\xcb\x16A'
p5837
tp5838
Rp5839
I00
Ng15
(g46
S'\xe5\xb2\x05\x00\x00\x00\x00\x00'
p5840
tp5841
Rp5842
g15
(g46
S'\xf1\xb2\x05\x00\x00\x00\x00\x00'
p5843
tp5844
Rp5845
NNNg5839
Ntp5846
bI00
NF-inf
Finf
NNNg5836
Ntp5847
bag6
(g7
g11
Ntp5848
Rp5849
(g2968
g6
(g7
g11
Ntp5850
Rp5851
(g2971
g15
(g19
S'\x10ia9\rf\x9c?'
p5852
tp5853
Rp5854
I00
NI0
I1
NNNg5854
Ntp5855
bI01
NF-inf
Finf
NNNg5851
Ntp5856
bag6
(g7
g11
Ntp5857
Rp5858
(g2851
g6
(g7
g11
Ntp5859
Rp5860
(g2854
g15
(g19
S'\x8as\xf9\xb9\xa2dT@'
p5861
tp5862
Rp5863
I00
NI26
I156
NNNg5863
Ntp5864
bI01
NF-inf
Finf
NNNg5860
Ntp5865
bag6
(g7
g11
Ntp5866
Rp5867
(g356
g6
(g7
g11
Ntp5868
Rp5869
(g359
g15
(g19
S'\x05\x8f\xc6\x180\xcf\x16A'
p5870
tp5871
Rp5872
I00
Ng15
(g46
S'\xc3\xb3\x05\x00\x00\x00\x00\x00'
p5873
tp5874
Rp5875
g15
(g46
S'\xcf\xb3\x05\x00\x00\x00\x00\x00'
p5876
tp5877
Rp5878
NNNg5872
Ntp5879
bI00
NF-inf
Finf
NNNg5869
Ntp5880
bag6
(g7
g11
Ntp5881
Rp5882
(g2508
g6
(g7
g11
Ntp5883
Rp5884
(g2511
g15
(g19
S'0\x01\xf2\xcdVn\x93?'
p5885
tp5886
Rp5887
I00
NI0
I1
NNNg5887
Ntp5888
bI01
NF-inf
Finf
NNNg5884
Ntp5889
bag6
(g7
g11
Ntp5890
Rp5891
(g2680
g6
(g7
g11
Ntp5892
Rp5893
(g2683
g15
(g19
S'\xfe\xff\xff\xff\xff\x7fc@'
p5894
tp5895
Rp5896
I00
NI26
I156
NNNg5896
Ntp5897
bI01
NF-inf
Finf
NNNg5893
Ntp5898
bag6
(g7
g11
Ntp5899
Rp5900
(g3058
g6
(g7
g11
Ntp5901
Rp5902
(g3061
g15
(g19
S'\x02\x00\x00\x00\xec\xd2\x16A'
p5903
tp5904
Rp5905
I00
Ng15
(g46
S'\xbb\xb4\x05\x00\x00\x00\x00\x00'
p5906
tp5907
Rp5908
g15
(g46
S'\xc7\xb4\x05\x00\x00\x00\x00\x00'
p5909
tp5910
Rp5911
NNNg5905
Ntp5912
bI00
NF-inf
Finf
NNNg5902
Ntp5913
bag6
(g7
g11
Ntp5914
Rp5915
(g940
g6
(g7
g11
Ntp5916
Rp5917
(g943
g15
(g19
S'\x00\xdc\xfa\x81j\x9f\x9f?'
p5918
tp5919
Rp5920
I00
NI0
I1
NNNg5920
Ntp5921
bI01
NF-inf
Finf
NNNg5917
Ntp5922
bag6
(g7
g11
Ntp5923
Rp5924
(g1620
g6
(g7
g11
Ntp5925
Rp5926
(g1623
g15
(g19
S'p\xc4\t\xab\xc1\x16]@'
p5927
tp5928
Rp5929
I00
NI26
I156
NNNg5929
Ntp5930
bI01
NF-inf
Finf
NNNg5926
Ntp5931
bag6
(g7
g11
Ntp5932
Rp5933
(g3448
g6
(g7
g11
Ntp5934
Rp5935
(g3451
g15
(g19
S'\xdf\x91\xe1\x10F\xd6\x16A'
p5936
tp5937
Rp5938
I00
Ng15
(g46
S'\x8c\xb5\x05\x00\x00\x00\x00\x00'
p5939
tp5940
Rp5941
g15
(g46
S'\x98\xb5\x05\x00\x00\x00\x00\x00'
p5942
tp5943
Rp5944
NNNg5938
Ntp5945
bI00
NF-inf
Finf
NNNg5935
Ntp5946
bag6
(g7
g11
Ntp5947
Rp5948
(g3570
g6
(g7
g11
Ntp5949
Rp5950
(g3573
g15
(g19
S'\xc0O\xf0}/3\x8b?'
p5951
tp5952
Rp5953
I00
NI0
I1
NNNg5953
Ntp5954
bI01
NF-inf
Finf
NNNg5950
Ntp5955
bag6
(g7
g11
Ntp5956
Rp5957
(g3334
g6
(g7
g11
Ntp5958
Rp5959
(g3337
g15
(g19
S'\xf8\x0e0\xe4\xdd\x7fc@'
p5960
tp5961
Rp5962
I00
NI26
I156
NNNg5962
Ntp5963
bI01
NF-inf
Finf
NNNg5959
Ntp5964
bag6
(g7
g11
Ntp5965
Rp5966
(g2755
g6
(g7
g11
Ntp5967
Rp5968
(g2758
g15
(g19
S'U\x1a\xd5Bn\xda\x16A'
p5969
tp5970
Rp5971
I00
Ng15
(g46
S'\x9a\xb6\x05\x00\x00\x00\x00\x00'
p5972
tp5973
Rp5974
g15
(g46
S'\xa6\xb6\x05\x00\x00\x00\x00\x00'
p5975
tp5976
Rp5977
NNNg5971
Ntp5978
bI00
NF-inf
Finf
NNNg5968
Ntp5979
bag6
(g7
g11
Ntp5980
Rp5981
(g826
g6
(g7
g11
Ntp5982
Rp5983
(g829
g15
(g19
S'\x90\xc0\xaf\xd0\x11v\x93?'
p5984
tp5985
Rp5986
I00
NI0
I1
NNNg5986
Ntp5987
bI01
NF-inf
Finf
NNNg5983
Ntp5988
bag6
(g7
g11
Ntp5989
Rp5990
(g2428
g6
(g7
g11
Ntp5991
Rp5992
(g2431
g15
(g19
S' \xca\tcj>`@'
p5993
tp5994
Rp5995
I00
NI26
I156
NNNg5995
Ntp5996
bI01
NF-inf
Finf
NNNg5992
Ntp5997
bag6
(g7
g11
Ntp5998
Rp5999
(g2018
g6
(g7
g11
Ntp6000
Rp6001
(g2021
g15
(g19
S'w\x04\xac\xc3\x8a\xdd\x16A'
p6002
tp6003
Rp6004
I00
Ng15
(g46
S'^\xb7\x05\x00\x00\x00\x00\x00'
p6005
tp6006
Rp6007
g15
(g46
S'j\xb7\x05\x00\x00\x00\x00\x00'
p6008
tp6009
Rp6010
NNNg6004
Ntp6011
bI00
NF-inf
Finf
NNNg6001
Ntp6012
bag6
(g7
g11
Ntp6013
Rp6014
(g753
g6
(g7
g11
Ntp6015
Rp6016
(g756
g15
(g19
S'@\xd1\x16\x0e\xb8\xa1\x85?'
p6017
tp6018
Rp6019
I00
NI0
I1
NNNg6019
Ntp6020
bI01
NF-inf
Finf
NNNg6016
Ntp6021
bag6
(g7
g11
Ntp6022
Rp6023
(g1111
g6
(g7
g11
Ntp6024
Rp6025
(g1114
g15
(g19
S"\x98\x07'\xb8\x98`b@"
p6026
tp6027
Rp6028
I00
NI26
I156
NNNg6028
Ntp6029
bI01
NF-inf
Finf
NNNg6025
Ntp6030
bag6
(g7
g11
Ntp6031
Rp6032
(g850
g6
(g7
g11
Ntp6033
Rp6034
(g853
g15
(g19
S'\xbe0\xb0\xc6\xfc\xe1\x16A'
p6035
tp6036
Rp6037
I00
Ng15
(g46
S'}\xb8\x05\x00\x00\x00\x00\x00'
p6038
tp6039
Rp6040
g15
(g46
S'\x89\xb8\x05\x00\x00\x00\x00\x00'
p6041
tp6042
Rp6043
NNNg6037
Ntp6044
bI00
NF-inf
Finf
NNNg6034
Ntp6045
bag6
(g7
g11
Ntp6046
Rp6047
(g3171
g6
(g7
g11
Ntp6048
Rp6049
(g3174
g15
(g19
S'\x80\xdb@\xb9,\xcc\x87?'
p6050
tp6051
Rp6052
I01
NI0
I1
NNNg15
(g19
S'\xc0\xa1=(\x01\xd7\x88?'
p6053
tp6054
Rp6055
Ntp6056
bI01
NF-inf
Finf
NNNg6049
Ntp6057
bag6
(g7
g11
Ntp6058
Rp6059
(g2345
g6
(g7
g11
Ntp6060
Rp6061
(g2348
g15
(g19
S'\xa5\xf5\x030\xd7\xda^@'
p6062
tp6063
Rp6064
I01
NI26
I156
NNNg15
(g19
S'\xf2\xf2\xff\xff\xff\x7fc@'
p6065
tp6066
Rp6067
Ntp6068
bI01
NF-inf
Finf
NNNg6061
Ntp6069
bag6
(g7
g11
Ntp6070
Rp6071
(g3290
g6
(g7
g11
Ntp6072
Rp6073
(g3293
g15
(g19
S'Cw\x13\xc3<\xe5\x16A'
p6074
tp6075
Rp6076
I01
Ng15
(g46
S'I\xb9\x05\x00\x00\x00\x00\x00'
p6077
tp6078
Rp6079
g15
(g46
S'U\xb9\x05\x00\x00\x00\x00\x00'
p6080
tp6081
Rp6082
NNNg15
(g19
S'g\xe6\xff\xffS\xe5\x16A'
p6083
tp6084
Rp6085
Ntp6086
bI00
NF-inf
Finf
NNNg6073
Ntp6087
bag6
(g7
g11
Ntp6088
Rp6089
(g2114
g6
(g7
g11
Ntp6090
Rp6091
(g2117
g15
(g19
S'\x80\xa9\xe4D\x87ln?'
p6092
tp6093
Rp6094
I01
NI0
I1
NNNg15
(g19
S'\x14\x8c\x91r\x04\xcdu?'
p6095
tp6096
Rp6097
Ntp6098
bI01
NF-inf
Finf
NNNg6091
Ntp6099
bag6
(g7
g11
Ntp6100
Rp6101
(g786
g6
(g7
g11
Ntp6102
Rp6103
(g789
g15
(g19
S'x\xf0&2\x1e\x08a@'
p6104
tp6105
Rp6106
I01
NI26
I156
NNNI52
Ntp6107
bI01
NF-inf
Finf
NNNg6103
Ntp6108
bag6
(g7
g11
Ntp6109
Rp6110
(g2281
g6
(g7
g11
Ntp6111
Rp6112
(g2284
g15
(g19
S'\xfeh\xaf\xc4\xa6\xe9\x16A'
p6113
tp6114
Rp6115
I01
Ng15
(g46
S'f\xba\x05\x00\x00\x00\x00\x00'
p6116
tp6117
Rp6118
g15
(g46
S'r\xba\x05\x00\x00\x00\x00\x00'
p6119
tp6120
Rp6121
NNNg15
(g46
S'l\xba\x05\x00\x00\x00\x00\x00'
p6122
tp6123
Rp6124
Ntp6125
bI00
NF-inf
Finf
NNNg6112
Ntp6126
bag6
(g7
g11
Ntp6127
Rp6128
(g2984
g6
(g7
g11
Ntp6129
Rp6130
(g2987
g15
(g19
S'\x80D\xeb\xf4\x1e_p?'
p6131
tp6132
Rp6133
I01
NI0
I1
NNNg15
(g19
S'@\xefab\x0b;x?'
p6134
tp6135
Rp6136
Ntp6137
bI01
NF-inf
Finf
NNNg6130
Ntp6138
bag6
(g7
g11
Ntp6139
Rp6140
(g203
g6
(g7
g11
Ntp6141
Rp6142
(g206
g15
(g19
S'\x11EB\x01\xa5bc@'
p6143
tp6144
Rp6145
I01
NI26
I156
NNNg15
(g19
S'99Y\xfe\xff\x7fc@'
p6146
tp6147
Rp6148
Ntp6149
bI01
NF-inf
Finf
NNNg6142
Ntp6150
bag6
(g7
g11
Ntp6151
Rp6152
(g1770
g6
(g7
g11
Ntp6153
Rp6154
(g1773
g15
(g19
S'W]{\x84\xd4\xec\x16A'
p6155
tp6156
Rp6157
I01
Ng15
(g46
S'/\xbb\x05\x00\x00\x00\x00\x00'
p6158
tp6159
Rp6160
g15
(g46
S';\xbb\x05\x00\x00\x00\x00\x00'
p6161
tp6162
Rp6163
NNNg15
(g19
S'bj\x00\x00\xbc\xec\x16A'
p6164
tp6165
Rp6166
Ntp6167
bI00
NF-inf
Finf
NNNg6154
Ntp6168
bag6
(g7
g11
Ntp6169
Rp6170
(g2995
g6
(g7
g11
Ntp6171
Rp6172
(g2998
g15
(g19
S'\x07r\xb1\x00\x00\x00\xf0?'
p6173
tp6174
Rp6175
I01
NI1
Finf
NNNg15
(g19
S'\x07r\xb1\x00\x00\x00\xf0?'
p6176
tp6177
Rp6178
Ntp6179
bI01
NF-inf
Finf
NNNg6172
Ntp6180
bag6
(g7
g11
Ntp6181
Rp6182
(g1661
g6
(g7
g11
Ntp6183
Rp6184
(g1664
g15
(g19
S'@\xb3\xffT\x8eru?'
p6185
tp6186
Rp6187
I00
NI0
I1
NNNg6187
Ntp6188
bI01
NF-inf
Finf
NNNg6184
Ntp6189
bag6
(g7
g11
Ntp6190
Rp6191
(g2642
g6
(g7
g11
Ntp6192
Rp6193
(g2645
g15
(g19
S'\xbdw&\xb80\xe8J@'
p6194
tp6195
Rp6196
I00
NI26
I156
NNNg6196
Ntp6197
bI01
NF-inf
Finf
NNNg6193
Ntp6198
bag6
(g7
g11
Ntp6199
Rp6200
(g1475
g6
(g7
g11
Ntp6201
Rp6202
(g1478
g15
(g19
S'\xbd&(\xf5\x8d0\x17A'
p6203
tp6204
Rp6205
I00
Ng15
(g46
S'\x1c\xcc\x05\x00\x00\x00\x00\x00'
p6206
tp6207
Rp6208
g15
(g46
S'(\xcc\x05\x00\x00\x00\x00\x00'
p6209
tp6210
Rp6211
NNNg6205
Ntp6212
bI00
NF-inf
Finf
NNNg6202
Ntp6213
bag6
(g7
g11
Ntp6214
Rp6215
(g818
g6
(g7
g11
Ntp6216
Rp6217
(g821
g15
(g19
S'\xb0x\xbe\xc8\xc5\\\x91?'
p6218
tp6219
Rp6220
I00
NI0
I1
NNNg6220
Ntp6221
bI01
NF-inf
Finf
NNNg6217
Ntp6222
bag6
(g7
g11
Ntp6223
Rp6224
(g187
g6
(g7
g11
Ntp6225
Rp6226
(g190
g15
(g19
S'\xe3\xe1\x8f\x1aC\xacR@'
p6227
tp6228
Rp6229
I00
NI26
I156
NNNg6229
Ntp6230
bI01
NF-inf
Finf
NNNg6226
Ntp6231
bag6
(g7
g11
Ntp6232
Rp6233
(g3486
g6
(g7
g11
Ntp6234
Rp6235
(g3489
g15
(g19
S'.q\x98S\xfe7\x17A'
p6236
tp6237
Rp6238
I00
Ng15
(g46
S'\xfa\xcd\x05\x00\x00\x00\x00\x00'
p6239
tp6240
Rp6241
g15
(g46
S'\x06\xce\x05\x00\x00\x00\x00\x00'
p6242
tp6243
Rp6244
NNNg6238
Ntp6245
bI00
NF-inf
Finf
NNNg6235
Ntp6246
bag6
(g7
g11
Ntp6247
Rp6248
(g2155
g6
(g7
g11
Ntp6249
Rp6250
(g2158
g15
(g19
S'\x10J5&\xffg\x9b?'
p6251
tp6252
Rp6253
I00
NI0
I1
NNNg6253
Ntp6254
bI01
NF-inf
Finf
NNNg6250
Ntp6255
bag6
(g7
g11
Ntp6256
Rp6257
(g916
g6
(g7
g11
Ntp6258
Rp6259
(g919
g15
(g19
S'\x8e~\xff\xff\xff\x7fc@'
p6260
tp6261
Rp6262
I00
NI26
I156
NNNg6262
Ntp6263
bI01
NF-inf
Finf
NNNg6259
Ntp6264
bag6
(g7
g11
Ntp6265
Rp6266
(g1001
g6
(g7
g11
Ntp6267
Rp6268
(g1004
g15
(g19
S'\xa1\xf8\x169_?\x17A'
p6269
tp6270
Rp6271
I00
Ng15
(g46
S'\xd6\xcf\x05\x00\x00\x00\x00\x00'
p6272
tp6273
Rp6274
g15
(g46
S'\xe2\xcf\x05\x00\x00\x00\x00\x00'
p6275
tp6276
Rp6277
NNNg6271
Ntp6278
bI00
NF-inf
Finf
NNNg6268
Ntp6279
bag6
(g7
g11
Ntp6280
Rp6281
(g638
g6
(g7
g11
Ntp6282
Rp6283
(g641
g15
(g19
S'\x88\xc5\xe4\x01\xc5\xf5\xa1?'
p6284
tp6285
Rp6286
I00
NI0
I1
NNNg6286
Ntp6287
bI01
NF-inf
Finf
NNNg6283
Ntp6288
bag6
(g7
g11
Ntp6289
Rp6290
(g2010
g6
(g7
g11
Ntp6291
Rp6292
(g2013
g15
(g19
S'\xd2\x07\xe2\xfa\xff\x7fc@'
p6293
tp6294
Rp6295
I00
NI26
I156
NNNg6295
Ntp6296
bI01
NF-inf
Finf
NNNg6292
Ntp6297
bag6
(g7
g11
Ntp6298
Rp6299
(g2251
g6
(g7
g11
Ntp6300
Rp6301
(g2254
g15
(g19
S'\x8d\xd0B\xfe\xd7F\x17A'
p6302
tp6303
Rp6304
I00
Ng15
(g46
S'\xb0\xd1\x05\x00\x00\x00\x00\x00'
p6305
tp6306
Rp6307
g15
(g46
S'\xbc\xd1\x05\x00\x00\x00\x00\x00'
p6308
tp6309
Rp6310
NNNg6304
Ntp6311
bI00
NF-inf
Finf
NNNg6301
Ntp6312
bag6
(g7
g11
Ntp6313
Rp6314
(g3111
g6
(g7
g11
Ntp6315
Rp6316
(g3114
g15
(g19
S'@\xacnrWl\x94?'
p6317
tp6318
Rp6319
I00
NI0
I1
NNNg6319
Ntp6320
bI01
NF-inf
Finf
NNNg6316
Ntp6321
bag6
(g7
g11
Ntp6322
Rp6323
(g1533
g6
(g7
g11
Ntp6324
Rp6325
(g1536
g15
(g19
S'V=\xf0\x01ogb@'
p6326
tp6327
Rp6328
I00
NI26
I156
NNNg6328
Ntp6329
bI01
NF-inf
Finf
NNNg6325
Ntp6330
bag6
(g7
g11
Ntp6331
Rp6332
(g2494
g6
(g7
g11
Ntp6333
Rp6334
(g2497
g15
(g19
S'\xf6\xe4\xfd\xffWN\x17A'
p6335
tp6336
Rp6337
I00
Ng15
(g46
S'\x8a\xd3\x05\x00\x00\x00\x00\x00'
p6338
tp6339
Rp6340
g15
(g46
S'\x96\xd3\x05\x00\x00\x00\x00\x00'
p6341
tp6342
Rp6343
NNNg6337
Ntp6344
bI00
NF-inf
Finf
NNNg6334
Ntp6345
bag6
(g7
g11
Ntp6346
Rp6347
(g2769
g6
(g7
g11
Ntp6348
Rp6349
(g2772
g15
(g19
S' \x7f\x94(\xd5\xfc\x8d?'
p6350
tp6351
Rp6352
I00
NI0
I1
NNNg6352
Ntp6353
bI01
NF-inf
Finf
NNNg6349
Ntp6354
bag6
(g7
g11
Ntp6355
Rp6356
(g1686
g6
(g7
g11
Ntp6357
Rp6358
(g1689
g15
(g19
S'\n(~\x8ds5R@'
p6359
tp6360
Rp6361
I00
NI26
I156
NNNg6361
Ntp6362
bI01
NF-inf
Finf
NNNg6358
Ntp6363
bag6
(g7
g11
Ntp6364
Rp6365
(g1050
g6
(g7
g11
Ntp6366
Rp6367
(g1053
g15
(g19
S'\x87/\xabN\xafU\x17A'
p6368
tp6369
Rp6370
I00
Ng15
(g46
S'e\xd5\x05\x00\x00\x00\x00\x00'
p6371
tp6372
Rp6373
g15
(g46
S'q\xd5\x05\x00\x00\x00\x00\x00'
p6374
tp6375
Rp6376
NNNg6370
Ntp6377
bI00
NF-inf
Finf
NNNg6367
Ntp6378
bag6
(g7
g11
Ntp6379
Rp6380
(g1196
g6
(g7
g11
Ntp6381
Rp6382
(g1199
g15
(g19
S'\x80\xc1\x00_g\x9es?'
p6383
tp6384
Rp6385
I01
NI0
I1
NNNg15
(g19
S'\xce\xd0\x11\xe3Y\xb5o?'
p6386
tp6387
Rp6388
Ntp6389
bI01
NF-inf
Finf
NNNg6382
Ntp6390
bag6
(g7
g11
Ntp6391
Rp6392
(g2224
g6
(g7
g11
Ntp6393
Rp6394
(g2227
g15
(g19
S'\xc6v\xe5\xfd\xc9\x99G@'
p6395
tp6396
Rp6397
I01
NI26
I156
NNNI52
Ntp6398
bI01
NF-inf
Finf
NNNg6394
Ntp6399
bag6
(g7
g11
Ntp6400
Rp6401
(g1930
g6
(g7
g11
Ntp6402
Rp6403
(g1933
g15
(g19
S'\xea\xc9U\xd8\x15]\x17A'
p6404
tp6405
Rp6406
I01
Ng15
(g46
S'?\xd7\x05\x00\x00\x00\x00\x00'
p6407
tp6408
Rp6409
g15
(g46
S'K\xd7\x05\x00\x00\x00\x00\x00'
p6410
tp6411
Rp6412
NNNg15
(g46
S'E\xd7\x05\x00\x00\x00\x00\x00'
p6413
tp6414
Rp6415
Ntp6416
bI00
NF-inf
Finf
NNNg6403
Ntp6417
bag6
(g7
g11
Ntp6418
Rp6419
(g3006
g6
(g7
g11
Ntp6420
Rp6421
(g3009
g15
(g19
S'\x9e:\x06\x00\x00\x00\xf0?'
p6422
tp6423
Rp6424
I01
NI1
Finf
NNNg15
(g19
S'\x9e:\x06\x00\x00\x00\xf0?'
p6425
tp6426
Rp6427
Ntp6428
bI01
NF-inf
Finf
NNNg6421
Ntp6429
bag6
(g7
g11
Ntp6430
Rp6431
(g864
g6
(g7
g11
Ntp6432
Rp6433
(g867
g15
(g19
S'\x80\xf8\x03\xf4\x93=t?'
p6434
tp6435
Rp6436
I00
NI0
I1
NNNg6436
Ntp6437
bI01
NF-inf
Finf
NNNg6433
Ntp6438
bag6
(g7
g11
Ntp6439
Rp6440
(g2472
g6
(g7
g11
Ntp6441
Rp6442
(g2475
g15
(g19
S'\xc3w\xe0\xfb\xff\x7fc@'
p6443
tp6444
Rp6445
I00
NI26
I156
NNNg6445
Ntp6446
bI01
NF-inf
Finf
NNNg6442
Ntp6447
bag6
(g7
g11
Ntp6448
Rp6449
(g534
g6
(g7
g11
Ntp6450
Rp6451
(g537
g15
(g19
S'p\x19\x00\x00\x8c\xcc\x17A'
p6452
tp6453
Rp6454
I00
Ng15
(g46
S'#\xf3\x05\x00\x00\x00\x00\x00'
p6455
tp6456
Rp6457
g15
(g46
S'/\xf3\x05\x00\x00\x00\x00\x00'
p6458
tp6459
Rp6460
NNNg6454
Ntp6461
bI00
NF-inf
Finf
NNNg6451
Ntp6462
bag6
(g7
g11
Ntp6463
Rp6464
(g1636
g6
(g7
g11
Ntp6465
Rp6466
(g1639
g15
(g19
S'\x00\xed:^C\xe3e?'
p6467
tp6468
Rp6469
I00
NI0
I1
NNNg6469
Ntp6470
bI01
NF-inf
Finf
NNNg6466
Ntp6471
bag6
(g7
g11
Ntp6472
Rp6473
(g395
g6
(g7
g11
Ntp6474
Rp6475
(g398
g15
(g19
S'\xd6]\xee\xff\xff\x7fc@'
p6476
tp6477
Rp6478
I00
NI26
I156
NNNg6478
Ntp6479
bI01
NF-inf
Finf
NNNg6475
Ntp6480
bag6
(g7
g11
Ntp6481
Rp6482
(g1497
g6
(g7
g11
Ntp6483
Rp6484
(g1500
g15
(g19
S'CQ\xfdB\xcc\xd7\x17A'
p6485
tp6486
Rp6487
I00
Ng15
(g46
S'\xeb\xf5\x05\x00\x00\x00\x00\x00'
p6488
tp6489
Rp6490
g15
(g46
S'\xf7\xf5\x05\x00\x00\x00\x00\x00'
p6491
tp6492
Rp6493
NNNg6487
Ntp6494
bI00
NF-inf
Finf
NNNg6484
Ntp6495
bag6
(g7
g11
Ntp6496
Rp6497
(g1100
g6
(g7
g11
Ntp6498
Rp6499
(g1103
g15
(g19
S'\x80F\xee\xbe\xfbMe?'
p6500
tp6501
Rp6502
I01
NI0
I1
NNNg15
(g19
S'\x00lK\xe8\x04Ne?'
p6503
tp6504
Rp6505
Ntp6506
bI01
NF-inf
Finf
NNNg6499
Ntp6507
bag6
(g7
g11
Ntp6508
Rp6509
(g3315
g6
(g7
g11
Ntp6510
Rp6511
(g3318
g15
(g19
S'\xf7\x16c\xa4\x1a|c@'
p6512
tp6513
Rp6514
I01
NI26
I156
NNNg15
(g19
S'\xa9j\xab\xb0\xff\x7fc@'
p6515
tp6516
Rp6517
Ntp6518
bI01
NF-inf
Finf
NNNg6511
Ntp6519
bag6
(g7
g11
Ntp6520
Rp6521
(g3531
g6
(g7
g11
Ntp6522
Rp6523
(g3534
g15
(g19
S' \xaf\x9ac{\xe8\x17A'
p6524
tp6525
Rp6526
I01
Ng15
(g46
S'\x13\xfa\x05\x00\x00\x00\x00\x00'
p6527
tp6528
Rp6529
g15
(g46
S'\x1f\xfa\x05\x00\x00\x00\x00\x00'
p6530
tp6531
Rp6532
NNNg15
(g19
S';\xf5\xff\xff{\xe8\x17A'
p6533
tp6534
Rp6535
Ntp6536
bI00
NF-inf
Finf
NNNg6523
Ntp6537
bag6
(g7
g11
Ntp6538
Rp6539
(g384
g6
(g7
g11
Ntp6540
Rp6541
(g387
g15
(g19
S'\x00QI%\xb9\xb7^?'
p6542
tp6543
Rp6544
I01
NI0
I1
NNNg15
(g19
S'~\xe9\xf4.\xc6\xb7^?'
p6545
tp6546
Rp6547
Ntp6548
bI01
NF-inf
Finf
NNNg6541
Ntp6549
bag6
(g7
g11
Ntp6550
Rp6551
(g908
g6
(g7
g11
Ntp6552
Rp6553
(g911
g15
(g19
S'\x1d{\x91\xc4\xfe\xffI@'
p6554
tp6555
Rp6556
I01
NI26
I156
NNNI52
Ntp6557
bI01
NF-inf
Finf
NNNg6553
Ntp6558
bag6
(g7
g11
Ntp6559
Rp6560
(g2180
g6
(g7
g11
Ntp6561
Rp6562
(g2183
g15
(g19
S'\x9dL3\x00\xb8\xeb\x17A'
p6563
tp6564
Rp6565
I01
Ng15
(g46
S'\xe8\xfa\x05\x00\x00\x00\x00\x00'
p6566
tp6567
Rp6568
g15
(g46
S'\xf4\xfa\x05\x00\x00\x00\x00\x00'
p6569
tp6570
Rp6571
NNNg15
(g46
S'\xee\xfa\x05\x00\x00\x00\x00\x00'
p6572
tp6573
Rp6574
Ntp6575
bI00
NF-inf
Finf
NNNg6562
Ntp6576
bag6
(g7
g11
Ntp6577
Rp6578
(g3201
g6
(g7
g11
Ntp6579
Rp6580
(g3204
g15
(g19
S'\x80b\x8b\xf1\x01\x92j?'
p6581
tp6582
Rp6583
I01
NI0
I1
NNNg15
(g19
S'\x00\x82\x90\xd6\x12\x92j?'
p6584
tp6585
Rp6586
Ntp6587
bI01
NF-inf
Finf
NNNg6580
Ntp6588
bag6
(g7
g11
Ntp6589
Rp6590
(g1303
g6
(g7
g11
Ntp6591
Rp6592
(g1306
g15
(g19
S'\x8d\x94MJ\xfa\x8f_@'
p6593
tp6594
Rp6595
I01
NI26
I156
NNNg15
(g19
S'\x18\xbe\xc0\xff\xff\x7fc@'
p6596
tp6597
Rp6598
Ntp6599
bI01
NF-inf
Finf
NNNg6592
Ntp6600
bag6
(g7
g11
Ntp6601
Rp6602
(g1725
g6
(g7
g11
Ntp6603
Rp6604
(g1728
g15
(g19
S'\x8e\x98\x9d\x01X\xef\x17A'
p6605
tp6606
Rp6607
I01
Ng15
(g46
S'\xd6\xfb\x05\x00\x00\x00\x00\x00'
p6608
tp6609
Rp6610
g15
(g46
S'\xe2\xfb\x05\x00\x00\x00\x00\x00'
p6611
tp6612
Rp6613
NNNg15
(g19
S'"`e\x00X\xef\x17A'
p6614
tp6615
Rp6616
Ntp6617
bI00
NF-inf
Finf
NNNg6604
Ntp6618
bag6
(g7
g11
Ntp6619
Rp6620
(g3017
g6
(g7
g11
Ntp6621
Rp6622
(g3020
g15
(g19
S'\rd\x00\x00\x00\x00\xf0?'
p6623
tp6624
Rp6625
I01
NI1
Finf
NNNg15
(g19
S'\rd\x00\x00\x00\x00\xf0?'
p6626
tp6627
Rp6628
Ntp6629
bI01
NF-inf
Finf
NNNg6622
Ntp6630
bag6
(g7
g11
Ntp6631
Rp6632
(g842
g6
(g7
g11
Ntp6633
Rp6634
(g845
g15
(g19
S'\xb4\xf0\x95\xab*f\xb4?'
p6635
tp6636
Rp6637
I00
NI0
I1
NNNg6637
Ntp6638
bI01
NF-inf
Finf
NNNg6634
Ntp6639
bag6
(g7
g11
Ntp6640
Rp6641
(g2243
g6
(g7
g11
Ntp6642
Rp6643
(g2246
g15
(g19
S'\x19q\xf0\xfa\xff\x7fc@'
p6644
tp6645
Rp6646
I00
NI26
I156
NNNg6646
Ntp6647
bI01
NF-inf
Finf
NNNg6643
Ntp6648
bag6
(g7
g11
Ntp6649
Rp6650
(g3548
g6
(g7
g11
Ntp6651
Rp6652
(g3551
g15
(g19
S'J>\xcb\xe5\xf4#\x18A'
p6653
tp6654
Rp6655
I00
Ng15
(g46
S'\xfa\x08\x06\x00\x00\x00\x00\x00'
p6656
tp6657
Rp6658
g15
(g46
S'\x06\t\x06\x00\x00\x00\x00\x00'
p6659
tp6660
Rp6661
NNNg6655
Ntp6662
bI00
NF-inf
Finf
NNNg6652
Ntp6663
bag6
(g7
g11
Ntp6664
Rp6665
(g3470
g6
(g7
g11
Ntp6666
Rp6667
(g3473
g15
(g19
S'\xd0\xfbFu\x9f\x9e\xc4?'
p6668
tp6669
Rp6670
I00
NI0
I1
NNNg6670
Ntp6671
bI01
NF-inf
Finf
NNNg6667
Ntp6672
bag6
(g7
g11
Ntp6673
Rp6674
(g2777
g6
(g7
g11
Ntp6675
Rp6676
(g2780
g15
(g19
S'\xa2?\xf1\x8f<u_@'
p6677
tp6678
Rp6679
I00
NI26
I156
NNNg6679
Ntp6680
bI01
NF-inf
Finf
NNNg6676
Ntp6681
bag6
(g7
g11
Ntp6682
Rp6683
(g2719
g6
(g7
g11
Ntp6684
Rp6685
(g2722
g15
(g19
S'\x13\xab\xdc\xa8\x93(\x18A'
p6686
tp6687
Rp6688
I00
Ng15
(g46
S'\x1d\n\x06\x00\x00\x00\x00\x00'
p6689
tp6690
Rp6691
g15
(g46
S')\n\x06\x00\x00\x00\x00\x00'
p6692
tp6693
Rp6694
NNNg6688
Ntp6695
bI00
NF-inf
Finf
NNNg6685
Ntp6696
bag6
(g7
g11
Ntp6697
Rp6698
(g1453
g6
(g7
g11
Ntp6699
Rp6700
(g1456
g15
(g19
S'\xa8\t\x00\xfe\x8b1\xc2?'
p6701
tp6702
Rp6703
I00
NI0
I1
NNNg6703
Ntp6704
bI01
NF-inf
Finf
NNNg6700
Ntp6705
bag6
(g7
g11
Ntp6706
Rp6707
(g1207
g6
(g7
g11
Ntp6708
Rp6709
(g1210
g15
(g19
S'\x97\xb0\x8f\x017\xbaZ@'
p6710
tp6711
Rp6712
I00
NI26
I156
NNNg6712
Ntp6713
bI01
NF-inf
Finf
NNNg6709
Ntp6714
bag6
(g7
g11
Ntp6715
Rp6716
(g3356
g6
(g7
g11
Ntp6717
Rp6718
(g3359
g15
(g19
S'\xad\xd1\xe1\xaa\x93+\x18A'
p6719
tp6720
Rp6721
I00
Ng15
(g46
S'\xdb\n\x06\x00\x00\x00\x00\x00'
p6722
tp6723
Rp6724
g15
(g46
S'\xe7\n\x06\x00\x00\x00\x00\x00'
p6725
tp6726
Rp6727
NNNg6721
Ntp6728
bI00
NF-inf
Finf
NNNg6718
Ntp6729
bag6
(g7
g11
Ntp6730
Rp6731
(g222
g6
(g7
g11
Ntp6732
Rp6733
(g225
g15
(g19
S'\x0e\xb4\x85\x14\xa5\xf4\xc4?'
p6734
tp6735
Rp6736
I00
NI0
I1
NNNg6736
Ntp6737
bI01
NF-inf
Finf
NNNg6733
Ntp6738
bag6
(g7
g11
Ntp6739
Rp6740
(g3182
g6
(g7
g11
Ntp6741
Rp6742
(g3185
g15
(g19
S'\xce\xe1Wb\xa7U^@'
p6743
tp6744
Rp6745
I00
NI26
I156
NNNg6745
Ntp6746
bI01
NF-inf
Finf
NNNg6742
Ntp6747
bag6
(g7
g11
Ntp6748
Rp6749
(g1394
g6
(g7
g11
Ntp6750
Rp6751
(g1397
g15
(g19
S'\x19\xfe\xff\xff\x9f/\x18A'
p6752
tp6753
Rp6754
I00
Ng15
(g46
S'\xdc\x0b\x06\x00\x00\x00\x00\x00'
p6755
tp6756
Rp6757
g15
(g46
S'\xe8\x0b\x06\x00\x00\x00\x00\x00'
p6758
tp6759
Rp6760
NNNg6754
Ntp6761
bI00
NF-inf
Finf
NNNg6751
Ntp6762
bag6
(g7
g11
Ntp6763
Rp6764
(g1034
g6
(g7
g11
Ntp6765
Rp6766
(g1037
g15
(g19
S'\x18\xd3z\x06$\xf3\xb5?'
p6767
tp6768
Rp6769
I00
NI0
I1
NNNg6769
Ntp6770
bI01
NF-inf
Finf
NNNg6766
Ntp6771
bag6
(g7
g11
Ntp6772
Rp6773
(g646
g6
(g7
g11
Ntp6774
Rp6775
(g649
g15
(g19
S'\x00V\xa7\x08\x9a\xcdW@'
p6776
tp6777
Rp6778
I00
NI26
I156
NNNg6778
Ntp6779
bI01
NF-inf
Finf
NNNg6775
Ntp6780
bag6
(g7
g11
Ntp6781
Rp6782
(g2574
g6
(g7
g11
Ntp6783
Rp6784
(g2577
g15
(g19
S"\xc6\x1f\xfe\xff'3\x18A"
p6785
tp6786
Rp6787
I00
Ng15
(g46
S'\xbe\x0c\x06\x00\x00\x00\x00\x00'
p6788
tp6789
Rp6790
g15
(g46
S'\xca\x0c\x06\x00\x00\x00\x00\x00'
p6791
tp6792
Rp6793
NNNg6787
Ntp6794
bI00
NF-inf
Finf
NNNg6784
Ntp6795
bag6
(g7
g11
Ntp6796
Rp6797
(g2068
g6
(g7
g11
Ntp6798
Rp6799
(g2071
g15
(g19
S'\xc0\xe8+\xd0\x0f~\x8a?'
p6800
tp6801
Rp6802
I00
NI0
I1
NNNg6802
Ntp6803
bI01
NF-inf
Finf
NNNg6799
Ntp6804
bag6
(g7
g11
Ntp6805
Rp6806
(g1969
g6
(g7
g11
Ntp6807
Rp6808
(g1972
g15
(g19
S'\xfc\xfb\xdb\xff\xff\x7fc@'
p6809
tp6810
Rp6811
I00
NI26
I156
NNNg6811
Ntp6812
bI01
NF-inf
Finf
NNNg6808
Ntp6813
bag6
(g7
g11
Ntp6814
Rp6815
(g1977
g6
(g7
g11
Ntp6816
Rp6817
(g1980
g15
(g19
S'o\t\x00\x00\xf08\x18A'
p6818
tp6819
Rp6820
I00
Ng15
(g46
S'<\x0e\x06\x00\x00\x00\x00\x00'
p6821
tp6822
Rp6823
g15
(g46
S'H\x0e\x06\x00\x00\x00\x00\x00'
p6824
tp6825
Rp6826
NNNg6820
Ntp6827
bI00
NF-inf
Finf
NNNg6817
Ntp6828
bag6
(g7
g11
Ntp6829
Rp6830
(g247
g6
(g7
g11
Ntp6831
Rp6832
(g250
g15
(g19
S'\xc0\x7f\x130\xde1\x7f?'
p6833
tp6834
Rp6835
I00
NI0
I1
NNNg6835
Ntp6836
bI01
NF-inf
Finf
NNNg6832
Ntp6837
bag6
(g7
g11
Ntp6838
Rp6839
(g1881
g6
(g7
g11
Ntp6840
Rp6841
(g1884
g15
(g19
S'Y\xd9\x80\xf5\xff\x7fc@'
p6842
tp6843
Rp6844
I00
NI26
I156
NNNg6844
Ntp6845
bI01
NF-inf
Finf
NNNg6841
Ntp6846
bag6
(g7
g11
Ntp6847
Rp6848
(g298
g6
(g7
g11
Ntp6849
Rp6850
(g301
g15
(g19
S'q\x8d.\x00\x8c@\x18A'
p6851
tp6852
Rp6853
I00
Ng15
(g46
S'#\x10\x06\x00\x00\x00\x00\x00'
p6854
tp6855
Rp6856
g15
(g46
S'/\x10\x06\x00\x00\x00\x00\x00'
p6857
tp6858
Rp6859
NNNg6853
Ntp6860
bI00
NF-inf
Finf
NNNg6850
Ntp6861
bag6
(g7
g11
Ntp6862
Rp6863
(g1314
g6
(g7
g11
Ntp6864
Rp6865
(g1317
g15
(g19
S'\x00:\x8d\x0bL\xd1p?'
p6866
tp6867
Rp6868
I00
NI0
I1
NNNg6868
Ntp6869
bI01
NF-inf
Finf
NNNg6865
Ntp6870
bag6
(g7
g11
Ntp6871
Rp6872
(g2147
g6
(g7
g11
Ntp6873
Rp6874
(g2150
g15
(g19
S'\xc5A%e\xff\x7fc@'
p6875
tp6876
Rp6877
I00
NI26
I156
NNNg6877
Ntp6878
bI01
NF-inf
Finf
NNNg6874
Ntp6879
bag6
(g7
g11
Ntp6880
Rp6881
(g3500
g6
(g7
g11
Ntp6882
Rp6883
(g3503
g15
(g19
S'\xd0WQ\x1ajL\x18A'
p6884
tp6885
Rp6886
I00
Ng15
(g46
S'\x10\x13\x06\x00\x00\x00\x00\x00'
p6887
tp6888
Rp6889
g15
(g46
S'\x1c\x13\x06\x00\x00\x00\x00\x00'
p6890
tp6891
Rp6892
NNNg6886
Ntp6893
bI00
NF-inf
Finf
NNNg6883
Ntp6894
bag6
(g7
g11
Ntp6895
Rp6896
(g1246
g6
(g7
g11
Ntp6897
Rp6898
(g1249
g15
(g19
S'\x80\xb3\x06\x90\xbflm?'
p6899
tp6900
Rp6901
I01
NI0
I1
NNNg15
(g19
S'@\x9e%\x90\xe4(\x10?'
p6902
tp6903
Rp6904
Ntp6905
bI01
NF-inf
Finf
NNNg6898
Ntp6906
bag6
(g7
g11
Ntp6907
Rp6908
(g2733
g6
(g7
g11
Ntp6909
Rp6910
(g2736
g15
(g19
S'|\x1a\xd5(\xfd\x7fc@'
p6911
tp6912
Rp6913
I01
NI26
I156
NNNI52
Ntp6914
bI01
NF-inf
Finf
NNNg6910
Ntp6915
bag6
(g7
g11
Ntp6916
Rp6917
(g1819
g6
(g7
g11
Ntp6918
Rp6919
(g1822
g15
(g19
S'\xbd\xb3\x02P\xa4S\x18A'
p6920
tp6921
Rp6922
I01
Ng15
(g46
S'\xde\x14\x06\x00\x00\x00\x00\x00'
p6923
tp6924
Rp6925
g15
(g46
S'\xea\x14\x06\x00\x00\x00\x00\x00'
p6926
tp6927
Rp6928
NNNg15
(g46
S'\xe4\x14\x06\x00\x00\x00\x00\x00'
p6929
tp6930
Rp6931
Ntp6932
bI00
NF-inf
Finf
NNNg6919
Ntp6933
bag6
(g7
g11
Ntp6934
Rp6935
(g3028
g6
(g7
g11
Ntp6936
Rp6937
(g3031
g15
(g19
S'Y\xf0\x03\x01\x00\x00\xf0?'
p6938
tp6939
Rp6940
I01
NI1
Finf
NNNg15
(g19
S'Y\xf0\x03\x01\x00\x00\xf0?'
p6941
tp6942
Rp6943
Ntp6944
bI01
NF-inf
Finf
NNNg6937
Ntp6945
bag6
(g7
g11
Ntp6946
Rp6947
(g1015
g6
(g7
g11
Ntp6948
Rp6949
(g1018
g15
(g19
S'\x00\x93\x02$\xe9dR?'
p6950
tp6951
Rp6952
I01
NI0
I1
NNNg15
(g19
S'\xef6_\xa3+4R?'
p6953
tp6954
Rp6955
Ntp6956
bI01
NF-inf
Finf
NNNg6949
Ntp6957
bag6
(g7
g11
Ntp6958
Rp6959
(g1911
g6
(g7
g11
Ntp6960
Rp6961
(g1914
g15
(g19
S'\x9b\xe1\xee\xff\xff\x7fc@'
p6962
tp6963
Rp6964
I01
NI26
I156
NNNI52
Ntp6965
bI01
NF-inf
Finf
NNNg6961
Ntp6966
bag6
(g7
g11
Ntp6967
Rp6968
(g2588
g6
(g7
g11
Ntp6969
Rp6970
(g2591
g15
(g19
S'=\\\x14\x04\x04j\x18A'
p6971
tp6972
Rp6973
I01
Ng15
(g46
S'\x81\x1a\x06\x00\x00\x00\x00\x00'
p6974
tp6975
Rp6976
g15
(g46
S'\x8d\x1a\x06\x00\x00\x00\x00\x00'
p6977
tp6978
Rp6979
NNNg15
(g46
S'\x87\x1a\x06\x00\x00\x00\x00\x00'
p6980
tp6981
Rp6982
Ntp6983
bI00
NF-inf
Finf
NNNg6970
Ntp6984
bag6
(g7
g11
Ntp6985
Rp6986
(g1919
g6
(g7
g11
Ntp6987
Rp6988
(g1922
g15
(g19
S'\x00\xb06\xb3w\x0bQ?'
p6989
tp6990
Rp6991
I01
NI0
I1
NNNg15
(g19
S'\x00O^\xd6\x92\xeeZ?'
p6992
tp6993
Rp6994
Ntp6995
bI01
NF-inf
Finf
NNNg6988
Ntp6996
bag6
(g7
g11
Ntp6997
Rp6998
(g627
g6
(g7
g11
Ntp6999
Rp7000
(g630
g15
(g19
S'\x00\x00\x00\x00\x00\x80c@'
p7001
tp7002
Rp7003
I01
NI26
I156
NNNg15
(g19
S'M\x80^jW\xa5b@'
p7004
tp7005
Rp7006
Ntp7007
bI01
NF-inf
Finf
NNNg7000
Ntp7008
bag6
(g7
g11
Ntp7009
Rp7010
(g3586
g6
(g7
g11
Ntp7011
Rp7012
(g3589
g15
(g19
S'\x8aCu\x8e\xc3l\x18A'
p7013
tp7014
Rp7015
I01
Ng15
(g46
S'(\x1b\x06\x00\x00\x00\x00\x00'
p7016
tp7017
Rp7018
g15
(g46
S'4\x1b\x06\x00\x00\x00\x00\x00'
p7019
tp7020
Rp7021
NNNg15
(g19
S'\xd9\xce\xfe\xec\xa1l\x18A'
p7022
tp7023
Rp7024
Ntp7025
bI00
NF-inf
Finf
NNNg7012
Ntp7026
bag6
(g7
g11
Ntp7027
Rp7028
(g2634
g6
(g7
g11
Ntp7029
Rp7030
(g2637
g15
(g19
S'\x00r\x16\xf96\xe9N?'
p7031
tp7032
Rp7033
I00
NI0
I1
NNNg7033
Ntp7034
bI01
NF-inf
Finf
NNNg7030
Ntp7035
bag6
(g7
g11
Ntp7036
Rp7037
(g68
g6
(g7
g11
Ntp7038
Rp7039
(g71
g15
(g19
S'\xa4Q\x99v4\x00J@'
p7040
tp7041
Rp7042
I00
NI26
I156
NNNg7042
Ntp7043
bI01
NF-inf
Finf
NNNg7039
Ntp7044
bag6
(g7
g11
Ntp7045
Rp7046
(g2688
g6
(g7
g11
Ntp7047
Rp7048
(g2691
g15
(g19
S'U\xa9\x12\x004q\x18A'
p7049
tp7050
Rp7051
I00
Ng15
(g46
S'G\x1c\x06\x00\x00\x00\x00\x00'
p7052
tp7053
Rp7054
g15
(g46
S'S\x1c\x06\x00\x00\x00\x00\x00'
p7055
tp7056
Rp7057
NNNg7051
Ntp7058
bI00
NF-inf
Finf
NNNg7048
Ntp7059
bag6
(g7
g11
Ntp7060
Rp7061
(g2960
g6
(g7
g11
Ntp7062
Rp7063
(g2963
g15
(g19
S'\xc8~<\x01\x00\x00\xf0?'
p7064
tp7065
Rp7066
I01
NI1
Finf
NNNF2.5
Ntp7067
bI01
NF-inf
Finf
NNNg7063
Ntp7068
bag6
(g7
g11
Ntp7069
Rp7070
(g1900
g6
(g7
g11
Ntp7071
Rp7072
(g1903
g15
(g19
S'@\xb9\xa0@\x01\x11z?'
p7073
tp7074
Rp7075
I01
NI0
I1
NNNg15
(g19
S'\xae\xf4\xad\xbc\x86\x0fy?'
p7076
tp7077
Rp7078
Ntp7079
bI01
NF-inf
Finf
NNNg7072
Ntp7080
bag6
(g7
g11
Ntp7081
Rp7082
(g2084
g6
(g7
g11
Ntp7083
Rp7084
(g2087
g15
(g19
S'a\x86\x92\xd8\xff\x7fc@'
p7085
tp7086
Rp7087
I01
NI26
I156
NNNI52
Ntp7088
bI01
NF-inf
Finf
NNNg7084
Ntp7089
bag6
(g7
g11
Ntp7090
Rp7091
(g1694
g6
(g7
g11
Ntp7092
Rp7093
(g1697
g15
(g19
S'\x0eO\xa8\x84\xbeV\x19A'
p7094
tp7095
Rp7096
I01
Ng15
(g46
S'\xa8U\x06\x00\x00\x00\x00\x00'
p7097
tp7098
Rp7099
g15
(g46
S'\xb4U\x06\x00\x00\x00\x00\x00'
p7100
tp7101
Rp7102
NNNg15
(g46
S'\xaeU\x06\x00\x00\x00\x00\x00'
p7103
tp7104
Rp7105
Ntp7106
bI00
NF-inf
Finf
NNNg7093
Ntp7107
bag6
(g7
g11
Ntp7108
Rp7109
(g1371
g6
(g7
g11
Ntp7110
Rp7111
(g274
g15
(g19
S'\xc7\xd7\xc7\xe2\xff\xf2\x04@'
p7112
tp7113
Rp7114
I01
NI1
Finf
Ng15
(g19
S'$\xf5+\\^\xeb\xab?'
p7115
tp7116
Rp7117
(dp7118
g266
g15
(g19
S'\x80\x01\xadu5\xc5S?'
p7119
tp7120
Rp7121
sg282
g15
(g19
S'A\t\xd5\xe61,`\xbf'
p7122
tp7123
Rp7124
sg278
g15
(g19
S'[2[\x05\xb5\x04L\xbf'
p7125
tp7126
Rp7127
sg15
(g19
S'\xa9\x1d8r\xff\xf2\x04@'
p7128
tp7129
Rp7130
Ntp7131
bI01
NF-inf
Finf
NNNg7111
Ntp7132
bag6
(g7
g11
Ntp7133
Rp7134
(g575
g6
(g7
g11
Ntp7135
Rp7136
(g578
g15
(g19
S'\xc0\xceN\xea\x99\xce\x8a?'
p7137
tp7138
Rp7139
I00
NI0
I1
NI0
Ng7139
Ntp7140
bI01
NF-inf
Finf
NNNg7136
Ntp7141
bag6
(g7
g11
Ntp7142
Rp7143
(g1042
g6
(g7
g11
Ntp7144
Rp7145
(g1045
g15
(g19
S'\xeb\x0c\xc0\xff\xff\x7fc@'
p7146
tp7147
Rp7148
I00
NI26
I156
NI0
Ng7148
Ntp7149
bI01
NF-inf
Finf
NNNg7145
Ntp7150
bag6
(g7
g11
Ntp7151
Rp7152
(g3119
g6
(g7
g11
Ntp7153
Rp7154
(g3122
g15
(g19
S'p^h\xc8\xd3}\x19A'
p7155
tp7156
Rp7157
I00
Ng15
(g46
S'i_\x06\x00\x00\x00\x00\x00'
p7158
tp7159
Rp7160
g15
(g46
S'u_\x06\x00\x00\x00\x00\x00'
p7161
tp7162
Rp7163
NI0
Ng7157
Ntp7164
bI00
NF-inf
Finf
NNNg7154
Ntp7165
bag6
(g7
g11
Ntp7166
Rp7167
(g320
g6
(g7
g11
Ntp7168
Rp7169
(g323
g15
(g19
S'\xf0\x8cNP\xf5\n\xa5?'
p7170
tp7171
Rp7172
I00
NI0
I1
NI0
Ng7172
Ntp7173
bI01
NF-inf
Finf
NNNg7169
Ntp7174
bag6
(g7
g11
Ntp7175
Rp7176
(g2436
g6
(g7
g11
Ntp7177
Rp7178
(g2439
g15
(g19
S'V\xd5\x8e\xbf\xe2\x7fc@'
p7179
tp7180
Rp7181
I00
NI26
I156
NI0
Ng7181
Ntp7182
bI01
NF-inf
Finf
NNNg7178
Ntp7183
bag6
(g7
g11
Ntp7184
Rp7185
(g1836
g6
(g7
g11
Ntp7186
Rp7187
(g1839
g15
(g19
S"Y\xc6\xf8\xff'\x89\x19A"
p7188
tp7189
Rp7190
I00
Ng15
(g46
S'>b\x06\x00\x00\x00\x00\x00'
p7191
tp7192
Rp7193
g15
(g46
S'Jb\x06\x00\x00\x00\x00\x00'
p7194
tp7195
Rp7196
NI0
Ng7190
Ntp7197
bI00
NF-inf
Finf
NNNg7187
Ntp7198
bag6
(g7
g11
Ntp7199
Rp7200
(g3603
g6
(g7
g11
Ntp7201
Rp7202
(g3606
g15
(g19
S'\xf4c\x88("\xd3\xb2?'
p7203
tp7204
Rp7205
I00
NI0
I1
NI0
Ng7205
Ntp7206
bI01
NF-inf
Finf
NNNg7202
Ntp7207
bag6
(g7
g11
Ntp7208
Rp7209
(g2323
g6
(g7
g11
Ntp7210
Rp7211
(g2326
g15
(g19
S'\x847\x93\x12\x9dQF@'
p7212
tp7213
Rp7214
I00
NI26
I156
NI0
Ng7214
Ntp7215
bI01
NF-inf
Finf
NNNg7211
Ntp7216
bag6
(g7
g11
Ntp7217
Rp7218
(g693
g6
(g7
g11
Ntp7219
Rp7220
(g696
g15
(g19
S'i\x08\xec\xff\xdb\x8e\x19A'
p7221
tp7222
Rp7223
I00
Ng15
(g46
S'\xb1c\x06\x00\x00\x00\x00\x00'
p7224
tp7225
Rp7226
g15
(g46
S'\xbdc\x06\x00\x00\x00\x00\x00'
p7227
tp7228
Rp7229
NI0
Ng7223
Ntp7230
bI00
NF-inf
Finf
NNNg7220
Ntp7231
bag6
(g7
g11
Ntp7232
Rp7233
(g1341
g6
(g7
g11
Ntp7234
Rp7235
(g1344
g15
(g19
S'J\xb9\xfa\xff\xff\xff\xef?'
p7236
tp7237
Rp7238
I00
NI0
I1
NI0
Ng7238
Ntp7239
bI01
NF-inf
Finf
NNNg7235
Ntp7240
bag6
(g7
g11
Ntp7241
Rp7242
(g3039
g6
(g7
g11
Ntp7243
Rp7244
(g3042
g15
(g19
S'p\xc1?\xe4\xa4\x93W@'
p7245
tp7246
Rp7247
I00
NI26
I156
NI0
Ng7247
Ntp7248
bI01
NF-inf
Finf
NNNg7244
Ntp7249
bag6
(g7
g11
Ntp7250
Rp7251
(g2367
g6
(g7
g11
Ntp7252
Rp7253
(g2370
g15
(g19
S'\xf9\xfd\xff\xff3\x92\x19A'
p7254
tp7255
Rp7256
I00
Ng15
(g46
S'\x81d\x06\x00\x00\x00\x00\x00'
p7257
tp7258
Rp7259
g15
(g46
S'\x8dd\x06\x00\x00\x00\x00\x00'
p7260
tp7261
Rp7262
NI0
Ng7256
Ntp7263
bI00
NF-inf
Finf
NNNg7253
Ntp7264
bag6
(g7
g11
Ntp7265
Rp7266
(g2976
g6
(g7
g11
Ntp7267
Rp7268
(g2979
g15
(g19
S'x\xb3\xa0`\xcb\xb0\xb9?'
p7269
tp7270
Rp7271
I00
NI0
I1
NI0
Ng7271
Ntp7272
bI01
NF-inf
Finf
NNNg7268
Ntp7273
bag6
(g7
g11
Ntp7274
Rp7275
(g3395
g6
(g7
g11
Ntp7276
Rp7277
(g3398
g15
(g19
S'\xea\x1d\xf4\xff\xff\x7fc@'
p7278
tp7279
Rp7280
I00
NI26
I156
NI0
Ng7280
Ntp7281
bI01
NF-inf
Finf
NNNg7277
Ntp7282
bag6
(g7
g11
Ntp7283
Rp7284
(g2829
g6
(g7
g11
Ntp7285
Rp7286
(g2832
g15
(g19
S'\x06\r\x00\x00\xbc\x95\x19A'
p7287
tp7288
Rp7289
I00
Ng15
(g46
S'ie\x06\x00\x00\x00\x00\x00'
p7290
tp7291
Rp7292
g15
(g46
S'ue\x06\x00\x00\x00\x00\x00'
p7293
tp7294
Rp7295
NI0
Ng7289
Ntp7296
bI00
NF-inf
Finf
NNNg7286
Ntp7297
bag6
(g7
g11
Ntp7298
Rp7299
(g2548
g6
(g7
g11
Ntp7300
Rp7301
(g2551
g15
(g19
S'`\xa9\r\x83\xbc\x1f\xa1?'
p7302
tp7303
Rp7304
I00
NI0
I1
NI0
Ng7304
Ntp7305
bI01
NF-inf
Finf
NNNg7301
Ntp7306
bag6
(g7
g11
Ntp7307
Rp7308
(g3307
g6
(g7
g11
Ntp7309
Rp7310
(g3310
g15
(g19
S'0\x0e6\xdd\xff\x7fc@'
p7311
tp7312
Rp7313
I00
NI26
I156
NI0
Ng7313
Ntp7314
bI01
NF-inf
Finf
NNNg7310
Ntp7315
bag6
(g7
g11
Ntp7316
Rp7317
(g1064
g6
(g7
g11
Ntp7318
Rp7319
(g1067
g15
(g19
S')8\xfc\xff\xd7\x9a\x19A'
p7320
tp7321
Rp7322
I00
Ng15
(g46
S'\xaaf\x06\x00\x00\x00\x00\x00'
p7323
tp7324
Rp7325
g15
(g46
S'\xb6f\x06\x00\x00\x00\x00\x00'
p7326
tp7327
Rp7328
NI0
Ng7322
Ntp7329
bI00
NF-inf
Finf
NNNg7319
Ntp7330
bag6
(g7
g11
Ntp7331
Rp7332
(g2076
g6
(g7
g11
Ntp7333
Rp7334
(g2079
g15
(g19
S'\xb0|\xda\x04\x98\xa8\x99?'
p7335
tp7336
Rp7337
I00
NI0
I1
NI0
Ng7337
Ntp7338
bI01
NF-inf
Finf
NNNg7334
Ntp7339
bag6
(g7
g11
Ntp7340
Rp7341
(g1811
g6
(g7
g11
Ntp7342
Rp7343
(g1814
g15
(g19
S'\xe6yni\xff\x7fc@'
p7344
tp7345
Rp7346
I00
NI26
I156
NI0
Ng7346
Ntp7347
bI01
NF-inf
Finf
NNNg7343
Ntp7348
bag6
(g7
g11
Ntp7349
Rp7350
(g370
g6
(g7
g11
Ntp7351
Rp7352
(g373
g15
(g19
S'\xabT\xf2\x02P\xa0\x19A'
p7353
tp7354
Rp7355
I00
Ng15
(g46
S'\x14h\x06\x00\x00\x00\x00\x00'
p7356
tp7357
Rp7358
g15
(g46
S' h\x06\x00\x00\x00\x00\x00'
p7359
tp7360
Rp7361
NI0
Ng7355
Ntp7362
bI00
NF-inf
Finf
NNNg7352
Ntp7363
bag6
(g7
g11
Ntp7364
Rp7365
(g312
g6
(g7
g11
Ntp7366
Rp7367
(g315
g15
(g19
S'@\x92kR\r3v?'
p7368
tp7369
Rp7370
I00
NI0
I1
NI0
Ng7370
Ntp7371
bI01
NF-inf
Finf
NNNg7367
Ntp7372
bag6
(g7
g11
Ntp7373
Rp7374
(g3133
g6
(g7
g11
Ntp7375
Rp7376
(g3136
g15
(g19
S'Ar\x16\xd1G\xb7^@'
p7377
tp7378
Rp7379
I00
NI26
I156
NI0
Ng7379
Ntp7380
bI01
NF-inf
Finf
NNNg7376
Ntp7381
bag6
(g7
g11
Ntp7382
Rp7383
(g715
g6
(g7
g11
Ntp7384
Rp7385
(g718
g15
(g19
S'\xcf\xb0\xb8\xd34\xa8\x19A'
p7386
tp7387
Rp7388
I00
Ng15
(g46
S'\nj\x06\x00\x00\x00\x00\x00'
p7389
tp7390
Rp7391
g15
(g46
S'\x16j\x06\x00\x00\x00\x00\x00'
p7392
tp7393
Rp7394
NI0
Ng7388
Ntp7395
bI00
NF-inf
Finf
NNNg7385
Ntp7396
bag6
(g7
g11
Ntp7397
Rp7398
(g263
g6
(g7
g11
Ntp7399
Rp7400
(g266
g15
(g19
S'\x00Pi\xbd\xbeso?'
p7401
tp7402
Rp7403
I01
NI0
I1
Ng15
(g19
S'\xb0\xfd\x1b\x02\xb0t\xd7?'
p7404
tp7405
Rp7406
(dp7407
g274
g15
(g19
S'\x7f\x01\xadu5\xc5S?'
p7408
tp7409
Rp7410
sg282
g15
(g19
S'\x87\x1d\xf4M\x97\\\xea\xbf'
p7411
tp7412
Rp7413
sg278
g15
(g19
S'\xf7)\x1b\xbf\xa2\x8a\xb7?'
p7414
tp7415
Rp7416
sg15
(g19
S'\xcb\xff\\\xe21\xdch?'
p7417
tp7418
Rp7419
Ntp7420
bI01
NF-inf
Finf
NNNg7400
Ntp7421
bag6
(g7
g11
Ntp7422
Rp7423
(g336
g6
(g7
g11
Ntp7424
Rp7425
(g282
g15
(g19
S'\x1e6\x86S\\,S@'
p7426
tp7427
Rp7428
I01
NI26
I156
Ng15
(g19
S':\x1d\x0e\xc1\t\x92\xb3@'
p7429
tp7430
Rp7431
(dp7432
g274
g15
(g19
S'@\t\xd5\xe61,`\xbf'
p7433
tp7434
Rp7435
sg266
g15
(g19
S'\x87\x1d\xf4M\x97\\\xea\xbf'
p7436
tp7437
Rp7438
sg278
g15
(g19
S'\xa9\xea\x85P\xec\xb3\xcd?'
p7439
tp7440
Rp7441
sI52
Ntp7442
bI01
NF-inf
Finf
NNNg7425
Ntp7443
bag6
(g7
g11
Ntp7444
Rp7445
(g1408
g6
(g7
g11
Ntp7446
Rp7447
(g278
g15
(g19
S'\xaf\xab\xc3Os\xaf\x19A'
p7448
tp7449
Rp7450
I01
Ng15
(g46
S'\xdbk\x06\x00\x00\x00\x00\x00'
p7451
tp7452
Rp7453
g15
(g46
S'\xe7k\x06\x00\x00\x00\x00\x00'
p7454
tp7455
Rp7456
Ng15
(g19
S'\xec0\xce\xdaLC\xa0@'
p7457
tp7458
Rp7459
(dp7460
g274
g15
(g19
S'Z2[\x05\xb5\x04L\xbf'
p7461
tp7462
Rp7463
sg266
g15
(g19
S'\xf5)\x1b\xbf\xa2\x8a\xb7?'
p7464
tp7465
Rp7466
sg282
g15
(g19
S'\xa9\xea\x85P\xec\xb3\xcd?'
p7467
tp7468
Rp7469
sg15
(g46
S'\xe1k\x06\x00\x00\x00\x00\x00'
p7470
tp7471
Rp7472
Ntp7473
bI00
NF-inf
Finf
NNNg7447
Ntp7474
bag6
(g7
g11
Ntp7475
Rp7476
(g3083
g6
(g7
g11
Ntp7477
Rp7478
(g2527
g15
(g19
S'"\x1dl\xc7g\xdf\xf3?'
p7479
tp7480
Rp7481
I01
NI1
Finf
Ng15
(g19
S'S\xba\xa6\x1b\xa9\xf6\x95?'
p7482
tp7483
Rp7484
(dp7485
g2531
g15
(g19
S'*aI\x8eS\x1c\xd8\xbf'
p7486
tp7487
Rp7488
sg2519
g15
(g19
S'\xac?\xf2"\xf6.\x91\xbf'
p7489
tp7490
Rp7491
sg2535
g15
(g19
S"\xca/?\xcc\x93'\xad?"
p7492
tp7493
Rp7494
sF2.5
Ntp7495
bI01
NF-inf
Finf
NNNg7478
Ntp7496
bag6
(g7
g11
Ntp7497
Rp7498
(g3234
g6
(g7
g11
Ntp7499
Rp7500
(g2531
g15
(g19
S'\xc0O\xcd\x99\xdf\xf9u?'
p7501
tp7502
Rp7503
I01
NI0
I1
Ng15
(g19
S'\xab\x89l\x82\x98\x08\xe9>'
p7504
tp7505
Rp7506
(dp7507
g2527
g15
(g19
S'(aI\x8eS\x1c\xd8\xbf'
p7508
tp7509
Rp7510
sg2519
g15
(g19
S'\x9c\x1f\xb7\xd4\x06S\xe4\xbf'
p7511
tp7512
Rp7513
sg2535
g15
(g19
S'\x1e\xdc=Bzq\x88?'
p7514
tp7515
Rp7516
sg15
(g19
S'>\t\xaf\xcb};u?'
p7517
tp7518
Rp7519
Ntp7520
bI01
NF-inf
Finf
NNNg7500
Ntp7521
bag6
(g7
g11
Ntp7522
Rp7523
(g2516
g6
(g7
g11
Ntp7524
Rp7525
(g2519
g15
(g19
S'\xb0\xba\x90\xb8\xef\xe4Y@'
p7526
tp7527
Rp7528
I01
NI26
I156
Ng15
(g19
S'\x98/I\x97\n\xd9\xd2?'
p7529
tp7530
Rp7531
(dp7532
g2527
g15
(g19
S'\xca?\xf2"\xf6.\x91\xbf'
p7533
tp7534
Rp7535
sg2531
g15
(g19
S'\x9c\x1f\xb7\xd4\x06S\xe4\xbf'
p7536
tp7537
Rp7538
sg2535
g15
(g19
S'&\x8bA\xe0\x01\x0c\xbd?'
p7539
tp7540
Rp7541
sI52
Ntp7542
bI01
NF-inf
Finf
NNNg7525
Ntp7543
bag6
(g7
g11
Ntp7544
Rp7545
(g2605
g6
(g7
g11
Ntp7546
Rp7547
(g2535
g15
(g19
S'C%=Wk\xcf\x19A'
p7548
tp7549
Rp7550
I01
Ng15
(g46
S'\xd4s\x06\x00\x00\x00\x00\x00'
p7551
tp7552
Rp7553
g15
(g46
S'\xe0s\x06\x00\x00\x00\x00\x00'
p7554
tp7555
Rp7556
Ng15
(g19
S'\xb8\xf1ck\x80>\xbc?'
p7557
tp7558
Rp7559
(dp7560
g2527
g15
(g19
S"\xc8/?\xcc\x93'\xad?"
p7561
tp7562
Rp7563
sg2531
g15
(g19
S'\x1a\xdc=Bzq\x88?'
p7564
tp7565
Rp7566
sg2519
g15
(g19
S'$\x8bA\xe0\x01\x0c\xbd?'
p7567
tp7568
Rp7569
sg15
(g46
S'\xdas\x06\x00\x00\x00\x00\x00'
p7570
tp7571
Rp7572
Ntp7573
bI00
NF-inf
Finf
NNNg7547
Ntp7574
basb.