clmfit.parameter
Parameters
p0
(tRp1
(dp2
S'unique_symbols'
p3
(dp4
S'amp93428'
p5
ccopy_reg
_reconstructor
p6
(clmfit.parameter
Parameter
p7
c__builtin__
object
p8
Ntp9
Rp10
(S'amp93428'
p11
cnumpy.core.multiarray
scalar
p12
(cnumpy
dtype
p13
(S'f8'
p14
I0
I1
tp15
Rp16
(I3
S'<'
p17
NNNI-1
I-1
I0
tp18
bS'\x00t\xe2\xd8\x80\x0e\xa2?'
p19
tp20
Rp21
I01
NI0
I1
Ng12
(g16
S'n\x07\xc9\xe8X\xbdG?'
p22
tp23
Rp24
(dp25
S'width93428'
p26
g12
(g16
S'\xcb\xfd\x1d\xd6P)\xe5?'
p27
tp28
Rp29
sS'amp93261'
p30
g12
(g16
S'\xf39t\xf4\xdd\xeb\x0f\xbf'
p31
tp32
Rp33
sS'width93317'
p34
g12
(g16
S'ClM\xb8\x8e\xe3y\xbf'
p35
tp36
Rp37
sS'amp93373'
p38
g12
(g16
S'fYX^L\x12\xba?'
p39
tp40
Rp41
sS'width93261'
p42
g12
(g16
S'\xfd\xf9\xbd\xcei9\x90\xbf'
p43
tp44
Rp45
sS'amp93317'
p46
g12
(g16
S'\xf2\x8b\x17~o\xb8\x94?'
p47
tp48
Rp49
sS'width93373'
p50
g12
(g16
S'\x03~\xd7@#\xdc\x90?'
p51
tp52
Rp53
sF0.5
Ntp54
bsS'amp98955'
p55
g6
(g7
g8
Ntp56
Rp57
(S'amp98955'
p58
g12
(g16
S'\xf62(\xc8\xe3\x0c\xc9?'
p59
tp60
Rp61
I01
NI0
I1
Ng12
(g16
S',\x10\xc5\x18X?p?'
p62
tp63
Rp64
(dp65
S'width99002'
p66
g12
(g16
S'\xfcT\x07"\xea\x15\xb9\xbf'
p67
tp68
Rp69
sS'width98955'
p70
g12
(g16
S'\xb8\x02]Bas\xe3\xbf'
p71
tp72
Rp73
sS'amp99002'
p74
g12
(g16
S'S\xc0\xed\x82\x10\xfe\xc3?'
p75
tp76
Rp77
sF0.5
Ntp78
bsS'pos86705'
p79
g6
(g7
g8
Ntp80
Rp81
(S'pos86705'
p82
I86705
I00
NF-inf
Finf
NI0
NI86705
Ntp83
bsS'pos104596'
p84
g6
(g7
g8
Ntp85
Rp86
(S'pos104596'
p87
I104596
I00
NF-inf
Finf
NNNI104596
Ntp88
bsS'pos67673'
p89
g6
(g7
g8
Ntp90
Rp91
(S'pos67673'
p92
I67673
I00
NF-inf
Finf
NNNI67673
Ntp93
bsS'width90220'
p94
g6
(g7
g8
Ntp95
Rp96
(S'width90220'
p97
g12
(g16
S'MV\n\xeb\xff\xff;@'
p98
tp99
Rp100
I01
NI7
I28
Ng12
(g16
S'\\\xbe\xe5r\xb7\xdc\t@'
p101
tp102
Rp103
(dp104
S'amp90234'
p105
g12
(g16
S'\xe6D\xd9n\xb4}\xb5\xbf'
p106
tp107
Rp108
sS'width90234'
p109
g12
(g16
S'\x04\xfb\x7f]\xfa\xaa\xc2\xbf'
p110
tp111
Rp112
sS'amp90220'
p113
g12
(g16
S'\xb2U\xe7\xcc\x03?\xb1?'
p114
tp115
Rp116
sS'amp90270'
p117
g12
(g16
S'\x83\x02\xd7\xe5\xa6r\xbc?'
p118
tp119
Rp120
sS'amp90254'
p121
g12
(g16
S'\xf1\xe9\xdd\xa5q\xfek?'
p122
tp123
Rp124
sS'width90270'
p125
g12
(g16
S'\xbe\xc3c\xcb\x0c\xec\x84\xbf'
p126
tp127
Rp128
sS'width90254'
p129
g12
(g16
S'\xa9\xfb\xbb\xd0Q\xcb\xc0\xbf'
p130
tp131
Rp132
sI14
Ntp133
bsS'width67841'
p134
g6
(g7
g8
Ntp135
Rp136
(S'width67841'
p137
g12
(g16
S'xfZ\xf9\xff\xff;@'
p138
tp139
Rp140
I01
NI7
I28
NNNI14
Ntp141
bsS'pos98759'
p142
g6
(g7
g8
Ntp143
Rp144
(S'pos98759'
p145
I98759
I00
NF-inf
Finf
NNNI98759
Ntp146
bsS'pos99066'
p147
g6
(g7
g8
Ntp148
Rp149
(S'pos99066'
p150
I99066
I00
NF-inf
Finf
NI0
NI99066
Ntp151
bsS'width67425'
p152
g6
(g7
g8
Ntp153
Rp154
(S'width67425'
p155
g12
(g16
S'Ud\xf7\xff\xff\xff;@'
p156
tp157
Rp158
I01
NI7
I28
Ng12
(g16
S'\xcbj\x8f\xbc\xabR\xec?'
p159
tp160
Rp161
(dp162
S'amp67351'
p163
g12
(g16
S'\x82v\x1a\x9cy\xec\x80?'
p164
tp165
Rp166
sS'amp67393'
p167
g12
(g16
S'\xef\xcf\xde`\x11"\xd8\xbf'
p168
tp169
Rp170
sS'width67351'
p171
g12
(g16
S'\xd0\x9c\xd1\x9a\xfb\x84\xb8?'
p172
tp173
Rp174
sS'width67393'
p175
g12
(g16
S'|c{\x91\xd8e\xd2\xbf'
p176
tp177
Rp178
sS'amp67425'
p179
g12
(g16
S'\x16\x9b\x0e\xf3\x16T\xdb\xbf'
p180
tp181
Rp182
sI14
Ntp183
bsS'amp99230'
p184
g6
(g7
g8
Ntp185
Rp186
(S'amp99230'
p187
g12
(g16
S'`\xf1\xb5\xa2\x8e\xa0\x87?'
p188
tp189
Rp190
I01
NI0
I1
Ng12
(g16
S'\xc1\x9aP\xb1\x9bWd?'
p191
tp192
Rp193
(dp194
S'amp99207'
p195
g12
(g16
S'\x12=4\xca\xe2\xd5\xbe?'
p196
tp197
Rp198
sS'width99230'
p199
g12
(g16
S'\x8c\xbf\xe1n\xc5\xc0\xd4\xbf'
p200
tp201
Rp202
sS'width99207'
p203
g12
(g16
S'\xa3(\xb0b+\xe4\xe1?'
p204
tp205
Rp206
sF0.5
Ntp207
bsS'pos90098'
p208
g6
(g7
g8
Ntp209
Rp210
(S'pos90098'
p211
I90098
I00
NF-inf
Finf
NI0
NI90098
Ntp212
bsS'width98882'
p213
g6
(g7
g8
Ntp214
Rp215
(S'width98882'
p216
g12
(g16
S'\xd7\xe5\xc8\xfd\xff\xff;@'
p217
tp218
Rp219
I01
NI7
I28
Ng12
(g16
S'\xf5\xb2\xc9\x9f\xfdB\xf5?'
p220
tp221
Rp222
(dp223
S'amp98882'
p224
g12
(g16
S'\x8e^G\x06$t\xe4\xbf'
p225
tp226
Rp227
sI14
Ntp228
bsS'pos90254'
p229
g6
(g7
g8
Ntp230
Rp231
(S'pos90254'
p232
I90254
I00
NF-inf
Finf
NI0
NI90254
Ntp233
bsS'width72286'
p234
g6
(g7
g8
Ntp235
Rp236
(S'width72286'
p237
g12
(g16
S'OF\x8e\xfb\xff\xff;@'
p238
tp239
Rp240
I01
NI7
I28
Ng12
(g16
S'\xb7^-ZqS\x0e@'
p241
tp242
Rp243
(dp244
S'amp72263'
p245
g12
(g16
S'\x84\x8d_\xc9\xe7\x0f\xdf\xbf'
p246
tp247
Rp248
sS'amp72237'
p249
g12
(g16
S'\xe8\xeae>\x10\x10\xac?'
p250
tp251
Rp252
sS'width72237'
p253
g12
(g16
S'\xd5\xb1\x16j\xd8\x01\x9d\xbf'
p254
tp255
Rp256
sS'width72263'
p257
g12
(g16
S'\x0e\x96\x87\xe3\x89b\xc0\xbf'
p258
tp259
Rp260
sS'amp72286'
p261
g12
(g16
S'\xf3\x9cL\xceJ\xaa\xc9\xbf'
p262
tp263
Rp264
sI14
Ntp265
bsS'width104440'
p266
g6
(g7
g8
Ntp267
Rp268
(S'width104440'
p269
g12
(g16
S'\x00\x00\x00\x00\x00\x00<@'
p270
tp271
Rp272
I01
NI7
I28
NNNI14
Ntp273
bsS'pos104202'
p274
g6
(g7
g8
Ntp275
Rp276
(S'pos104202'
p277
I104202
I00
NF-inf
Finf
NNNI104202
Ntp278
bsS'width104692'
p279
g6
(g7
g8
Ntp280
Rp281
(S'width104692'
p282
g12
(g16
S'~mI\xf9\xff\xff;@'
p283
tp284
Rp285
I01
NI7
I28
NNNI14
Ntp286
bsS'width99066'
p287
g6
(g7
g8
Ntp288
Rp289
(S'width99066'
p290
g12
(g16
S'\xbb\xc2\xf3\xff\xff\xff;@'
p291
tp292
Rp293
I01
NI7
I28
Ng12
(g16
S'#5\xda\xea?\x1f\xce?'
p294
tp295
Rp296
(dp297
S'amp99066'
p298
g12
(g16
S'%\xbfp\xf7%\xe2\xe6?'
p299
tp300
Rp301
sI14
Ntp302
bsS'pos72089'
p303
g6
(g7
g8
Ntp304
Rp305
(S'pos72089'
p306
I72089
I00
NF-inf
Finf
NI0
NI72089
Ntp307
bsS'pos67393'
p308
g6
(g7
g8
Ntp309
Rp310
(S'pos67393'
p311
I67393
I00
NF-inf
Finf
NI0
NI67393
Ntp312
bsS'pos92207'
p313
g6
(g7
g8
Ntp314
Rp315
(S'pos92207'
p316
I92207
I00
NF-inf
Finf
NI0
NI92207
Ntp317
bsS'pos104491'
p318
g6
(g7
g8
Ntp319
Rp320
(S'pos104491'
p321
I104491
I00
NF-inf
Finf
NNNI104491
Ntp322
bsS'amp90152'
p323
g6
(g7
g8
Ntp324
Rp325
(S'amp90152'
p326
g12
(g16
S'\xb0\xac\x97k)T\x92?'
p327
tp328
Rp329
I01
NI0
I1
Ng12
(g16
S'\xa0\xf7m\xc3<\x1ci?'
p330
tp331
Rp332
(dp333
S'width90114'
p334
g12
(g16
S'\x0f\xd9[\xbf\xa55\xdc?'
p335
tp336
Rp337
sS'width90098'
p338
g12
(g16
S'7\x18\x88.\xbav\xc0?'
p339
tp340
Rp341
sS'width90152'
p342
g12
(g16
S'\xdd\xb4>-Uu\xb2?'
p343
tp344
Rp345
sS'amp90098'
p346
g12
(g16
S'\xd3\r\xcf\xc8N\x93\xdb\xbf'
p347
tp348
Rp349
sS'amp90114'
p350
g12
(g16
S'\xf8=\x1d\x037T\xea?'
p351
tp352
Rp353
sS'amp90134'
p354
g12
(g16
S'\xb5du\xaf\x86\xee\xe5\xbf'
p355
tp356
Rp357
sS'width90134'
p358
g12
(g16
S'=A\xed\xa1\xc8\xf4\xed\xbf'
p359
tp360
Rp361
sF0.5
Ntp362
bsS'amp89630'
p363
g6
(g7
g8
Ntp364
Rp365
(S'amp89630'
p366
g12
(g16
S'P\xa2m\x8d5^\x9e?'
p367
tp368
Rp369
I01
NI0
I1
Ng12
(g16
S'9\xd1\x0e\x10/jX?'
p370
tp371
Rp372
(dp373
S'amp89610'
p374
g12
(g16
S'y/\xecR\x84\xb7\xbc\xbf'
p375
tp376
Rp377
sS'width89630'
p378
g12
(g16
S'\x00\xb4\xd0`*d\xd3\xbf'
p379
tp380
Rp381
sS'width89610'
p382
g12
(g16
S'\xd2\xdd\xf5\x88\tf\xd6\xbf'
p383
tp384
Rp385
sF0.5
Ntp386
bsS'amp72263'
p387
g6
(g7
g8
Ntp388
Rp389
(g245
g12
(g16
S'@\xe4H\x8b\xbfP\x9a?'
p390
tp391
Rp392
I01
NI0
I1
Ng12
(g16
S'\xea\\2_\xd7\x88Y?'
p393
tp394
Rp395
(dp396
g249
g12
(g16
S'\xc9\xd3\x8e\x1ff\xab\xb2\xbf'
p397
tp398
Rp399
sg261
g12
(g16
S'/\xc9SWv\xa0\xc0\xbf'
p400
tp401
Rp402
sg257
g12
(g16
S'\x11a }\xe4C\xb6?'
p403
tp404
Rp405
sg253
g12
(g16
S'q\xc3~\xb1o\xea\xdc\xbf'
p406
tp407
Rp408
sg237
g12
(g16
S'm\x8d_\xc9\xe7\x0f\xdf\xbf'
p409
tp410
Rp411
sF0.5
Ntp412
bsS'pos104290'
p413
g6
(g7
g8
Ntp414
Rp415
(S'pos104290'
p416
I104290
I00
NF-inf
Finf
NNNI104290
Ntp417
bsS'amp99066'
p418
g6
(g7
g8
Ntp419
Rp420
(g298
g12
(g16
S'n\xc5\xcc\xa5\x85f\xcb?'
p421
tp422
Rp423
I01
NI0
I1
Ng12
(g16
S'\x9f\xd2\x01Y\xca\x93w?'
p424
tp425
Rp426
(dp427
g290
g12
(g16
S'%\xbfp\xf7%\xe2\xe6?'
p428
tp429
Rp430
sF0.5
Ntp431
bsS'pos67486'
p432
g6
(g7
g8
Ntp433
Rp434
(S'pos67486'
p435
I67486
I00
NF-inf
Finf
NI0
NI67486
Ntp436
bsS'width93731'
p437
g6
(g7
g8
Ntp438
Rp439
(S'width93731'
p440
g12
(g16
S'\x9c\x14\xff\xff\xff\xff;@'
p441
tp442
Rp443
I01
NI7
I28
Ng12
(g16
S"E2\x131'R\xfa?"
p444
tp445
Rp446
(dp447
S'width93782'
p448
g12
(g16
S'x\x05\x0c_\x198\xd6\xbf'
p449
tp450
Rp451
sS'amp93731'
p452
g12
(g16
S'\xdaj\xe4\rF/\xe4\xbf'
p453
tp454
Rp455
sS'amp93782'
p456
g12
(g16
S'\x95\x8f\x0c\xff\xfcF\xb0\xbf'
p457
tp458
Rp459
sI14
Ntp460
bsS'amp72492'
p461
g6
(g7
g8
Ntp462
Rp463
(S'amp72492'
p464
g12
(g16
S"\x00u\xa6-\xa9'\x80?"
p465
tp466
Rp467
I01
NI0
I1
Ng12
(g16
S'\x93\x1e\x1b\xb0\xf3xM?'
p468
tp469
Rp470
(dp471
S'width72492'
p472
g12
(g16
S'\xf0\x1e9@\xc9\xf3\xca\xbf'
p473
tp474
Rp475
sS'width72566'
p476
g12
(g16
S'\xb7\xbe^Q\xd0\x7f\x8d?'
p477
tp478
Rp479
sS'width72519'
p480
g12
(g16
S'@\x92\x89\xa9\xc9\x0b\xe6?'
p481
tp482
Rp483
sS'width72545'
p484
g12
(g16
S'<\xfeU\x13\x9d\x1f\xc5?'
p485
tp486
Rp487
sS'amp72519'
p488
g12
(g16
S'\x12\x8f\r\x1a\xc6w\xb2\xbf'
p489
tp490
Rp491
sS'amp72545'
p492
g12
(g16
S'\xfdK\xe6\xd0\xeeE\xe0?'
p493
tp494
Rp495
sS'amp72566'
p496
g12
(g16
S"a\x1e'\xdb\xcdK\xc0\xbf"
p497
tp498
Rp499
sF0.5
Ntp500
bsS'width67393'
p501
g6
(g7
g8
Ntp502
Rp503
(g175
g12
(g16
S'ZCs\xfe\xff\xff;@'
p504
tp505
Rp506
I01
NI7
I28
Ng12
(g16
S'\xe1\x83\xea\x92:{\xf5?'
p507
tp508
Rp509
(dp510
g163
g12
(g16
S'\xae*\xa4\x08\x95\xf0\xc2\xbf'
p511
tp512
Rp513
sg167
g12
(g16
S"\xfe4\t'\xa0\x7f\xd6\xbf"
p514
tp515
Rp516
sg171
g12
(g16
S'\x16&9S\x8a\xa8\xda\xbf'
p517
tp518
Rp519
sg155
g12
(g16
S'Tc{\x91\xd8e\xd2\xbf'
p520
tp521
Rp522
sg179
g12
(g16
S'\xc2\x97\x13\xa3\xc80\xdb\xbf'
p523
tp524
Rp525
sI14
Ntp526
bsS'pos79922'
p527
g6
(g7
g8
Ntp528
Rp529
(S'pos79922'
p530
I79922
I00
NF-inf
Finf
NI0
NI79922
Ntp531
bsS'width104596'
p532
g6
(g7
g8
Ntp533
Rp534
(S'width104596'
p535
g12
(g16
S'\xb5\x91\xdc\xff\xff\xff;@'
p536
tp537
Rp538
I01
NI7
I28
NNNI14
Ntp539
bsS'pos104323'
p540
g6
(g7
g8
Ntp541
Rp542
(S'pos104323'
p543
I104323
I00
NF-inf
Finf
NNNI104323
Ntp544
bsS'amp92207'
p545
g6
(g7
g8
Ntp546
Rp547
(S'amp92207'
p548
g12
(g16
S'\xd0m\xc6\xe6/i\x9e?'
p549
tp550
Rp551
I01
NI0
I1
Ng12
(g16
S'\x96|\xd7-\x84kT?'
p552
tp553
Rp554
(dp555
S'width92207'
p556
g12
(g16
S'\x1e^\x8b4,\xdd\xe6\xbf'
p557
tp558
Rp559
sF0.5
Ntp560
bsS'infty'
p561
Finf
sS'pos72566'
p562
g6
(g7
g8
Ntp563
Rp564
(S'pos72566'
p565
I72566
I00
NF-inf
Finf
NI0
NI72566
Ntp566
bsS'width90114'
p567
g6
(g7
g8
Ntp568
Rp569
(g334
g12
(g16
S'\x82\x84_\xff\xff\xff;@'
p570
tp571
Rp572
I01
NI7
I28
Ng12
(g16
S'\xf7\x03<\xd7\xfd\xf6+@'
p573
tp574
Rp575
(dp576
g326
g12
(g16
S'\x83\xd8[\xbf\xa55\xdc?'
p577
tp578
Rp579
sg338
g12
(g16
S't\x19\xf1|\xcav\xb9\xbf'
p580
tp581
Rp582
sg342
g12
(g16
S'Z\x0b\xb4\xd5FM\xc0?'
p583
tp584
Rp585
sg346
g12
(g16
S'\xb5xk\xfdA\x1e\xee\xbf'
p586
tp587
Rp588
sg350
g12
(g16
S'\xf39\xe2\xbc\xb0u\xe7?'
p589
tp590
Rp591
sg354
g12
(g16
S'$\xcb\x84V\xc3\xf7\xeb\xbf'
p592
tp593
Rp594
sg358
g12
(g16
S'\xfc\x81\xd0j\x83\x05\xde\xbf'
p595
tp596
Rp597
sI14
Ntp598
bsS'width90098'
p599
g6
(g7
g8
Ntp600
Rp601
(g338
g12
(g16
S'\xa7y\xff\xff\xff\xff;@'
p602
tp603
Rp604
I01
NI7
I28
Ng12
(g16
S'\x9d\x19}\xc8\x1a\x07\x12@'
p605
tp606
Rp607
(dp608
g334
g12
(g16
S'\x1a\x18\xf1|\xcav\xb9\xbf'
p609
tp610
Rp611
sg326
g12
(g16
S'\xf2\x18\x88.\xbav\xc0?'
p612
tp613
Rp614
sg342
g12
(g16
S'\xea\xae\xb72v;\xa4?'
p615
tp616
Rp617
sg346
g12
(g16
S'\xf6\x05$\xfa\xce\xb2i\xbf'
p618
tp619
Rp620
sg350
g12
(g16
S'\x0e\x1coa\xc8\xec\xb9\xbf'
p621
tp622
Rp623
sg354
g12
(g16
S'\xbeR\xf2\x7fP_\x88\xbf'
p624
tp625
Rp626
sg358
g12
(g16
S'l\x16\x1f\t\xd7\xe0\xc3\xbf'
p627
tp628
Rp629
sI14
Ntp630
bsS'NAN'
p631
Fnan
sS'width104869'
p632
g6
(g7
g8
Ntp633
Rp634
(S'width104869'
p635
g12
(g16
S'\xf3A;\xf0\xff\xff;@'
p636
tp637
Rp638
I01
NI7
I28
Ng12
(g16
S'!\x07\x8c\xed\x98\xf9\x11@'
p639
tp640
Rp641
(dp642
S'amp104869'
p643
g12
(g16
S'7i\x84J\xd3\xe3\xe6\xbf'
p644
tp645
Rp646
sI14
Ntp647
bsS'width86970'
p648
g6
(g7
g8
Ntp649
Rp650
(S'width86970'
p651
g12
(g16
S'\x8ds\xbb\xff\xff\xff;@'
p652
tp653
Rp654
I01
NI7
I28
Ng12
(g16
S'\xe2\xa6w\xb2\xea\xe2\xdf?'
p655
tp656
Rp657
(dp658
S'amp86970'
p659
g12
(g16
S'2\x82j\x15\xdb\xea\xe6\xbf'
p660
tp661
Rp662
sI14
Ntp663
bsS'amp104547'
p664
g6
(g7
g8
Ntp665
Rp666
(S'amp104547'
p667
g12
(g16
S'\xc06W\x17`\xf4\x8a?'
p668
tp669
Rp670
I01
NI0
I1
NNNF0.5
Ntp671
bsS'pos80041'
p672
g6
(g7
g8
Ntp673
Rp674
(S'pos80041'
p675
I80041
I00
NF-inf
Finf
NI0
NI80041
Ntp676
bsS'width98759'
p677
g6
(g7
g8
Ntp678
Rp679
(S'width98759'
p680
g12
(g16
S'\xe1x\xfd\xff\xff\xff;@'
p681
tp682
Rp683
I01
NI7
I28
NNNI14
Ntp684
bsS'pos72237'
p685
g6
(g7
g8
Ntp686
Rp687
(S'pos72237'
p688
I72237
I00
NF-inf
Finf
NI0
NI72237
Ntp689
bsS'amp95462'
p690
g6
(g7
g8
Ntp691
Rp692
(S'amp95462'
p693
g12
(g16
S'\xf0s\xec\x85V$\x9a?'
p694
tp695
Rp696
I01
NI0
I1
Ng12
(g16
S'\x86\xa9\xae\x95h\x19B?'
p697
tp698
Rp699
(dp700
S'width95462'
p701
g12
(g16
S'\x8ea\xdf\xc7W\xe2\xe6?'
p702
tp703
Rp704
sF0.5
Ntp705
bsS'width90254'
p706
g6
(g7
g8
Ntp707
Rp708
(g129
g12
(g16
S'\xeay\x7f\xfe\xff\xff;@'
p709
tp710
Rp711
I01
NI7
I28
Ng12
(g16
S'\xc4\xc4\xb5\xa8\x11\x1a5@'
p712
tp713
Rp714
(dp715
g105
g12
(g16
S'\xc5\xfdOV\xee\xd1\xec\xbf'
p716
tp717
Rp718
sg109
g12
(g16
S"%\xe50['\xe9\xe5\xbf"
p719
tp720
Rp721
sg113
g12
(g16
S'M\x8a`$\x8d\xeb\xe5?'
p722
tp723
Rp724
sg117
g12
(g16
S'\xc66\x92m\x16\xd5\xee\xbf'
p725
tp726
Rp727
sg121
g12
(g16
S'\xf9q0lw\x18\xeb?'
p728
tp729
Rp730
sg97
g12
(g16
S'\x12\xfc\xbb\xd0Q\xcb\xc0\xbf'
p731
tp732
Rp733
sg125
g12
(g16
S'\x8f\xad\xd4\xd9\xe0\xd5\xa0\xbf'
p734
tp735
Rp736
sI14
Ntp737
bsS'amp67257'
p738
g6
(g7
g8
Ntp739
Rp740
(S'amp67257'
p741
g12
(g16
S'@\xd64\xe8\t\xb4w?'
p742
tp743
Rp744
I01
NI0
I1
Ng12
(g16
S'\xfc\xc7l\xfe\xcf\xdf&?'
p745
tp746
Rp747
(dp748
S'width67257'
p749
g12
(g16
S'\xf2<\xac\xd6\xdd\xd1\xe6\xbf'
p750
tp751
Rp752
sF0.5
Ntp753
bsS'amp80041'
p754
g6
(g7
g8
Ntp755
Rp756
(S'amp80041'
p757
g12
(g16
S'0;\xaa\x13\x88\xe4\x94?'
p758
tp759
Rp760
I01
NI0
I1
Ng12
(g16
S'\x99\x06\xc5\xa7\xcc\xaeG?'
p761
tp762
Rp763
(dp764
S'amp80093'
p765
g12
(g16
S'\xbc\xa7\x96\xf1\x8a\x9d\xbe?'
p766
tp767
Rp768
sS'width80041'
p769
g12
(g16
S'\xfa\xb7\xa1\xc7\xf5W\xe4\xbf'
p770
tp771
Rp772
sS'width80093'
p773
g12
(g16
S'\xdb6\xd5\x1a8)\xa9\xbf'
p774
tp775
Rp776
sF0.5
Ntp777
bsS'pos86970'
p778
g6
(g7
g8
Ntp779
Rp780
(S'pos86970'
p781
I86970
I00
NF-inf
Finf
NI0
NI86970
Ntp782
bsS'amp95581'
p783
g6
(g7
g8
Ntp784
Rp785
(S'amp95581'
p786
g12
(g16
S'\xe0\xd0M401\x8e?'
p787
tp788
Rp789
I01
NI0
I1
Ng12
(g16
S'\xeam\xc9\xbb\xfe\x9a8?'
p790
tp791
Rp792
(dp793
S'width95581'
p794
g12
(g16
S'\x8fGtK3\xe3\xe6?'
p795
tp796
Rp797
sF0.5
Ntp798
bsS'pos67934'
p799
g6
(g7
g8
Ntp800
Rp801
(S'pos67934'
p802
I67934
I00
NF-inf
Finf
NI0
NI67934
Ntp803
bsS'pos92432'
p804
g6
(g7
g8
Ntp805
Rp806
(S'pos92432'
p807
I92432
I00
NF-inf
Finf
NI0
NI92432
Ntp808
bsS'amp67654'
p809
g6
(g7
g8
Ntp810
Rp811
(S'amp67654'
p812
g12
(g16
S'\x80\x96\xbaQ\x89Bi?'
p813
tp814
Rp815
I01
NI0
I1
NNNF0.5
Ntp816
bsS'pos104440'
p817
g6
(g7
g8
Ntp818
Rp819
(S'pos104440'
p820
I104440
I00
NF-inf
Finf
NNNI104440
Ntp821
bsS'amp67393'
p822
g6
(g7
g8
Ntp823
Rp824
(g167
g12
(g16
S'\xc0\x17,|\x81|y?'
p825
tp826
Rp827
I01
NI0
I1
Ng12
(g16
S'\xf8q\x0e\x9f\x10\xff"?'
p828
tp829
Rp830
(dp831
g163
g12
(g16
S'\xab!/\x0ed\x99\xc1?'
p832
tp833
Rp834
sg175
g12
(g16
S'"5\t\'\xa0\x7f\xd6\xbf'
p835
tp836
Rp837
sg171
g12
(g16
S"'\xa6\xd6u\xeb\x8c\xba\xbf"
p838
tp839
Rp840
sg155
g12
(g16
S'N\xd0\xde`\x11"\xd8\xbf'
p841
tp842
Rp843
sg179
g12
(g16
S'\xb1\xf3|\xca\xb0-\xcc?'
p844
tp845
Rp846
sF0.5
Ntp847
bsS'pos93610'
p848
g6
(g7
g8
Ntp849
Rp850
(S'pos93610'
p851
I93610
I00
NF-inf
Finf
NI0
NI93610
Ntp852
bsS'False'
p853
I00
sS'amp98882'
p854
g6
(g7
g8
Ntp855
Rp856
(g224
g12
(g16
S'\x84\xf3\xfb|RZ\xbd?'
p857
tp858
Rp859
I01
NI0
I1
Ng12
(g16
S'\xd3\r\xf6\x0f\x8fNg?'
p860
tp861
Rp862
(dp863
g216
g12
(g16
S'\x8e^G\x06$t\xe4\xbf'
p864
tp865
Rp866
sF0.5
Ntp867
bsS'amp67520'
p868
g6
(g7
g8
Ntp869
Rp870
(S'amp67520'
p871
g12
(g16
S'@\x08\xa0.\xc40u?'
p872
tp873
Rp874
I01
NI0
I1
Ng12
(g16
S'\x1c&\x14\xdf\xebpG?'
p875
tp876
Rp877
(dp878
S'width67531'
p879
g12
(g16
S'\xb7\xb7^qI9\xe6\xbf'
p880
tp881
Rp882
sS'width67486'
p883
g12
(g16
S'\x10\xf82\xd8\x0c\x18\xd6\xbf'
p884
tp885
Rp886
sS'width67562'
p887
g12
(g16
S'\xd7n.\xcb\x9e\xdc\xd4\xbf'
p888
tp889
Rp890
sS'amp67562'
p891
g12
(g16
S'\xf0:p\t&\x9b\xd9?'
p892
tp893
Rp894
sS'width67520'
p895
g12
(g16
S'}\xb3\xb6\x90k\x94\xdc?'
p896
tp897
Rp898
sS'amp67486'
p899
g12
(g16
S'\xf8=\xb7\xc3 +\xb5\xbf'
p900
tp901
Rp902
sS'amp67531'
p903
g12
(g16
S'L\xafg|\x9a\xc9\xea\xbf'
p904
tp905
Rp906
sF0.5
Ntp907
bsS'amp95106'
p908
g6
(g7
g8
Ntp909
Rp910
(S'amp95106'
p911
g12
(g16
S'\xa0o\xdb\xe3Vk\x90?'
p912
tp913
Rp914
I01
NI0
I1
Ng12
(g16
S'\x7fl\xb9\x1b\xb462?'
p915
tp916
Rp917
(dp918
S'width95106'
p919
g12
(g16
S'\t\x1b\xda%\xf1\xe2\xe6?'
p920
tp921
Rp922
sF0.5
Ntp923
bsS'amp90007'
p924
g6
(g7
g8
Ntp925
Rp926
(S'amp90007'
p927
g12
(g16
S'\x804U\xaf \xe5\x8f?'
p928
tp929
Rp930
I01
NI0
I1
Ng12
(g16
S'\xcb\xa1\xa9P\xe6\xd6d?'
p931
tp932
Rp933
(dp934
S'width90007'
p935
g12
(g16
S'\xd4^w\x02\xa2\xfc\xa2?'
p936
tp937
Rp938
sS'amp89992'
p939
g12
(g16
S'\xeaRtb\xd7\x17\xda\xbf'
p940
tp941
Rp942
sS'width89992'
p943
g12
(g16
S'\xae\xb5\x8c\xbb\x05\xb3\xe2\xbf'
p944
tp945
Rp946
sF0.5
Ntp947
bsS'True'
p948
I01
sS'amp72089'
p949
g6
(g7
g8
Ntp950
Rp951
(S'amp72089'
p952
g12
(g16
S'pj\xeb\xf2\xaa\x96\x98?'
p953
tp954
Rp955
I01
NI0
I1
Ng12
(g16
S'\x86v\xef\x9fM\x81[?'
p956
tp957
Rp958
(dp959
S'amp72069'
p960
g12
(g16
S'%b\x12\xbb\xe8\xea\xd1\xbf'
p961
tp962
Rp963
sS'width72089'
p964
g12
(g16
S'\x8b\x9fQ \xea\xac\xc6?'
p965
tp966
Rp967
sS'width72069'
p968
g12
(g16
S'\x92\xb7A8\xe4M\xea\xbf'
p969
tp970
Rp971
sS'amp72042'
p972
g12
(g16
S'\xee*\xb92\xe7f\xe5?'
p973
tp974
Rp975
sS'width72042'
p976
g12
(g16
S'M&#\x8b\x0c\xe9\xd0?'
p977
tp978
Rp979
sF0.5
Ntp980
bsS'width72237'
p981
g6
(g7
g8
Ntp982
Rp983
(g253
g12
(g16
S'\xe25O\xff\xff\xff;@'
p984
tp985
Rp986
I01
NI7
I28
Ng12
(g16
S'\x87\xc8;\x97j\x08\x01@'
p987
tp988
Rp989
(dp990
g245
g12
(g16
S'o\xc3~\xb1o\xea\xdc\xbf'
p991
tp992
Rp993
sg249
g12
(g16
S'\xa8/\x01,\xd9p\xc5\xbf'
p994
tp995
Rp996
sg261
g12
(g16
S'\x98\x0e\xf8\xfc\x8f9\xc7?'
p997
tp998
Rp999
sg257
g12
(g16
S'\xee\x81|\xee\xe0\xcb\xcf\xbf'
p1000
tp1001
Rp1002
sg237
g12
(g16
S'\xc4\xb3\x16j\xd8\x01\x9d\xbf'
p1003
tp1004
Rp1005
sI14
Ntp1006
bsS'amp79873'
p1007
g6
(g7
g8
Ntp1008
Rp1009
(S'amp79873'
p1010
g12
(g16
S'pv\tu\x92\x11\x90?'
p1011
tp1012
Rp1013
I01
NI0
I1
Ng12
(g16
S'\xa1M\xab\x02\xe0\xa6D?'
p1014
tp1015
Rp1016
(dp1017
S'amp79972'
p1018
g12
(g16
S'\xe5w\x14\\\x90\xb7\xa3?'
p1019
tp1020
Rp1021
sS'width79922'
p1022
g12
(g16
S"\xf2T%\xde'\xbf\xb2\xbf"
p1023
tp1024
Rp1025
sS'width79972'
p1026
g12
(g16
S'\xe8\x1c\xd7\x15*\xeb\x7f?'
p1027
tp1028
Rp1029
sS'amp79922'
p1030
g12
(g16
S'\x95\x16\x01@dr\xc1?'
p1031
tp1032
Rp1033
sS'width79873'
p1034
g12
(g16
S'TJ\x14\x7fD\xb4\xe3\xbf'
p1035
tp1036
Rp1037
sF0.5
Ntp1038
bsS'width86705'
p1039
g6
(g7
g8
Ntp1040
Rp1041
(S'width86705'
p1042
g12
(g16
S'\x08\xba\xfd\xff\xff\xff;@'
p1043
tp1044
Rp1045
I01
NI7
I28
Ng12
(g16
S'\xaa\xbb6\xfc{\x1b\xa2?'
p1046
tp1047
Rp1048
(dp1049
S'amp86705'
p1050
g12
(g16
S'\x04_u\xaf\x10\xe2\xe6?'
p1051
tp1052
Rp1053
sI14
Ntp1054
bsS'width89992'
p1055
g6
(g7
g8
Ntp1056
Rp1057
(g943
g12
(g16
S'VP\xf5\xfd\xff\xff;@'
p1058
tp1059
Rp1060
I01
NI7
I28
Ng12
(g16
S'\xbe\xf5\xdb\xcd\xc8\xb0\x1b@'
p1061
tp1062
Rp1063
(dp1064
g927
g12
(g16
S'\xb0\xb5\x8c\xbb\x05\xb3\xe2\xbf'
p1065
tp1066
Rp1067
sg939
g12
(g16
S'|\xaf\xe8\xdb\x8b\x05\x82?'
p1068
tp1069
Rp1070
sg935
g12
(g16
S'\xe6u\xd0\xee\x16R\xd3\xbf'
p1071
tp1072
Rp1073
sI14
Ntp1074
bsS'width67654'
p1075
g6
(g7
g8
Ntp1076
Rp1077
(S'width67654'
p1078
g12
(g16
S'`L\xa3|\x94\x0e&@'
p1079
tp1080
Rp1081
I01
NI7
I28
NNNI14
Ntp1082
bsS'amp79972'
p1083
g6
(g7
g8
Ntp1084
Rp1085
(g1018
g12
(g16
S'\xe0H\x9e\xbc\x02\xfe\x94?'
p1086
tp1087
Rp1088
I01
NI0
I1
Ng12
(g16
S'\xe6\xd3\xf5\x82\xd5YD?'
p1089
tp1090
Rp1091
(dp1092
g1034
g12
(g16
S'\x9b\x95\xa2\xdecDh?'
p1093
tp1094
Rp1095
sg1022
g12
(g16
S'\xb1\x19\xb2s\xe7\x1b\xb4\xbf'
p1096
tp1097
Rp1098
sg1026
g12
(g16
S'\xa7/U\xe7\xean\xe3\xbf'
p1099
tp1100
Rp1101
sg1010
g12
(g16
S'\xddx\x14\\\x90\xb7\xa3?'
p1102
tp1103
Rp1104
sg1030
g12
(g16
S'\x04>\xb6+:\r\xc2?'
p1105
tp1106
Rp1107
sF0.5
Ntp1108
bsS'width92432'
p1109
g6
(g7
g8
Ntp1110
Rp1111
(S'width92432'
p1112
g12
(g16
S'Y\xff\xff\xff\xff\xff;@'
p1113
tp1114
Rp1115
I01
NI7
I28
Ng12
(g16
S'f\xd3B\xad1\x8fq?'
p1116
tp1117
Rp1118
(dp1119
S'amp92432'
p1120
g12
(g16
S'>\xba\xfe\x9a<\xe2\xe6?'
p1121
tp1122
Rp1123
sI14
Ntp1124
bsS'amp104290'
p1125
g6
(g7
g8
Ntp1126
Rp1127
(S'amp104290'
p1128
g12
(g16
S'@\xb3-\x83\xb9\xa5p?'
p1129
tp1130
Rp1131
I01
NI0
I1
NNNF0.5
Ntp1132
bsS'amp90134'
p1133
g6
(g7
g8
Ntp1134
Rp1135
(g354
g12
(g16
S'@\x89\xa3\xef\x05\xb5\x84?'
p1136
tp1137
Rp1138
I01
NI0
I1
Ng12
(g16
S'@\xc3`\xcf?\x91o?'
p1139
tp1140
Rp1141
(dp1142
g334
g12
(g16
S'H\xcb\x84V\xc3\xf7\xeb\xbf'
p1143
tp1144
Rp1145
sg326
g12
(g16
S'\x9ddu\xaf\x86\xee\xe5\xbf'
p1146
tp1147
Rp1148
sg338
g12
(g16
S'.G\xf2\x7fP_\x88\xbf'
p1149
tp1150
Rp1151
sg342
g12
(g16
S'\xfd8>_\xf2&\xba?'
p1152
tp1153
Rp1154
sg346
g12
(g16
S'\xa4\xfc\x16\xbbZ\x93\xeb?'
p1155
tp1156
Rp1157
sg350
g12
(g16
S'3&\xbd\x8e\xc5\xd0\xeb\xbf'
p1158
tp1159
Rp1160
sg358
g12
(g16
S'\xfd\x10\xbb\x87\xee\x9f\xe5?'
p1161
tp1162
Rp1163
sF0.5
Ntp1164
bsS'width89894'
p1165
g6
(g7
g8
Ntp1166
Rp1167
(S'width89894'
p1168
g12
(g16
S'\xc9\x8b\x94\xff\xff\xff;@'
p1169
tp1170
Rp1171
I01
NI7
I28
Ng12
(g16
S'\xfa\x1d\xcaM\x08h\x17@'
p1172
tp1173
Rp1174
(dp1175
S'amp89894'
p1176
g12
(g16
S'\x8e\xc9J\x05#\xcd\xd4?'
p1177
tp1178
Rp1179
sS'amp89871'
p1180
g12
(g16
S'\xf7B\x19h\x87\xe2\xe1?'
p1181
tp1182
Rp1183
sS'width89871'
p1184
g12
(g16
S'\xed`\tt\xbe\x1a\xc2?'
p1185
tp1186
Rp1187
sI14
Ntp1188
bsS'amp104531'
p1189
g6
(g7
g8
Ntp1190
Rp1191
(S'amp104531'
p1192
g12
(g16
S'\xe0\x96\xca\xd08Y\x84?'
p1193
tp1194
Rp1195
I01
NI0
I1
NNNF0.5
Ntp1196
bsS'amp104323'
p1197
g6
(g7
g8
Ntp1198
Rp1199
(S'amp104323'
p1200
g12
(g16
S'\x80\x80C;#-\x82?'
p1201
tp1202
Rp1203
I01
NI0
I1
NNNF0.5
Ntp1204
bsS'pos99340'
p1205
g6
(g7
g8
Ntp1206
Rp1207
(S'pos99340'
p1208
I99340
I00
NF-inf
Finf
NI0
NI99340
Ntp1209
bsS'amp104790'
p1210
g6
(g7
g8
Ntp1211
Rp1212
(S'amp104790'
p1213
g12
(g16
S'@\xde\xd2\xcb\x94ap?'
p1214
tp1215
Rp1216
I01
NI0
I1
NNNF0.5
Ntp1217
bsS'width67934'
p1218
g6
(g7
g8
Ntp1219
Rp1220
(S'width67934'
p1221
g12
(g16
S'\x00\x00\x00\x00\x00\x00<@'
p1222
tp1223
Rp1224
I01
NI7
I28
Ng12
(g16
S"'\xb5X\xb8\x1bR\x12?"
p1225
tp1226
Rp1227
(dp1228
S'amp67934'
p1229
g12
(g16
S'\xf6\x03e\xb0#\xe2\xe6?'
p1230
tp1231
Rp1232
sI14
Ntp1233
bsS'width89630'
p1234
g6
(g7
g8
Ntp1235
Rp1236
(g378
g12
(g16
S'eV\x83\xff\xff\xff;@'
p1237
tp1238
Rp1239
I01
NI7
I28
Ng12
(g16
S'\xf2\xf8\x9dH\xed\xec\x04@'
p1240
tp1241
Rp1242
(dp1243
g374
g12
(g16
S'\x9bA/\xaer\x97\xe2\xbf'
p1244
tp1245
Rp1246
sg366
g12
(g16
S'\x06\xb4\xd0`*d\xd3\xbf'
p1247
tp1248
Rp1249
sg382
g12
(g16
S'\xc5$f\x01sK\xc8\xbf'
p1250
tp1251
Rp1252
sI14
Ntp1253
bsS'width90152'
p1254
g6
(g7
g8
Ntp1255
Rp1256
(g342
g12
(g16
S'Gm\xa4\xfd\xff\xff;@'
p1257
tp1258
Rp1259
I01
NI7
I28
Ng12
(g16
S'w7:\xae\xd9\xba\x11@'
p1260
tp1261
Rp1262
(dp1263
g334
g12
(g16
S'!\x0b\xb4\xd5FM\xc0?'
p1264
tp1265
Rp1266
sg326
g12
(g16
S'H\xb4>-Uu\xb2?'
p1267
tp1268
Rp1269
sg338
g12
(g16
S'\t\xaf\xb72v;\xa4?'
p1270
tp1271
Rp1272
sg346
g12
(g16
S'c\xd5\x0e\x8b0\x83\xb9\xbf'
p1273
tp1274
Rp1275
sg350
g12
(g16
S'\xca\\\xbb\xf8\x05\x1d\xa2?'
p1276
tp1277
Rp1278
sg354
g12
(g16
S'{9>_\xf2&\xba?'
p1279
tp1280
Rp1281
sg358
g12
(g16
S'\xc8w\xce\x9e4\xe2\xa9?'
p1282
tp1283
Rp1284
sI14
Ntp1285
bsS'width80093'
p1286
g6
(g7
g8
Ntp1287
Rp1288
(g773
g12
(g16
S'M\x9b\xfe\xff\xff\xff;@'
p1289
tp1290
Rp1291
I01
NI7
I28
Ng12
(g16
S'\xedQ\xe0!\xbd\n\xfc?'
p1292
tp1293
Rp1294
(dp1295
g765
g12
(g16
S'l\x9a\xa1\xf6BX\xe4\xbf'
p1296
tp1297
Rp1298
sg757
g12
(g16
S'\x8c6\xd5\x1a8)\xa9\xbf'
p1299
tp1300
Rp1301
sg769
g12
(g16
S'"\x12\xb1\xc8A6\xd6\xbf'
p1302
tp1303
Rp1304
sI14
Ntp1305
bsS'amp90220'
p1306
g6
(g7
g8
Ntp1307
Rp1308
(g113
g12
(g16
S'\x80\xbb\xa6r\x96\xd1\x92?'
p1309
tp1310
Rp1311
I01
NI0
I1
Ng12
(g16
S'f\xd1\xa8\xb5\xe01s?'
p1312
tp1313
Rp1314
(dp1315
g105
g12
(g16
S'a8\xd5b\xf6\x92\xec\xbf'
p1316
tp1317
Rp1318
sg109
g12
(g16
S'\x06l\xa5\xb7\xc6\xc2\xee\xbf'
p1319
tp1320
Rp1321
sg97
g12
(g16
S'\x8cT\xe7\xcc\x03?\xb1?'
p1322
tp1323
Rp1324
sg117
g12
(g16
S'\xe2\x98!\x8dO\xee\xe5\xbf'
p1325
tp1326
Rp1327
sg121
g12
(g16
S'c\xdd\xee\t\x18\x1b\xed?'
p1328
tp1329
Rp1330
sg125
g12
(g16
S'\x1f\xb8e\xa2\xe0\xaa\xc0?'
p1331
tp1332
Rp1333
sg129
g12
(g16
S'\x9e\x8a`$\x8d\xeb\xe5?'
p1334
tp1335
Rp1336
sF0.5
Ntp1337
bsS'pos67562'
p1338
g6
(g7
g8
Ntp1339
Rp1340
(S'pos67562'
p1341
I67562
I00
NF-inf
Finf
NI0
NI67562
Ntp1342
bsS'width67257'
p1343
g6
(g7
g8
Ntp1344
Rp1345
(g749
g12
(g16
S'\xd4\xb3\n4\xaf.8@'
p1346
tp1347
Rp1348
I01
NI7
I28
Ng12
(g16
S'F\xa2\x07J\xb5\xec\xf1?'
p1349
tp1350
Rp1351
(dp1352
g741
g12
(g16
S'\xf2<\xac\xd6\xdd\xd1\xe6\xbf'
p1353
tp1354
Rp1355
sI14
Ntp1356
bsS'width67562'
p1357
g6
(g7
g8
Ntp1358
Rp1359
(g887
g12
(g16
S'\x93G\xfb\xff\xff\xff;@'
p1360
tp1361
Rp1362
I01
NI7
I28
Ng12
(g16
S'\xa7gkB\x98\x9a\xbb?'
p1363
tp1364
Rp1365
(dp1366
g879
g12
(g16
S'kI\xeeg\xb5\xea\xd8?'
p1367
tp1368
Rp1369
sg883
g12
(g16
S't\xe8\\\xab\x0b\xc1n\xbf'
p1370
tp1371
Rp1372
sg871
g12
(g16
S'\xa4n.\xcb\x9e\xdc\xd4\xbf'
p1373
tp1374
Rp1375
sg891
g12
(g16
S'#S\x00\xb3m\xc2\xc8?'
p1376
tp1377
Rp1378
sg895
g12
(g16
S'\x0f\xe3\xeeI7N\x82?'
p1379
tp1380
Rp1381
sg899
g12
(g16
S'\\\xa1\xc6\x00\x98d\xa9\xbf'
p1382
tp1383
Rp1384
sg903
g12
(g16
S'\rO\xa3\xa8\xf7\x10\xd9?'
p1385
tp1386
Rp1387
sI14
Ntp1388
bsS'None'
p1389
NsS'width104547'
p1390
g6
(g7
g8
Ntp1391
Rp1392
(S'width104547'
p1393
g12
(g16
S'\x00\x00\x00\x00\x00\x00<@'
p1394
tp1395
Rp1396
I01
NI7
I28
NNNI14
Ntp1397
bsS'amp71908'
p1398
g6
(g7
g8
Ntp1399
Rp1400
(S'amp71908'
p1401
g12
(g16
S'\xf8j\xaem\xe3 \xa5?'
p1402
tp1403
Rp1404
I01
NI0
I1
Ng12
(g16
S"\x83f\xcb?'R`?"
p1405
tp1406
Rp1407
(dp1408
S'amp71876'
p1409
g12
(g16
S'\xbbOj)6\x0e\xd0?'
p1410
tp1411
Rp1412
sS'width71908'
p1413
g12
(g16
S'\xcd|{\x7f\xf9\xc1\xdd?'
p1414
tp1415
Rp1416
sS'width71876'
p1417
g12
(g16
S'\x10\x87\xb7)l\xc4\xd7\xbf'
p1418
tp1419
Rp1420
sF0.5
Ntp1421
bsS'pos104531'
p1422
g6
(g7
g8
Ntp1423
Rp1424
(S'pos104531'
p1425
I104531
I00
NF-inf
Finf
NNNI104531
Ntp1426
bsS'pos93428'
p1427
g6
(g7
g8
Ntp1428
Rp1429
(S'pos93428'
p1430
I93428
I00
NF-inf
Finf
NI0
NI93428
Ntp1431
bsS'pos93853'
p1432
g6
(g7
g8
Ntp1433
Rp1434
(S'pos93853'
p1435
I93853
I00
NF-inf
Finf
NI0
NI93853
Ntp1436
bsS'amp67531'
p1437
g6
(g7
g8
Ntp1438
Rp1439
(g903
g12
(g16
S'\xe0\xe7G\x7fn\xe8\x81?'
p1440
tp1441
Rp1442
I01
NI0
I1
Ng12
(g16
S'\x10\xdb\x84\x8e\x92EG?'
p1443
tp1444
Rp1445
(dp1446
g879
g12
(g16
S'\xdeQ\x1fr,\xc6\xdf?'
p1447
tp1448
Rp1449
sg883
g12
(g16
S'\xe0\xe6\xd4\xdc-\x8e\xd4?'
p1450
tp1451
Rp1452
sg871
g12
(g16
S'C\xafg|\x9a\xc9\xea\xbf'
p1453
tp1454
Rp1455
sg887
g12
(g16
S'-O\xa3\xa8\xf7\x10\xd9?'
p1456
tp1457
Rp1458
sg891
g12
(g16
S'\x1a\x0fj)\xf1\xbc\xc9\xbf'
p1459
tp1460
Rp1461
sg895
g12
(g16
S'M\x81\xd2\xe8\xaa\xa3\xe4\xbf'
p1462
tp1463
Rp1464
sg899
g12
(g16
S'\xde\xbaD\xee\xa2\xf9\xd0?'
p1465
tp1466
Rp1467
sF0.5
Ntp1468
bsS'pos99002'
p1469
g6
(g7
g8
Ntp1470
Rp1471
(S'pos99002'
p1472
I99002
I00
NF-inf
Finf
NI0
NI99002
Ntp1473
bsS'pos90134'
p1474
g6
(g7
g8
Ntp1475
Rp1476
(S'pos90134'
p1477
I90134
I00
NF-inf
Finf
NI0
NI90134
Ntp1478
bsS'width104373'
p1479
g6
(g7
g8
Ntp1480
Rp1481
(S'width104373'
p1482
g12
(g16
S'"\xe3\xcd\xff\xff\xff;@'
p1483
tp1484
Rp1485
I01
NI7
I28
NNNI14
Ntp1486
bsS'width105718'
p1487
g6
(g7
g8
Ntp1488
Rp1489
(S'width105718'
p1490
g12
(g16
S'\x8am\xf1\xff\xff\xff;@'
p1491
tp1492
Rp1493
I01
NI7
I28
Ng12
(g16
S'"\xb4\xc8\xf1Ed\xe5?'
p1494
tp1495
Rp1496
(dp1497
S'amp105718'
p1498
g12
(g16
S'\xf6\xf6K\x03<\xe2\xe6\xbf'
p1499
tp1500
Rp1501
sI14
Ntp1502
bsS'pos72263'
p1503
g6
(g7
g8
Ntp1504
Rp1505
(S'pos72263'
p1506
I72263
I00
NF-inf
Finf
NI0
NI72263
Ntp1507
bsS'pos90152'
p1508
g6
(g7
g8
Ntp1509
Rp1510
(S'pos90152'
p1511
I90152
I00
NF-inf
Finf
NI0
NI90152
Ntp1512
bsS'width104273'
p1513
g6
(g7
g8
Ntp1514
Rp1515
(S'width104273'
p1516
g12
(g16
S'\x00\x00\x00\x00\x00\x00<@'
p1517
tp1518
Rp1519
I01
NI7
I28
NNNI14
Ntp1520
bsS'amp67640'
p1521
g6
(g7
g8
Ntp1522
Rp1523
(S'amp67640'
p1524
g12
(g16
S'\xc0J\x08q \x95\x88?'
p1525
tp1526
Rp1527
I01
NI0
I1
NNNF0.5
Ntp1528
bsS'pos95343'
p1529
g6
(g7
g8
Ntp1530
Rp1531
(S'pos95343'
p1532
I95343
I00
NF-inf
Finf
NI0
NI95343
Ntp1533
bsS'width67766'
p1534
g6
(g7
g8
Ntp1535
Rp1536
(S'width67766'
p1537
g12
(g16
S'\x00\x00\x00\x00\x00\x00<@'
p1538
tp1539
Rp1540
I01
NI7
I28
NNNI14
Ntp1541
bsS'width79873'
p1542
g6
(g7
g8
Ntp1543
Rp1544
(g1034
g12
(g16
S'\xc3$\xfa\xff\xff\xff;@'
p1545
tp1546
Rp1547
I01
NI7
I28
Ng12
(g16
S'\x9eoI1{e\xff?'
p1548
tp1549
Rp1550
(dp1551
g1018
g12
(g16
S'\xab\x82\xa2\xdecDh?'
p1552
tp1553
Rp1554
sg1022
g12
(g16
S'\r\x14\x92\\\xa8x\xd7\xbf'
p1555
tp1556
Rp1557
sg1026
g12
(g16
S'\xa7#\x88\xcei\xba\xbd?'
p1558
tp1559
Rp1560
sg1010
g12
(g16
S'SJ\x14\x7fD\xb4\xe3\xbf'
p1561
tp1562
Rp1563
sg1030
g12
(g16
S'\x12\xe7\xe5r;6\xb8\xbf'
p1564
tp1565
Rp1566
sI14
Ntp1567
bsS'amp99002'
p1568
g6
(g7
g8
Ntp1569
Rp1570
(g74
g12
(g16
S'T\xd8g?\xd7}\xc9?'
p1571
tp1572
Rp1573
I01
NI0
I1
Ng12
(g16
S'\xdd\x02?\xf0YBp?'
p1574
tp1575
Rp1576
(dp1577
g58
g12
(g16
S'P\xc0\xed\x82\x10\xfe\xc3?'
p1578
tp1579
Rp1580
sg66
g12
(g16
S'\xdf\xb8\xdd\xe1\xcbw\xe3\xbf'
p1581
tp1582
Rp1583
sg70
g12
(g16
S'L6\x0bh\xee\x11\xb9\xbf'
p1584
tp1585
Rp1586
sF0.5
Ntp1587
bsS'width72545'
p1588
g6
(g7
g8
Ntp1589
Rp1590
(g484
g12
(g16
S'\xf8\xff\xff\xff\xff\xff;@'
p1591
tp1592
Rp1593
I01
NI7
I28
Ng12
(g16
S'\xbcM\x0f\xcb\x0e\x8c\xe9?'
p1594
tp1595
Rp1596
(dp1597
g472
g12
(g16
S'\xc3\x8b\x07<\xcd\xeb\xbc?'
p1598
tp1599
Rp1600
sg476
g12
(g16
S'\x17\x1f\xe1\\d\x80\xb2?'
p1601
tp1602
Rp1603
sg480
g12
(g16
S'\xe61c\xc8B\x08\xd3?'
p1604
tp1605
Rp1606
sg488
g12
(g16
S'\x8ac"\xd1$\x97\xe7\xbf'
p1607
tp1608
Rp1609
sg464
g12
(g16
S'\xc5\xfeU\x13\x9d\x1f\xc5?'
p1610
tp1611
Rp1612
sg492
g12
(g16
S'e\xcc\x0b\xe8C\xa8\xd0?'
p1613
tp1614
Rp1615
sg496
g12
(g16
S'*\x00\xe9\xe9\x87{\xe9\xbf'
p1616
tp1617
Rp1618
sI14
Ntp1619
bsS'width92341'
p1620
g6
(g7
g8
Ntp1621
Rp1622
(S'width92341'
p1623
g12
(g16
S'CR\xd5\xff\xff\xff;@'
p1624
tp1625
Rp1626
I01
NI7
I28
Ng12
(g16
S'~q\x1e\xd1n\xba\x00@'
p1627
tp1628
Rp1629
(dp1630
S'amp92341'
p1631
g12
(g16
S'Ut\xb9\x89T\xcc\xe6\xbf'
p1632
tp1633
Rp1634
sI14
Ntp1635
bsS'width79972'
p1636
g6
(g7
g8
Ntp1637
Rp1638
(g1026
g12
(g16
S'\xa3\xfd\xff\xff\xff\xff;@'
p1639
tp1640
Rp1641
I01
NI7
I28
Ng12
(g16
S'\x8e\xcd\xf6\x957\x95\xf9?'
p1642
tp1643
Rp1644
(dp1645
g1034
g12
(g16
S'D#\x88\xcei\xba\xbd?'
p1646
tp1647
Rp1648
sg1022
g12
(g16
S'\x1c\xa7X\xea$\xd1\xd6\xbf'
p1649
tp1650
Rp1651
sg1018
g12
(g16
S'\xa6/U\xe7\xean\xe3\xbf'
p1652
tp1653
Rp1654
sg1010
g12
(g16
S':\x1c\xd7\x15*\xeb\x7f?'
p1655
tp1656
Rp1657
sg1030
g12
(g16
S'\xeb\x9f\xc2=S\xf5\xb9\xbf'
p1658
tp1659
Rp1660
sI14
Ntp1661
bsS'pos93901'
p1662
g6
(g7
g8
Ntp1663
Rp1664
(S'pos93901'
p1665
I93901
I00
NF-inf
Finf
NI0
NI93901
Ntp1666
bsS'width93261'
p1667
g6
(g7
g8
Ntp1668
Rp1669
(g42
g12
(g16
S'\xfb\xff\xff\xff\xff\xff;@'
p1670
tp1671
Rp1672
I01
NI7
I28
Ng12
(g16
S'\x87o\xad\xf7\xdb\xdb\xe3?'
p1673
tp1674
Rp1675
(dp1676
g11
g12
(g16
S'\x9e\x96\xbe\xcei9\x90\xbf'
p1677
tp1678
Rp1679
sg26
g12
(g16
S'M\xb7Bd}b\xad\xbf'
p1680
tp1681
Rp1682
sg30
g12
(g16
S'\xdb[\x93R);\xe3?'
p1683
tp1684
Rp1685
sg34
g12
(g16
S'\xe6\xb3?\x1f*\xf0\xd5?'
p1686
tp1687
Rp1688
sg38
g12
(g16
S'\x9c\xc5\xa9\x1bU\x18\x92\xbf'
p1689
tp1690
Rp1691
sg46
g12
(g16
S')\xb0\xc5\x9f3\x83\x9c?'
p1692
tp1693
Rp1694
sg50
g12
(g16
S'g\x1d\x95\x85\x06;\xc3?'
p1695
tp1696
Rp1697
sI14
Ntp1698
bsS'amp89894'
p1699
g6
(g7
g8
Ntp1700
Rp1701
(g1176
g12
(g16
S'pA\xdc+K\x95\xab?'
p1702
tp1703
Rp1704
I01
NI0
I1
Ng12
(g16
S'\xf1DWo\x80\x13\\?'
p1705
tp1706
Rp1707
(dp1708
g1168
g12
(g16
S'\x88\xc9J\x05#\xcd\xd4?'
p1709
tp1710
Rp1711
sg1180
g12
(g16
S'n\xc9\\\xe0\xdb\xeb\xbe?'
p1712
tp1713
Rp1714
sg1184
g12
(g16
S'\x92\xd4l\xf9\xe5\xe0\xe1\xbf'
p1715
tp1716
Rp1717
sF0.5
Ntp1718
bsS'pos104945'
p1719
g6
(g7
g8
Ntp1720
Rp1721
(S'pos104945'
p1722
I104945
I00
NF-inf
Finf
NI0
NI104945
Ntp1723
bsS'width93610'
p1724
g6
(g7
g8
Ntp1725
Rp1726
(S'width93610'
p1727
g12
(g16
S',\xcf\xfd\xff\xff\xff;@'
p1728
tp1729
Rp1730
I01
NI7
I28
Ng12
(g16
S',\xe3\xfe,\xa4\xe3\xe3?'
p1731
tp1732
Rp1733
(dp1734
S'amp93659'
p1735
g12
(g16
S'z\xe6\xcd\xedJ\xbb\xb3?'
p1736
tp1737
Rp1738
sS'width93659'
p1739
g12
(g16
S'\x1f5\x8fw\x1c\x8a\xd6\xbf'
p1740
tp1741
Rp1742
sS'amp93610'
p1743
g12
(g16
S'e\x95\xc7\xe0\xf0\xd7\xe3?'
p1744
tp1745
Rp1746
sI14
Ntp1747
bsS'pos104310'
p1748
g6
(g7
g8
Ntp1749
Rp1750
(S'pos104310'
p1751
I104310
I00
NF-inf
Finf
NNNI104310
Ntp1752
bsS'width99290'
p1753
g6
(g7
g8
Ntp1754
Rp1755
(S'width99290'
p1756
g12
(g16
S'\xbdF\xfe\xff\xff\xff;@'
p1757
tp1758
Rp1759
I01
NI7
I28
Ng12
(g16
S'\x02\xbe^e;x\xc1?'
p1760
tp1761
Rp1762
(dp1763
S'amp99290'
p1764
g12
(g16
S'\x07\xccD\xb4\x91\x02\xe4?'
p1765
tp1766
Rp1767
sS'amp99340'
p1768
g12
(g16
S')<\x85\xc2\x88i\xb1?'
p1769
tp1770
Rp1771
sS'width99340'
p1772
g12
(g16
S'I\xc1\xd2\xcdjq\xd6?'
p1773
tp1774
Rp1775
sI14
Ntp1776
bsS'width72492'
p1777
g6
(g7
g8
Ntp1778
Rp1779
(g472
g12
(g16
S'.\xa3]\xc0\xff\xff;@'
p1780
tp1781
Rp1782
I01
NI7
I28
Ng12
(g16
S'\xd0V\xd9m|h\x10@'
p1783
tp1784
Rp1785
(dp1786
g476
g12
(g16
S'\x19R\xe2<\xd9\xf0\xa8?'
p1787
tp1788
Rp1789
sg480
g12
(g16
S'\xe1\x9c\x89WkR\xd1?'
p1790
tp1791
Rp1792
sg484
g12
(g16
S'k\x8c\x07<\xcd\xeb\xbc?'
p1793
tp1794
Rp1795
sg488
g12
(g16
S'`+\xe0\x00X\xf2\xda\xbf'
p1796
tp1797
Rp1798
sg464
g12
(g16
S'\xd2\x1e9@\xc9\xf3\xca\xbf'
p1799
tp1800
Rp1801
sg492
g12
(g16
S'\x84\x88\xca\xb4#i\xc9?'
p1802
tp1803
Rp1804
sg496
g12
(g16
S'5g\xa9\xc9z\xeb\xbe\xbf'
p1805
tp1806
Rp1807
sI14
Ntp1808
bsS'width92569'
p1809
g6
(g7
g8
Ntp1810
Rp1811
(S'width92569'
p1812
g12
(g16
S'\xea2a\xff\xff\xff;@'
p1813
tp1814
Rp1815
I01
NI7
I28
Ng12
(g16
S'c\\\x91A\xc2\x18\x01@'
p1816
tp1817
Rp1818
(dp1819
S'amp92569'
p1820
g12
(g16
S'0\x1e\x0e\xae\x93\xde\xe6\xbf'
p1821
tp1822
Rp1823
sI14
Ntp1824
bsS'pos71876'
p1825
g6
(g7
g8
Ntp1826
Rp1827
(S'pos71876'
p1828
I71876
I00
NF-inf
Finf
NI0
NI71876
Ntp1829
bsS'amp104241'
p1830
g6
(g7
g8
Ntp1831
Rp1832
(S'amp104241'
p1833
g12
(g16
S"\x80t\x04\xa0'\xa1u?"
p1834
tp1835
Rp1836
I01
NI0
I1
NNNF0.5
Ntp1837
bsS'pos67351'
p1838
g6
(g7
g8
Ntp1839
Rp1840
(S'pos67351'
p1841
I67351
I00
NF-inf
Finf
NI0
NI67351
Ntp1842
bsS'amp92341'
p1843
g6
(g7
g8
Ntp1844
Rp1845
(g1631
g12
(g16
S'\xe0\x92\xa3\x84\xedQ\xa0?'
p1846
tp1847
Rp1848
I01
NI0
I1
Ng12
(g16
S'\x19d\x97\xad}\xbfW?'
p1849
tp1850
Rp1851
(dp1852
g1623
g12
(g16
S'Ut\xb9\x89T\xcc\xe6\xbf'
p1853
tp1854
Rp1855
sF0.5
Ntp1856
bsS'pos67520'
p1857
g6
(g7
g8
Ntp1858
Rp1859
(S'pos67520'
p1860
I67520
I00
NF-inf
Finf
NI0
NI67520
Ntp1861
bsS'width104473'
p1862
g6
(g7
g8
Ntp1863
Rp1864
(S'width104473'
p1865
g12
(g16
S'\xa7\x9c\xe3\xef\xcf\xff;@'
p1866
tp1867
Rp1868
I01
NI7
I28
NNNI14
Ntp1869
bsS'width104967'
p1870
g6
(g7
g8
Ntp1871
Rp1872
(S'width104967'
p1873
g12
(g16
S'\xc8\xc7\x95\xf3\xff\xff;@'
p1874
tp1875
Rp1876
I01
NI7
I28
Ng12
(g16
S'\x8b1)\x14T\xaa\x1d@'
p1877
tp1878
Rp1879
(dp1880
S'amp104945'
p1881
g12
(g16
S'\xcd\x9c\xac\xbb\x87D\xe2\xbf'
p1882
tp1883
Rp1884
sS'width104945'
p1885
g12
(g16
S'0\xe4\xefIT\xae\xc1\xbf'
p1886
tp1887
Rp1888
sS'amp104967'
p1889
g12
(g16
S'J\x192\xda\x1b\x1f\xd3\xbf'
p1890
tp1891
Rp1892
sI14
Ntp1893
bsS'amp86970'
p1894
g6
(g7
g8
Ntp1895
Rp1896
(g659
g12
(g16
S'\xf0\x82\xe0\xbc\x83\xa9\xb1?'
p1897
tp1898
Rp1899
I01
NI0
I1
Ng12
(g16
S'6\xa5N\x12RsI?'
p1900
tp1901
Rp1902
(dp1903
g651
g12
(g16
S'2\x82j\x15\xdb\xea\xe6\xbf'
p1904
tp1905
Rp1906
sF0.5
Ntp1907
bsS'pos104547'
p1908
g6
(g7
g8
Ntp1909
Rp1910
(S'pos104547'
p1911
I104547
I00
NF-inf
Finf
NNNI104547
Ntp1912
bsS'width90270'
p1913
g6
(g7
g8
Ntp1914
Rp1915
(g125
g12
(g16
S'\xb3\xf8\xb5\xf3\xff\xff;@'
p1916
tp1917
Rp1918
I01
NI7
I28
Ng12
(g16
S'HW\x14\x08\xccE$@'
p1919
tp1920
Rp1921
(dp1922
g105
g12
(g16
S'"O\xf0*$5\xb2\xbf'
p1923
tp1924
Rp1925
sg109
g12
(g16
S'\r\xbe}\xd8\xe3\xa5\xc3\xbf'
p1926
tp1927
Rp1928
sg113
g12
(g16
S'\x92\xb9e\xa2\xe0\xaa\xc0?'
p1929
tp1930
Rp1931
sg117
g12
(g16
S'P\xaa G\x0e,\xa9\xbf'
p1932
tp1933
Rp1934
sg121
g12
(g16
S'\x17Y\xff\x00\x15\x0c\x9f\xbf'
p1935
tp1936
Rp1937
sg97
g12
(g16
S'|\xc4c\xcb\x0c\xec\x84\xbf'
p1938
tp1939
Rp1940
sg129
g12
(g16
S'\x8c\xa8\xd4\xd9\xe0\xd5\xa0\xbf'
p1941
tp1942
Rp1943
sI14
Ntp1944
bsS'width72042'
p1945
g6
(g7
g8
Ntp1946
Rp1947
(g976
g12
(g16
S'\xb2\xbb\xcd\xfb\xff\xff;@'
p1948
tp1949
Rp1950
I01
NI7
I28
Ng12
(g16
S'M>A\xf4N[\xfd?'
p1951
tp1952
Rp1953
(dp1954
g960
g12
(g16
S'I\x066IQm\xdc\xbf'
p1955
tp1956
Rp1957
sg964
g12
(g16
S'I\xb0\xa4\xe3\x9bL\xae?'
p1958
tp1959
Rp1960
sg968
g12
(g16
S'W.\xe1\xe2oR\xd4\xbf'
p1961
tp1962
Rp1963
sg952
g12
(g16
S'\xec$#\x8b\x0c\xe9\xd0?'
p1964
tp1965
Rp1966
sg972
g12
(g16
S'\xbd\xe3t\xd9I\xe9\xbd\xbf'
p1967
tp1968
Rp1969
sI14
Ntp1970
bsS'amp67705'
p1971
g6
(g7
g8
Ntp1972
Rp1973
(S'amp67705'
p1974
g12
(g16
S'\x80*\xe8\x82\x92\xdf\x87?'
p1975
tp1976
Rp1977
I01
NI0
I1
NNNF0.5
Ntp1978
bsS'amp67673'
p1979
g6
(g7
g8
Ntp1980
Rp1981
(S'amp67673'
p1982
g12
(g16
S'\xc0\xe0:\x1b!\x0c\x86?'
p1983
tp1984
Rp1985
I01
NI0
I1
NNNF0.5
Ntp1986
bsS'amp92432'
p1987
g6
(g7
g8
Ntp1988
Rp1989
(g1120
g12
(g16
S'\x90\x9f\xb1\xc6\xb1\xed\x9c?'
p1990
tp1991
Rp1992
I01
NI0
I1
Ng12
(g16
S'F\x04b\xd3\x94\xeeV?'
p1993
tp1994
Rp1995
(dp1996
g1112
g12
(g16
S'>\xba\xfe\x9a<\xe2\xe6?'
p1997
tp1998
Rp1999
sF0.5
Ntp2000
bsS'amp103788'
p2001
g6
(g7
g8
Ntp2002
Rp2003
(S'amp103788'
p2004
g12
(g16
S' \xcd?\\\x84+\x81?'
p2005
tp2006
Rp2007
I01
NI0
I1
Ng12
(g16
S'\n\xa9\x12\x8a\\\xb23?'
p2008
tp2009
Rp2010
(dp2011
S'width103788'
p2012
g12
(g16
S'\x14\xb2\x9b\xb0}\xe2\xe6?'
p2013
tp2014
Rp2015
sF0.5
Ntp2016
bsS'width80041'
p2017
g6
(g7
g8
Ntp2018
Rp2019
(g769
g12
(g16
S'\n\x97\xf2\xf3\xff\xff;@'
p2020
tp2021
Rp2022
I01
NI7
I28
Ng12
(g16
S'\x0f\xba\xda>\x96+\xfb?'
p2023
tp2024
Rp2025
(dp2026
g765
g12
(g16
S'b\xddC\xcb\xe0\x02\xaa\xbf'
p2027
tp2028
Rp2029
sg757
g12
(g16
S'\xfc\xb7\xa1\xc7\xf5W\xe4\xbf'
p2030
tp2031
Rp2032
sg773
g12
(g16
S'\x16\x12\xb1\xc8A6\xd6\xbf'
p2033
tp2034
Rp2035
sI14
Ntp2036
bsS'amp104945'
p2037
g6
(g7
g8
Ntp2038
Rp2039
(g1881
g12
(g16
S' \xd3\xfe~\xa3\x12\x96?'
p2040
tp2041
Rp2042
I01
NI0
I1
Ng12
(g16
S'\x17V\x9d\xd8<\xdde?'
p2043
tp2044
Rp2045
(dp2046
g1885
g12
(g16
S'B\x84\x9e\x02\xcc\x1e\xd3\xbf'
p2047
tp2048
Rp2049
sg1889
g12
(g16
S'\x91|\xeb\r\xee\xb6\xb4?'
p2050
tp2051
Rp2052
sg1873
g12
(g16
S'\xcd\x9c\xac\xbb\x87D\xe2\xbf'
p2053
tp2054
Rp2055
sF0.5
Ntp2056
bsS'amp67934'
p2057
g6
(g7
g8
Ntp2058
Rp2059
(g1229
g12
(g16
S'@\xb8\xfc\xd3\xe7\xe2\x88?'
p2060
tp2061
Rp2062
I01
NI0
I1
Ng12
(g16
S'1#\xa2I\xb4\xd8@?'
p2063
tp2064
Rp2065
(dp2066
g1221
g12
(g16
S'\xf6\x03e\xb0#\xe2\xe6?'
p2067
tp2068
Rp2069
sF0.5
Ntp2070
bsS'amp104491'
p2071
g6
(g7
g8
Ntp2072
Rp2073
(S'amp104491'
p2074
g12
(g16
S'\x80\xa8\r\xf2\xe0\xac\x86?'
p2075
tp2076
Rp2077
I01
NI0
I1
NNNF0.5
Ntp2078
bsS'pos90220'
p2079
g6
(g7
g8
Ntp2080
Rp2081
(S'pos90220'
p2082
I90220
I00
NF-inf
Finf
NI0
NI90220
Ntp2083
bsS'pos93542'
p2084
g6
(g7
g8
Ntp2085
Rp2086
(S'pos93542'
p2087
I93542
I00
NF-inf
Finf
NI0
NI93542
Ntp2088
bsS'amp67425'
p2089
g6
(g7
g8
Ntp2090
Rp2091
(g179
g12
(g16
S'\x80\xbfrP\xf7\xb7\x80?'
p2092
tp2093
Rp2094
I01
NI0
I1
Ng12
(g16
S'\xbb\xf4\xaeE\xe7\x8d#?'
p2095
tp2096
Rp2097
(dp2098
g163
g12
(g16
S"\x06'\xcdU\xc7o\xb8?"
p2099
tp2100
Rp2101
sg155
g12
(g16
S'1\x9b\x0e\xf3\x16T\xdb\xbf'
p2102
tp2103
Rp2104
sg175
g12
(g16
S'\xff\x97\x13\xa3\xc80\xdb\xbf'
p2105
tp2106
Rp2107
sg171
g12
(g16
S'\xa3\xad\xc1\xa0J\x91\xc7?'
p2108
tp2109
Rp2110
sg167
g12
(g16
S'\xb6\xf2|\xca\xb0-\xcc?'
p2111
tp2112
Rp2113
sF0.5
Ntp2114
bsS'amp105718'
p2115
g6
(g7
g8
Ntp2116
Rp2117
(g1498
g12
(g16
S'\xc0\xf4W\xb4C\xfcw?'
p2118
tp2119
Rp2120
I01
NI0
I1
Ng12
(g16
S'\x19:\x08\xd1\x04\x03\x17?'
p2121
tp2122
Rp2123
(dp2124
g1490
g12
(g16
S'\xf6\xf6K\x03<\xe2\xe6\xbf'
p2125
tp2126
Rp2127
sF0.5
Ntp2128
bsS'width67673'
p2129
g6
(g7
g8
Ntp2130
Rp2131
(S'width67673'
p2132
g12
(g16
S'\x00\x00\x00\x00\x00\x00<@'
p2133
tp2134
Rp2135
I01
NI7
I28
NNNI14
Ntp2136
bsS'width104741'
p2137
g6
(g7
g8
Ntp2138
Rp2139
(S'width104741'
p2140
g12
(g16
S'fH\xfc\xff\xff\xff;@'
p2141
tp2142
Rp2143
I01
NI7
I28
NNNI14
Ntp2144
bsS'pos93261'
p2145
g6
(g7
g8
Ntp2146
Rp2147
(S'pos93261'
p2148
I93261
I00
NF-inf
Finf
NI0
NI93261
Ntp2149
bsS'pos79972'
p2150
g6
(g7
g8
Ntp2151
Rp2152
(S'pos79972'
p2153
I79972
I00
NF-inf
Finf
NI0
NI79972
Ntp2154
bsS'width98729'
p2155
g6
(g7
g8
Ntp2156
Rp2157
(S'width98729'
p2158
g12
(g16
S'#\x90O\xfd\xf6\xff;@'
p2159
tp2160
Rp2161
I01
NI7
I28
NNNI14
Ntp2162
bsS'pos72545'
p2163
g6
(g7
g8
Ntp2164
Rp2165
(S'pos72545'
p2166
I72545
I00
NF-inf
Finf
NI0
NI72545
Ntp2167
bsS'width99207'
p2168
g6
(g7
g8
Ntp2169
Rp2170
(g203
g12
(g16
S'\xe7\xf6\xb3\xfe\xff\xff;@'
p2171
tp2172
Rp2173
I01
NI7
I28
Ng12
(g16
S'G\xe9\xd8\xb7\xbd\xc3\x11@'
p2174
tp2175
Rp2176
(dp2177
g195
g12
(g16
S'\x89\xdb;\xe8\xa5\xc1\xd4?'
p2178
tp2179
Rp2180
sg199
g12
(g16
S'\xba\xf7\x16J\x96\x11\xc2?'
p2181
tp2182
Rp2183
sg187
g12
(g16
S'\xa2(\xb0b+\xe4\xe1?'
p2184
tp2185
Rp2186
sI14
Ntp2187
bsS'pos72069'
p2188
g6
(g7
g8
Ntp2189
Rp2190
(S'pos72069'
p2191
I72069
I00
NF-inf
Finf
NI0
NI72069
Ntp2192
bsS'newaxis'
p2193
NsS'amp72237'
p2194
g6
(g7
g8
Ntp2195
Rp2196
(g249
g12
(g16
S'\xa0\x03\xcaM\x88\xea\x9e?'
p2197
tp2198
Rp2199
I01
NI0
I1
Ng12
(g16
S'\x1c\r\xe9\x07\x16Z\\?'
p2200
tp2201
Rp2202
(dp2203
g245
g12
(g16
S'\x9d\xd3\x8e\x1ff\xab\xb2\xbf'
p2204
tp2205
Rp2206
sg261
g12
(g16
S'\x1b2\xd5\x90\xb9\xb3\xe4?'
p2207
tp2208
Rp2209
sg253
g12
(g16
S'\xbe/\x01,\xd9p\xc5\xbf'
p2210
tp2211
Rp2212
sg257
g12
(g16
S'(\xff\x1f\xfe\xcf\xed\xe7\xbf'
p2213
tp2214
Rp2215
sg237
g12
(g16
S'?\xebe>\x10\x10\xac?'
p2216
tp2217
Rp2218
sF0.5
Ntp2219
bsS'width79803'
p2220
g6
(g7
g8
Ntp2221
Rp2222
(S'width79803'
p2223
g12
(g16
S'\x0f\xad\xce\xfe\xff\xff;@'
p2224
tp2225
Rp2226
I01
NI7
I28
Ng12
(g16
S'\x11\xd53\xbc\x9c\xb9\xf0?'
p2227
tp2228
Rp2229
(dp2230
S'amp79752'
p2231
g12
(g16
S'%\x86\x02\xd4"\x88\xae\xbf'
p2232
tp2233
Rp2234
sS'width79752'
p2235
g12
(g16
S'\x96I\x9e\x0b\xbbO\xd6\xbf'
p2236
tp2237
Rp2238
sS'amp79803'
p2239
g12
(g16
S'mc\xc42W+\xe4\xbf'
p2240
tp2241
Rp2242
sI14
Ntp2243
bsS'amp93610'
p2244
g6
(g7
g8
Ntp2245
Rp2246
(g1743
g12
(g16
S'0\xeb~\x1b\x82\xa7\x97?'
p2247
tp2248
Rp2249
I01
NI0
I1
Ng12
(g16
S'4\xb2\xb8\x01\x92\x11P?'
p2250
tp2251
Rp2252
(dp2253
g1735
g12
(g16
S'O\xe5\x05\x90g\x12\xc2?'
p2254
tp2255
Rp2256
sg1739
g12
(g16
S'\x9eM\xc9KL\xb7\xb3?'
p2257
tp2258
Rp2259
sg1727
g12
(g16
S'f\x95\xc7\xe0\xf0\xd7\xe3?'
p2260
tp2261
Rp2262
sF0.5
Ntp2263
bsS'pos79752'
p2264
g6
(g7
g8
Ntp2265
Rp2266
(S'pos79752'
p2267
I79752
I00
NF-inf
Finf
NI0
NI79752
Ntp2268
bsS'amp93731'
p2269
g6
(g7
g8
Ntp2270
Rp2271
(g452
g12
(g16
S'\x10\xc8"\xf7-s\x92?'
p2272
tp2273
Rp2274
I01
NI0
I1
Ng12
(g16
S'L=MB\xb90D?'
p2275
tp2276
Rp2277
(dp2278
g448
g12
(g16
S'7?\x86\x11\xf0\xdd\xae\xbf'
p2279
tp2280
Rp2281
sg440
g12
(g16
S'\xdbj\xe4\rF/\xe4\xbf'
p2282
tp2283
Rp2284
sg456
g12
(g16
S'\xd5\x13U_\x0b\xa7\xc0?'
p2285
tp2286
Rp2287
sF0.5
Ntp2288
bsS'width93373'
p2289
g6
(g7
g8
Ntp2290
Rp2291
(g50
g12
(g16
S'\xf6\xff\xff\xff\xff\xff;@'
p2292
tp2293
Rp2294
I01
NI7
I28
Ng12
(g16
S'\xc7\xc6>\xe2\x80N\xf4?'
p2295
tp2296
Rp2297
(dp2298
g11
g12
(g16
S'\x80y\xd7@#\xdc\x90?'
p2299
tp2300
Rp2301
sg26
g12
(g16
S'\xc9\xa8\x05\xa4\xbf4\xd3\xbf'
p2302
tp2303
Rp2304
sg30
g12
(g16
S'\xe4\x10\xf4\x03\xa2\xfc\xb4?'
p2305
tp2306
Rp2307
sg34
g12
(g16
S'\xc0\xee\x8c?Z\xa5\xd2?'
p2308
tp2309
Rp2310
sg38
g12
(g16
S'\xeb\x894\xb9\x85o\xdd?'
p2311
tp2312
Rp2313
sg46
g12
(g16
S'\xb2\xf3f\xb3+\xe4\x98?'
p2314
tp2315
Rp2316
sg42
g12
(g16
S'!\x1c\x95\x85\x06;\xc3?'
p2317
tp2318
Rp2319
sI14
Ntp2320
bsS'pos104692'
p2321
g6
(g7
g8
Ntp2322
Rp2323
(S'pos104692'
p2324
I104692
I00
NF-inf
Finf
NNNI104692
Ntp2325
bsS'pos72042'
p2326
g6
(g7
g8
Ntp2327
Rp2328
(S'pos72042'
p2329
I72042
I00
NF-inf
Finf
NI0
NI72042
Ntp2330
bsS'width89610'
p2331
g6
(g7
g8
Ntp2332
Rp2333
(g382
g12
(g16
S'{\xf9\xff\xff\xff\xff;@'
p2334
tp2335
Rp2336
I01
NI7
I28
Ng12
(g16
S'\xff\x01\xe5\xbb\xb6f\xf2?'
p2337
tp2338
Rp2339
(dp2340
g366
g12
(g16
S'\xc3\xdd\xf5\x88\tf\xd6\xbf'
p2341
tp2342
Rp2343
sg374
g12
(g16
S'\xfc5Mx\x9b\x88\xca\xbf'
p2344
tp2345
Rp2346
sg378
g12
(g16
S'\xe6$f\x01sK\xc8\xbf'
p2347
tp2348
Rp2349
sI14
Ntp2350
bsS'width103788'
p2351
g6
(g7
g8
Ntp2352
Rp2353
(g2012
g12
(g16
S'&6\xfc\xff\xff\xff;@'
p2354
tp2355
Rp2356
I01
NI7
I28
Ng12
(g16
S'\xae\x88\xe6}?\x8e\xd2?'
p2357
tp2358
Rp2359
(dp2360
g2004
g12
(g16
S'\x14\xb2\x9b\xb0}\xe2\xe6?'
p2361
tp2362
Rp2363
sI14
Ntp2364
bsS'amp98729'
p2365
g6
(g7
g8
Ntp2366
Rp2367
(S'amp98729'
p2368
g12
(g16
S'\x80\x80\x86\x19\x92\xeel?'
p2369
tp2370
Rp2371
I01
NI0
I1
NNNF0.5
Ntp2372
bsS'amp93542'
p2373
g6
(g7
g8
Ntp2374
Rp2375
(S'amp93542'
p2376
g12
(g16
S'\xf8X\x0f\x0f\x95\xeb\xa4?'
p2377
tp2378
Rp2379
I01
NI0
I1
Ng12
(g16
S'\x9e\xd83\x10[\xe1R?'
p2380
tp2381
Rp2382
(dp2383
S'amp93490'
p2384
g12
(g16
S'b\x0ez\xba\xd6B\xbf?'
p2385
tp2386
Rp2387
sS'width93542'
p2388
g12
(g16
S'\x9d\xb3\xe6>\x97a\xe4\xbf'
p2389
tp2390
Rp2391
sS'width93490'
p2392
g12
(g16
S'\x9f\xf95\xff\xf1\x9d\xa9\xbf'
p2393
tp2394
Rp2395
sF0.5
Ntp2396
bsS'amp93659'
p2397
g6
(g7
g8
Ntp2398
Rp2399
(g1735
g12
(g16
S'p\xab\xfd\xd7\x88\x04\x9c?'
p2400
tp2401
Rp2402
I01
NI0
I1
Ng12
(g16
S'B\xcf\x82\xab=\x11P?'
p2403
tp2404
Rp2405
(dp2406
g1739
g12
(g16
S'\xb5\xc3\x8c#A\xd7\xe3?'
p2407
tp2408
Rp2409
sg1743
g12
(g16
S'W\xe5\x05\x90g\x12\xc2?'
p2410
tp2411
Rp2412
sg1727
g12
(g16
S'o\xe6\xcd\xedJ\xbb\xb3?'
p2413
tp2414
Rp2415
sF0.5
Ntp2416
bsS'pos104241'
p2417
g6
(g7
g8
Ntp2418
Rp2419
(S'pos104241'
p2420
I104241
I00
NF-inf
Finf
NNNI104241
Ntp2421
bsS'pos72519'
p2422
g6
(g7
g8
Ntp2423
Rp2424
(S'pos72519'
p2425
I72519
I00
NF-inf
Finf
NI0
NI72519
Ntp2426
bsS'amp86705'
p2427
g6
(g7
g8
Ntp2428
Rp2429
(g1050
g12
(g16
S'\xe0\x1b\xfd\xaa\x1a@\xad?'
p2430
tp2431
Rp2432
I01
NI0
I1
Ng12
(g16
S'\x92\x97\xc1\x02\xb3\x7fD?'
p2433
tp2434
Rp2435
(dp2436
g1042
g12
(g16
S'\x04_u\xaf\x10\xe2\xe6?'
p2437
tp2438
Rp2439
sF0.5
Ntp2440
bsS'little_endian'
p2441
I01
sS'amp72519'
p2442
g6
(g7
g8
Ntp2443
Rp2444
(g488
g12
(g16
S'pWo\x7f\xa6\xd5\x98?'
p2445
tp2446
Rp2447
I01
NI0
I1
Ng12
(g16
S'<\x84+\xb7\xdb2R?'
p2448
tp2449
Rp2450
(dp2451
g472
g12
(g16
S'I+\xe0\x00X\xf2\xda\xbf'
p2452
tp2453
Rp2454
sg476
g12
(g16
S'\xd0\x82^\x9337\x97\xbf'
p2455
tp2456
Rp2457
sg480
g12
(g16
S'\xc3\xde\xb7\x1fe!\xc2\xbf'
p2458
tp2459
Rp2460
sg484
g12
(g16
S'\x9dc"\xd1$\x97\xe7\xbf'
p2461
tp2462
Rp2463
sg464
g12
(g16
S'\x00\x90\r\x1a\xc6w\xb2\xbf'
p2464
tp2465
Rp2466
sg492
g12
(g16
S'n\x85\x89\xab\xec[\xd2\xbf'
p2467
tp2468
Rp2469
sg496
g12
(g16
S'\xbb\xa2D\xea\xc6\xdc\xe4?'
p2470
tp2471
Rp2472
sF0.5
Ntp2473
bsS'pos90114'
p2474
g6
(g7
g8
Ntp2475
Rp2476
(S'pos90114'
p2477
I90114
I00
NF-inf
Finf
NI0
NI90114
Ntp2478
bsS'width71908'
p2479
g6
(g7
g8
Ntp2480
Rp2481
(g1413
g12
(g16
S'd\x8a\xfc\xff\xff\xff;@'
p2482
tp2483
Rp2484
I01
NI7
I28
Ng12
(g16
S'\x14\xa6\x80t\x18\xe9\x04@'
p2485
tp2486
Rp2487
(dp2488
g1409
g12
(g16
S'\xa6\x9c\xb8#\x0e\xb6\xd7?'
p2489
tp2490
Rp2491
sg1417
g12
(g16
S'j-:\x05\xf5\x19\xd1?'
p2492
tp2493
Rp2494
sg1401
g12
(g16
S'\xcd|{\x7f\xf9\xc1\xdd?'
p2495
tp2496
Rp2497
sI14
Ntp2498
bsS'pos89610'
p2499
g6
(g7
g8
Ntp2500
Rp2501
(S'pos89610'
p2502
I89610
I00
NF-inf
Finf
NI0
NI89610
Ntp2503
bsS'amp93317'
p2504
g6
(g7
g8
Ntp2505
Rp2506
(g46
g12
(g16
S'\xa0\x0bK\x1a\xb4\x1c\x85?'
p2507
tp2508
Rp2509
I01
NI0
I1
Ng12
(g16
S'v\x19\xd1C\xe8\x81G?'
p2510
tp2511
Rp2512
(dp2513
g11
g12
(g16
S'>\xaa\x17~o\xb8\x94?'
p2514
tp2515
Rp2516
sg26
g12
(g16
S'\xb6\xce\x14$`\xcd!?'
p2517
tp2518
Rp2519
sg30
g12
(g16
S'1\xbb\x8dtw\xfd\xb7?'
p2520
tp2521
Rp2522
sg34
g12
(g16
S'\x97\x7f\x7f\xc6\xe1g\xe3\xbf'
p2523
tp2524
Rp2525
sg38
g12
(g16
S'\xa7Er\x9e\xe1Q\xb7?'
p2526
tp2527
Rp2528
sg42
g12
(g16
S'r\xa7\xc5\x9f3\x83\x9c?'
p2529
tp2530
Rp2531
sg50
g12
(g16
S'\x0f\xdcf\xb3+\xe4\x98?'
p2532
tp2533
Rp2534
sF0.5
Ntp2535
bsS'amp104473'
p2536
g6
(g7
g8
Ntp2537
Rp2538
(S'amp104473'
p2539
g12
(g16
S'\xc0\xb5\x81\x93hO{?'
p2540
tp2541
Rp2542
I01
NI0
I1
NNNF0.5
Ntp2543
bsS'width67351'
p2544
g6
(g7
g8
Ntp2545
Rp2546
(g171
g12
(g16
S'\x17T\x1d\x84\x16\x926@'
p2547
tp2548
Rp2549
I01
NI7
I28
Ng12
(g16
S'\x1f\n\xf6\x15\xf8\xb2\xf0?'
p2550
tp2551
Rp2552
(dp2553
g155
g12
(g16
S'E\x9c\xd1\x9a\xfb\x84\xb8?'
p2554
tp2555
Rp2556
sg175
g12
(g16
S'D$9S\x8a\xa8\xda\xbf'
p2557
tp2558
Rp2559
sg163
g12
(g16
S'gJ\xab\x872\xbf\xe1\xbf'
p2560
tp2561
Rp2562
sg167
g12
(g16
S'\xb7\xa8\xd6u\xeb\x8c\xba\xbf'
p2563
tp2564
Rp2565
sg179
g12
(g16
S'\xee\xa9\xc1\xa0J\x91\xc7?'
p2566
tp2567
Rp2568
sI14
Ntp2569
bsS'pos93149'
p2570
g6
(g7
g8
Ntp2571
Rp2572
(S'pos93149'
p2573
I93149
I00
NF-inf
Finf
NI0
NI93149
Ntp2574
bsS'width79752'
p2575
g6
(g7
g8
Ntp2576
Rp2577
(g2235
g12
(g16
S'M\xe7\\\xfe\xff\xff;@'
p2578
tp2579
Rp2580
I01
NI7
I28
Ng12
(g16
S'\x9f[IP\xe5\xa6\xf4?'
p2581
tp2582
Rp2583
(dp2584
g2231
g12
(g16
S'Y\xfd\x99D6+\xe4\xbf'
p2585
tp2586
Rp2587
sg2223
g12
(g16
S'\x9cI\x9e\x0b\xbbO\xd6\xbf'
p2588
tp2589
Rp2590
sg2239
g12
(g16
S'E\x18\x06d\x93\x8b\xae\xbf'
p2591
tp2592
Rp2593
sI14
Ntp2594
bsS'width104806'
p2595
g6
(g7
g8
Ntp2596
Rp2597
(S'width104806'
p2598
g12
(g16
S'\x8dD*\x84\x7f\xff;@'
p2599
tp2600
Rp2601
I01
NI7
I28
NNNI14
Ntp2602
bsS'width92207'
p2603
g6
(g7
g8
Ntp2604
Rp2605
(g556
g12
(g16
S'F\xd5&\xff\xff\xff;@'
p2606
tp2607
Rp2608
I01
NI7
I28
Ng12
(g16
S'\x02\xf4\xff\xa42\xe1\xfd?'
p2609
tp2610
Rp2611
(dp2612
g548
g12
(g16
S'\x1e^\x8b4,\xdd\xe6\xbf'
p2613
tp2614
Rp2615
sI14
Ntp2616
bsS'pos98882'
p2617
g6
(g7
g8
Ntp2618
Rp2619
(S'pos98882'
p2620
I98882
I00
NF-inf
Finf
NI0
NI98882
Ntp2621
bsS'width67705'
p2622
g6
(g7
g8
Ntp2623
Rp2624
(S'width67705'
p2625
g12
(g16
S'\x00\x00\x00\x00\x00\x00<@'
p2626
tp2627
Rp2628
I01
NI7
I28
NNNI14
Ntp2629
bsS'width104790'
p2630
g6
(g7
g8
Ntp2631
Rp2632
(S'width104790'
p2633
g12
(g16
S'p|[s\xaa\x00\x1c@'
p2634
tp2635
Rp2636
I01
NI7
I28
NNNI14
Ntp2637
bsS'amp67798'
p2638
g6
(g7
g8
Ntp2639
Rp2640
(S'amp67798'
p2641
g12
(g16
S'@\xd1Qp\xceX\x86?'
p2642
tp2643
Rp2644
I01
NI0
I1
NNNF0.5
Ntp2645
bsS'amp58152'
p2646
g6
(g7
g8
Ntp2647
Rp2648
(S'amp58152'
p2649
g12
(g16
S'\x00\t\xfd\x07\xd7\x82\x8f?'
p2650
tp2651
Rp2652
I01
NI0
I1
Ng12
(g16
S'+\xbc\xbe|\xf8\xf4;?'
p2653
tp2654
Rp2655
(dp2656
S'width58152'
p2657
g12
(g16
S'\xd9\xe8JY\xc1\xd0\xe6\xbf'
p2658
tp2659
Rp2660
sF0.5
Ntp2661
bsS'amp79752'
p2662
g6
(g7
g8
Ntp2663
Rp2664
(g2231
g12
(g16
S'\xc0N\xe8\xd8\x08\x92\x8b?'
p2665
tp2666
Rp2667
I01
NI0
I1
Ng12
(g16
S'`\x926\xb2\xaa\xaa7?'
p2668
tp2669
Rp2670
(dp2671
g2235
g12
(g16
S'Z\xfd\x99D6+\xe4\xbf'
p2672
tp2673
Rp2674
sg2223
g12
(g16
S'9\x86\x02\xd4"\x88\xae\xbf'
p2675
tp2676
Rp2677
sg2239
g12
(g16
S'5\xba\x98LWY\xc0?'
p2678
tp2679
Rp2680
sF0.5
Ntp2681
bsS'width104310'
p2682
g6
(g7
g8
Ntp2683
Rp2684
(S'width104310'
p2685
g12
(g16
S'uH\xd9\x99\xb7W\x1c@'
p2686
tp2687
Rp2688
I01
NI7
I28
NNNI14
Ntp2689
bsS'amp93490'
p2690
g6
(g7
g8
Ntp2691
Rp2692
(g2384
g12
(g16
S'0\xfbB\x1d\xe1 \x9c?'
p2693
tp2694
Rp2695
I01
NI0
I1
Ng12
(g16
S'\xc9{\x0cx\xed\xd5R?'
p2696
tp2697
Rp2698
(dp2699
g2392
g12
(g16
S'\x8c\x82/C9I\xe4\xbf'
p2700
tp2701
Rp2702
sg2388
g12
(g16
S'\xae+\nLsD\xab\xbf'
p2703
tp2704
Rp2705
sg2376
g12
(g16
S'y\x0ez\xba\xd6B\xbf?'
p2706
tp2707
Rp2708
sF0.5
Ntp2709
bsS'width72566'
p2710
g6
(g7
g8
Ntp2711
Rp2712
(g476
g12
(g16
S'0%\xe4\xff\xff\xff;@'
p2713
tp2714
Rp2715
I01
NI7
I28
Ng12
(g16
S'\x92\x83\xc8\xdf\xaa\xf1\xda?'
p2716
tp2717
Rp2718
(dp2719
g472
g12
(g16
S'\x19R\xe2<\xd9\xf0\xa8?'
p2720
tp2721
Rp2722
sg480
g12
(g16
S'D\xb9\xe1\xa5\xb4W\x90\xbf'
p2723
tp2724
Rp2725
sg484
g12
(g16
S't\x1f\xe1\\d\x80\xb2?'
p2726
tp2727
Rp2728
sg488
g12
(g16
S'\xae\x83^\x9337\x97\xbf'
p2729
tp2730
Rp2731
sg464
g12
(g16
S'Z\xc1^Q\xd0\x7f\x8d?'
p2732
tp2733
Rp2734
sg492
g12
(g16
S'\x9cb@Umd\xda?'
p2735
tp2736
Rp2737
sg496
g12
(g16
S'\x1b\nQ\x17\xd0\x7f\xca?'
p2738
tp2739
Rp2740
sI14
Ntp2741
bsS'pos93373'
p2742
g6
(g7
g8
Ntp2743
Rp2744
(S'pos93373'
p2745
I93373
I00
NF-inf
Finf
NI0
NI93373
Ntp2746
bsS'pos98955'
p2747
g6
(g7
g8
Ntp2748
Rp2749
(S'pos98955'
p2750
I98955
I00
NF-inf
Finf
NI0
NI98955
Ntp2751
bsS'amp90114'
p2752
g6
(g7
g8
Ntp2753
Rp2754
(g350
g12
(g16
S' \x8bA1{\xaf\x81?'
p2755
tp2756
Rp2757
I01
NI0
I1
Ng12
(g16
S'S7#ux\x92p?'
p2758
tp2759
Rp2760
(dp2761
g334
g12
(g16
S'*:\xe2\xbc\xb0u\xe7?'
p2762
tp2763
Rp2764
sg326
g12
(g16
S'\xeb=\x1d\x037T\xea?'
p2765
tp2766
Rp2767
sg338
g12
(g16
S'\x85\x1doa\xc8\xec\xb9\xbf'
p2768
tp2769
Rp2770
sg342
g12
(g16
S'5^\xbb\xf8\x05\x1d\xa2?'
p2771
tp2772
Rp2773
sg346
g12
(g16
S'\\+\x1e\xc3\rJ\xe8\xbf'
p2774
tp2775
Rp2776
sg354
g12
(g16
S'B&\xbd\x8e\xc5\xd0\xeb\xbf'
p2777
tp2778
Rp2779
sg358
g12
(g16
S'\xba\xb4\x1e\x91\xdd\x01\xeb\xbf'
p2780
tp2781
Rp2782
sF0.5
Ntp2783
bsS'pos89894'
p2784
g6
(g7
g8
Ntp2785
Rp2786
(S'pos89894'
p2787
I89894
I00
NF-inf
Finf
NI0
NI89894
Ntp2788
bsS'pos92569'
p2789
g6
(g7
g8
Ntp2790
Rp2791
(S'pos92569'
p2792
I92569
I00
NF-inf
Finf
NI0
NI92569
Ntp2793
bsS'width95462'
p2794
g6
(g7
g8
Ntp2795
Rp2796
(g701
g12
(g16
S';T\xf7\xff\xff\xff;@'
p2797
tp2798
Rp2799
I01
NI7
I28
Ng12
(g16
S'\x16\x17\x96\xa8\x94\x96\xe3?'
p2800
tp2801
Rp2802
(dp2803
g693
g12
(g16
S'\x8ea\xdf\xc7W\xe2\xe6?'
p2804
tp2805
Rp2806
sI14
Ntp2807
bsS'pos67766'
p2808
g6
(g7
g8
Ntp2809
Rp2810
(S'pos67766'
p2811
I67766
I00
NF-inf
Finf
NNNI67766
Ntp2812
bsS'amp104310'
p2813
g6
(g7
g8
Ntp2814
Rp2815
(S'amp104310'
p2816
g12
(g16
S'\x00\xfc \xcc\xa2\xef=?'
p2817
tp2818
Rp2819
I01
NI0
I1
NNNF0.5
Ntp2820
bsS'width93901'
p2821
g6
(g7
g8
Ntp2822
Rp2823
(S'width93901'
p2824
g12
(g16
S'=\x91\xd8\xfd\xff\xff;@'
p2825
tp2826
Rp2827
I01
NI7
I28
Ng12
(g16
S'\x8b\xef[\x0b\x85\x90\x05@'
p2828
tp2829
Rp2830
(dp2831
S'amp93853'
p2832
g12
(g16
S'`\x8db\xab14\xb6\xbf'
p2833
tp2834
Rp2835
sS'amp93901'
p2836
g12
(g16
S'O\xec\xe5\xe2\x7f\xa8\xe3\xbf'
p2837
tp2838
Rp2839
sS'width93853'
p2840
g12
(g16
S'g\xe2\xbb\xbe\x1b\xa0\xd6\xbf'
p2841
tp2842
Rp2843
sI14
Ntp2844
bsS'pos103788'
p2845
g6
(g7
g8
Ntp2846
Rp2847
(S'pos103788'
p2848
I103788
I00
NF-inf
Finf
NI0
NI103788
Ntp2849
bsS'pos98704'
p2850
g6
(g7
g8
Ntp2851
Rp2852
(S'pos98704'
p2853
I98704
I00
NF-inf
Finf
NNNI98704
Ntp2854
bsS'pi'
p2855
F3.141592653589793
sS'width104491'
p2856
g6
(g7
g8
Ntp2857
Rp2858
(S'width104491'
p2859
g12
(g16
S'\x00\x00\x00\x00\x00\x00<@'
p2860
tp2861
Rp2862
I01
NI7
I28
NNNI14
Ntp2863
bsS'pos99290'
p2864
g6
(g7
g8
Ntp2865
Rp2866
(S'pos99290'
p2867
I99290
I00
NF-inf
Finf
NI0
NI99290
Ntp2868
bsS'amp104373'
p2869
g6
(g7
g8
Ntp2870
Rp2871
(S'amp104373'
p2872
g12
(g16
S'`u\xaf\x82\x91\xde\x8a?'
p2873
tp2874
Rp2875
I01
NI0
I1
NNNF0.5
Ntp2876
bsS'pos67705'
p2877
g6
(g7
g8
Ntp2878
Rp2879
(S'pos67705'
p2880
I67705
I00
NF-inf
Finf
NNNI67705
Ntp2881
bsS'amp67351'
p2882
g6
(g7
g8
Ntp2883
Rp2884
(g163
g12
(g16
S'\x00\xcb\xfe9{\x18w?'
p2885
tp2886
Rp2887
I01
NI0
I1
Ng12
(g16
S'\xf0\xef\xe2\x9dq\xc6#?'
p2888
tp2889
Rp2890
(dp2891
g155
g12
(g16
S'}^\x1a\x9cy\xec\x80?'
p2892
tp2893
Rp2894
sg175
g12
(g16
S'm+\xa4\x08\x95\xf0\xc2\xbf'
p2895
tp2896
Rp2897
sg171
g12
(g16
S'+J\xab\x872\xbf\xe1\xbf'
p2898
tp2899
Rp2900
sg167
g12
(g16
S'\xbb!/\x0ed\x99\xc1?'
p2901
tp2902
Rp2903
sg179
g12
(g16
S'\xee-\xcdU\xc7o\xb8?'
p2904
tp2905
Rp2906
sF0.5
Ntp2907
bsS'width67798'
p2908
g6
(g7
g8
Ntp2909
Rp2910
(S'width67798'
p2911
g12
(g16
S'\x11s\xd3\xfe\xff\xff;@'
p2912
tp2913
Rp2914
I01
NI7
I28
NNNI14
Ntp2915
bsS'pos93731'
p2916
g6
(g7
g8
Ntp2917
Rp2918
(S'pos93731'
p2919
I93731
I00
NF-inf
Finf
NI0
NI93731
Ntp2920
bsS'amp90270'
p2921
g6
(g7
g8
Ntp2922
Rp2923
(g117
g12
(g16
S'\x00\xc7\xf79\x07yw?'
p2924
tp2925
Rp2926
I01
NI0
I1
Ng12
(g16
S'^keVR\x0fr?'
p2927
tp2928
Rp2929
(dp2930
g105
g12
(g16
S'6 z\xcb3\xad\xec?'
p2931
tp2932
Rp2933
sg109
g12
(g16
S'\x0b>L\xfc\xff\xbb\xe5?'
p2934
tp2935
Rp2936
sg113
g12
(g16
S'\x97\x98!\x8dO\xee\xe5\xbf'
p2937
tp2938
Rp2939
sg121
g12
(g16
S'\x06\xb82\xc6\x97\xaa\xeb\xbf'
p2940
tp2941
Rp2942
sg97
g12
(g16
S'"\x03\xd7\xe5\xa6r\xbc?'
p2943
tp2944
Rp2945
sg125
g12
(g16
S'\xa3\xa4 G\x0e,\xa9\xbf'
p2946
tp2947
Rp2948
sg129
g12
(g16
S'\xc56\x92m\x16\xd5\xee\xbf'
p2949
tp2950
Rp2951
sF0.5
Ntp2952
bsS'amp98704'
p2953
g6
(g7
g8
Ntp2954
Rp2955
(S'amp98704'
p2956
g12
(g16
S'\x80#\xa8\x0e\x1c1x?'
p2957
tp2958
Rp2959
I01
NI0
I1
NNNF0.5
Ntp2960
bsS'width93659'
p2961
g6
(g7
g8
Ntp2962
Rp2963
(g1739
g12
(g16
S'\xb5\x1a\xd9\xff\xff\xff;@'
p2964
tp2965
Rp2966
I01
NI7
I28
Ng12
(g16
S'\xc1^\xd0h\xd6\x0c\xe2?'
p2967
tp2968
Rp2969
(dp2970
g1735
g12
(g16
S'\xb5\xc3\x8c#A\xd7\xe3?'
p2971
tp2972
Rp2973
sg1743
g12
(g16
S'\xb2M\xc9KL\xb7\xb3?'
p2974
tp2975
Rp2976
sg1727
g12
(g16
S'"5\x8fw\x1c\x8a\xd6\xbf'
p2977
tp2978
Rp2979
sI14
Ntp2980
bsS'amp93261'
p2981
g6
(g7
g8
Ntp2982
Rp2983
(g30
g12
(g16
S'\x90\xcbL\x87\xc4\xf3\x99?'
p2984
tp2985
Rp2986
I01
NI0
I1
Ng12
(g16
S'\xf3\x1a\xc4h\x8ayF?'
p2987
tp2988
Rp2989
(dp2990
g11
g12
(g16
S'\x86_\xad\xf4\xdd\xeb\x0f\xbf'
p2991
tp2992
Rp2993
sg26
g12
(g16
S'\x94\xe2|%\xa6T\x97\xbf'
p2994
tp2995
Rp2996
sg42
g12
(g16
S'\x9d[\x93R);\xe3?'
p2997
tp2998
Rp2999
sg34
g12
(g16
S'Z?\xfc\xc2\xdcp\xa2\xbf'
p3000
tp3001
Rp3002
sg38
g12
(g16
S'\x99~TE\x86\xf4\xa9?'
p3003
tp3004
Rp3005
sg46
g12
(g16
S'\xb4\xbc\x8dtw\xfd\xb7?'
p3006
tp3007
Rp3008
sg50
g12
(g16
S'\x82\x0b\xf4\x03\xa2\xfc\xb4?'
p3009
tp3010
Rp3011
sF0.5
Ntp3012
bsS'pos104273'
p3013
g6
(g7
g8
Ntp3014
Rp3015
(S'pos104273'
p3016
I104273
I00
NF-inf
Finf
NNNI104273
Ntp3017
bsS'amp93782'
p3018
g6
(g7
g8
Ntp3019
Rp3020
(g456
g12
(g16
S'\xc0\x7f\xd0\x85\x9f\xe4\x90?'
p3021
tp3022
Rp3023
I01
NI0
I1
Ng12
(g16
S'iy\x99\xe8\x030D?'
p3024
tp3025
Rp3026
(dp3027
g448
g12
(g16
S'P\xe1[\xfc\xdc"\xe4\xbf'
p3028
tp3029
Rp3030
sg452
g12
(g16
S'\xdc\x13U_\x0b\xa7\xc0?'
p3031
tp3032
Rp3033
sg440
g12
(g16
S'\xba\x8f\x0c\xff\xfcF\xb0\xbf'
p3034
tp3035
Rp3036
sF0.5
Ntp3037
bsS'amp67562'
p3038
g6
(g7
g8
Ntp3039
Rp3040
(g891
g12
(g16
S' \xce<x\xf7/\x86?'
p3041
tp3042
Rp3043
I01
NI0
I1
Ng12
(g16
S'\x90\x06\xc9MW\x108?'
p3044
tp3045
Rp3046
(dp3047
g883
g12
(g16
S'\xa8\\t6\xaa=\xae?'
p3048
tp3049
Rp3050
sg871
g12
(g16
S'\x1f;p\t&\x9b\xd9?'
p3051
tp3052
Rp3053
sg887
g12
(g16
S')S\x00\xb3m\xc2\xc8?'
p3054
tp3055
Rp3056
sg879
g12
(g16
S'\xfc\xd2\xf4\x86\x00\xdb\xe1\xbf'
p3057
tp3058
Rp3059
sg895
g12
(g16
S't\xcd\x94m\x8f\xc0\xa1?'
p3060
tp3061
Rp3062
sg899
g12
(g16
S'\xb6L\x83\xdc\xa9\xc8\xbf?'
p3063
tp3064
Rp3065
sg903
g12
(g16
S'l\x0fj)\xf1\xbc\xc9\xbf'
p3066
tp3067
Rp3068
sF0.5
Ntp3069
bsS'pos104967'
p3070
g6
(g7
g8
Ntp3071
Rp3072
(S'pos104967'
p3073
I104967
I00
NF-inf
Finf
NI0
NI104967
Ntp3074
bsS'pos67425'
p3075
g6
(g7
g8
Ntp3076
Rp3077
(S'pos67425'
p3078
I67425
I00
NF-inf
Finf
NI0
NI67425
Ntp3079
bsS'pos95106'
p3080
g6
(g7
g8
Ntp3081
Rp3082
(S'pos95106'
p3083
I95106
I00
NF-inf
Finf
NI0
NI95106
Ntp3084
bsS'pos93659'
p3085
g6
(g7
g8
Ntp3086
Rp3087
(S'pos93659'
p3088
I93659
I00
NF-inf
Finf
NI0
NI93659
Ntp3089
bsS'pos99230'
p3090
g6
(g7
g8
Ntp3091
Rp3092
(S'pos99230'
p3093
I99230
I00
NF-inf
Finf
NI0
NI99230
Ntp3094
bsS'pos95581'
p3095
g6
(g7
g8
Ntp3096
Rp3097
(S'pos95581'
p3098
I95581
I00
NF-inf
Finf
NI0
NI95581
Ntp3099
bsS'width104531'
p3100
g6
(g7
g8
Ntp3101
Rp3102
(S'width104531'
p3103
g12
(g16
S'\x00\x00\x00\x00\x00\x00<@'
p3104
tp3105
Rp3106
I01
NI7
I28
NNNI14
Ntp3107
bsS'amp72566'
p3108
g6
(g7
g8
Ntp3109
Rp3110
(g496
g12
(g16
S' C\x9e@\xf9\x10\x8d?'
p3111
tp3112
Rp3113
I01
NI0
I1
Ng12
(g16
S'O\xf1\xee\xeeo\tR?'
p3114
tp3115
Rp3116
(dp3117
g472
g12
(g16
S'\xb6f\xa9\xc9z\xeb\xbe\xbf'
p3118
tp3119
Rp3120
sg476
g12
(g16
S'\x89\nQ\x17\xd0\x7f\xca?'
p3121
tp3122
Rp3123
sg480
g12
(g16
S'\x13\xb3lE\xefu\xcf\xbf'
p3124
tp3125
Rp3126
sg484
g12
(g16
S'&\x00\xe9\xe9\x87{\xe9\xbf'
p3127
tp3128
Rp3129
sg488
g12
(g16
S'\xae\xa2D\xea\xc6\xdc\xe4?'
p3130
tp3131
Rp3132
sg464
g12
(g16
S"\xd7\x1e'\xdb\xcdK\xc0\xbf"
p3133
tp3134
Rp3135
sg492
g12
(g16
S'hAoH\xd5t\xd3\xbf'
p3136
tp3137
Rp3138
sF0.5
Ntp3139
bsS'amp104967'
p3140
g6
(g7
g8
Ntp3141
Rp3142
(g1889
g12
(g16
S'p\xc8^\x8d\xcf\xea\x90?'
p3143
tp3144
Rp3145
I01
NI0
I1
Ng12
(g16
S'\x14\xb3b\xec\x1c\xdde?'
p3146
tp3147
Rp3148
(dp3149
g1881
g12
(g16
S'\x95|\xeb\r\xee\xb6\xb4?'
p3150
tp3151
Rp3152
sg1885
g12
(g16
S'\xe8\x05\x7f\x87GD\xe2\xbf'
p3153
tp3154
Rp3155
sg1873
g12
(g16
S'O\x192\xda\x1b\x1f\xd3\xbf'
p3156
tp3157
Rp3158
sF0.5
Ntp3159
bsS'amp93901'
p3160
g6
(g7
g8
Ntp3161
Rp3162
(g2836
g12
(g16
S'\x80_\xa1c?7{?'
p3163
tp3164
Rp3165
I01
NI0
I1
Ng12
(g16
S'\x83\x8b\xc3\t\xf4\x138?'
p3166
tp3167
Rp3168
(dp3169
g2832
g12
(g16
S'\xbd\xc1\xb2\xc0d\xfb\xc2?'
p3170
tp3171
Rp3172
sg2840
g12
(g16
S'\xb5\x15Y8\xc0;\xb6\xbf'
p3173
tp3174
Rp3175
sg2824
g12
(g16
S'J\xec\xe5\xe2\x7f\xa8\xe3\xbf'
p3176
tp3177
Rp3178
sF0.5
Ntp3179
bsS'width104241'
p3180
g6
(g7
g8
Ntp3181
Rp3182
(S'width104241'
p3183
g12
(g16
S'\x00\x00\x00\x00\x00\x00<@'
p3184
tp3185
Rp3186
I01
NI7
I28
NNNI14
Ntp3187
bsS'amp95225'
p3188
g6
(g7
g8
Ntp3189
Rp3190
(S'amp95225'
p3191
g12
(g16
S'\x10o\xc7\xea\xefs\x9d?'
p3192
tp3193
Rp3194
I01
NI0
I1
Ng12
(g16
S'\xb4\xc2\x17\x17\xd4\x84A?'
p3195
tp3196
Rp3197
(dp3198
S'width95225'
p3199
g12
(g16
S'V\xd6\x9cd(\xe4\xe6?'
p3200
tp3201
Rp3202
sF0.5
Ntp3203
bsS'pos105718'
p3204
g6
(g7
g8
Ntp3205
Rp3206
(S'pos105718'
p3207
I105718
I00
NF-inf
Finf
NI0
NI105718
Ntp3208
bsS'amp104806'
p3209
g6
(g7
g8
Ntp3210
Rp3211
(S'amp104806'
p3212
g12
(g16
S'\xa0\x84G\xae\xf0!\xa1?'
p3213
tp3214
Rp3215
I01
NI0
I1
NNNF0.5
Ntp3216
bsS'pos95462'
p3217
g6
(g7
g8
Ntp3218
Rp3219
(S'pos95462'
p3220
I95462
I00
NF-inf
Finf
NI0
NI95462
Ntp3221
bsS'pos93490'
p3222
g6
(g7
g8
Ntp3223
Rp3224
(S'pos93490'
p3225
I93490
I00
NF-inf
Finf
NI0
NI93490
Ntp3226
bsS'width104323'
p3227
g6
(g7
g8
Ntp3228
Rp3229
(S'width104323'
p3230
g12
(g16
S'\x00\x00\x00\x00\x00\x00<@'
p3231
tp3232
Rp3233
I01
NI7
I28
NNNI14
Ntp3234
bsS'width99340'
p3235
g6
(g7
g8
Ntp3236
Rp3237
(g1772
g12
(g16
S'\x10+\x87\xff\xff\xff;@'
p3238
tp3239
Rp3240
I01
NI7
I28
Ng12
(g16
S'\xccSa\t>\xe2\x02@'
p3241
tp3242
Rp3243
(dp3244
g1764
g12
(g16
S'\xec\x91\xb2\xdc\x0cc\xb1\xbf'
p3245
tp3246
Rp3247
sg1768
g12
(g16
S'\xf2\x9e6\xc3\x9e\x01\xe4\xbf'
p3248
tp3249
Rp3250
sg1756
g12
(g16
S'J\xc1\xd2\xcdjq\xd6?'
p3251
tp3252
Rp3253
sI14
Ntp3254
bsS'width93317'
p3255
g6
(g7
g8
Ntp3256
Rp3257
(g34
g12
(g16
S'\xfa\xb2t\xf8\xff\xff;@'
p3258
tp3259
Rp3260
I01
NI7
I28
Ng12
(g16
S'\xebdc^\xe71\xfb?'
p3261
tp3262
Rp3263
(dp3264
g11
g12
(g16
S'\xfc\xfaM\xb8\x8e\xe3y\xbf'
p3265
tp3266
Rp3267
sg26
g12
(g16
S'|\x83\x97\xee\x1bA\xad\xbf'
p3268
tp3269
Rp3270
sg30
g12
(g16
S'O8\xfc\xc2\xdcp\xa2\xbf'
p3271
tp3272
Rp3273
sg38
g12
(g16
S'\x19\xe4\x06g\xa4\x99\xc0\xbf'
p3274
tp3275
Rp3276
sg42
g12
(g16
S'\x93\xb4?\x1f*\xf0\xd5?'
p3277
tp3278
Rp3279
sg46
g12
(g16
S'^\x7f\x7f\xc6\xe1g\xe3\xbf'
p3280
tp3281
Rp3282
sg50
g12
(g16
S'y\xef\x8c?Z\xa5\xd2?'
p3283
tp3284
Rp3285
sI14
Ntp3286
bsS'pos72286'
p3287
g6
(g7
g8
Ntp3288
Rp3289
(S'pos72286'
p3290
I72286
I00
NF-inf
Finf
NI0
NI72286
Ntp3291
bsS'pos104790'
p3292
g6
(g7
g8
Ntp3293
Rp3294
(S'pos104790'
p3295
I104790
I00
NF-inf
Finf
NNNI104790
Ntp3296
bsS'amp72042'
p3297
g6
(g7
g8
Ntp3298
Rp3299
(g972
g12
(g16
S'\x90x\x1d\xcbo\xcf\x91?'
p3300
tp3301
Rp3302
I01
NI0
I1
Ng12
(g16
S"'\xda\xc5\xf0a\xdcV?"
p3303
tp3304
Rp3305
(dp3306
g960
g12
(g16
S"\xb7\x1aH\xc4x'\xc1\xbf"
p3307
tp3308
Rp3309
sg964
g12
(g16
S'\x98\x86\x14\x1f^\xfc~?'
p3310
tp3311
Rp3312
sg968
g12
(g16
S'\x11\x8f\xd3\x81\xf9\xd1\xe7\xbf'
p3313
tp3314
Rp3315
sg952
g12
(g16
S'1+\xb92\xe7f\xe5?'
p3316
tp3317
Rp3318
sg976
g12
(g16
S'\xb6\xdet\xd9I\xe9\xbd\xbf'
p3319
tp3320
Rp3321
sF0.5
Ntp3322
bsS'amp67486'
p3323
g6
(g7
g8
Ntp3324
Rp3325
(g899
g12
(g16
S'\x80\x99\x11q/\xaez?'
p3326
tp3327
Rp3328
I01
NI0
I1
Ng12
(g16
S' Aw\x10\x05\x036?'
p3329
tp3330
Rp3331
(dp3332
g879
g12
(g16
S'\x89\x1d\x8d\xb9\xd8s\x82\xbf'
p3333
tp3334
Rp3335
sg883
g12
(g16
S'\xa3\xff}\x9e\xdb\xd0\xd1\xbf'
p3336
tp3337
Rp3338
sg871
g12
(g16
S'\x14>\xb7\xc3 +\xb5\xbf'
p3339
tp3340
Rp3341
sg887
g12
(g16
S')\xa2\xc6\x00\x98d\xa9\xbf'
p3342
tp3343
Rp3344
sg891
g12
(g16
S'zL\x83\xdc\xa9\xc8\xbf?'
p3345
tp3346
Rp3347
sg895
g12
(g16
S'2s\xf18\x16\xb5\xdb\xbf'
p3348
tp3349
Rp3350
sg903
g12
(g16
S'\xde\xbaD\xee\xa2\xf9\xd0?'
p3351
tp3352
Rp3353
sF0.5
Ntp3354
bsS'amp104273'
p3355
g6
(g7
g8
Ntp3356
Rp3357
(S'amp104273'
p3358
g12
(g16
S'\x80O\xb2\x93\xdc\x1en?'
p3359
tp3360
Rp3361
I01
NI0
I1
NNNF0.5
Ntp3362
bsS'amp99207'
p3363
g6
(g7
g8
Ntp3364
Rp3365
(g195
g12
(g16
S'\xb0\x91\x04\xb3\xb7\xd0\x93?'
p3366
tp3367
Rp3368
I01
NI0
I1
Ng12
(g16
S'`\n\xd8\xe7\xadWd?'
p3369
tp3370
Rp3371
(dp3372
g187
g12
(g16
S'\x1d=4\xca\xe2\xd5\xbe?'
p3373
tp3374
Rp3375
sg199
g12
(g16
S'\xd2\x90\x10\xbe\xf8\xe3\xe1\xbf'
p3376
tp3377
Rp3378
sg203
g12
(g16
S'\x8c\xdb;\xe8\xa5\xc1\xd4?'
p3379
tp3380
Rp3381
sF0.5
Ntp3382
bsS'Inf'
p3383
Finf
sS'amp72069'
p3384
g6
(g7
g8
Ntp3385
Rp3386
(g960
g12
(g16
S'\x80\x8c\x8dt\x90\xef\x99?'
p3387
tp3388
Rp3389
I01
NI0
I1
Ng12
(g16
S'av\x95\xd3x\xa5U?'
p3390
tp3391
Rp3392
(dp3393
g964
g12
(g16
S'\xd6l\xc5\xe5~\xd0\xde?'
p3394
tp3395
Rp3396
sg976
g12
(g16
S'[\x066IQm\xdc\xbf'
p3397
tp3398
Rp3399
sg968
g12
(g16
S'\xaf\x87,\xd2\xcf\x18\xc8?'
p3400
tp3401
Rp3402
sg952
g12
(g16
S'\xb2a\x12\xbb\xe8\xea\xd1\xbf'
p3403
tp3404
Rp3405
sg972
g12
(g16
S"\xa8\x19H\xc4x'\xc1\xbf"
p3406
tp3407
Rp3408
sF0.5
Ntp3409
bsS'width93428'
p3410
g6
(g7
g8
Ntp3411
Rp3412
(g26
g12
(g16
S'.\xc0$\xff\xff\xff;@'
p3413
tp3414
Rp3415
I01
NI7
I28
Ng12
(g16
S'\x05d\xc0"\xb7\x8f\xfe?'
p3416
tp3417
Rp3418
(dp3419
g11
g12
(g16
S'\x12\xfe\x1d\xd6P)\xe5?'
p3420
tp3421
Rp3422
sg38
g12
(g16
S'3\x0bJ\xf1\x9d\x82\xc0?'
p3423
tp3424
Rp3425
sg30
g12
(g16
S'\xfc\x05}%\xa6T\x97\xbf'
p3426
tp3427
Rp3428
sg34
g12
(g16
S'9i\x97\xee\x1bA\xad\xbf'
p3429
tp3430
Rp3431
sg42
g12
(g16
S'\xeaiBd}b\xad\xbf'
p3432
tp3433
Rp3434
sg46
g12
(g16
S'u\x90\xf5#`\xcd!?'
p3435
tp3436
Rp3437
sg50
g12
(g16
S'\xba\xa7\x05\xa4\xbf4\xd3\xbf'
p3438
tp3439
Rp3440
sI14
Ntp3441
bsS'amp90234'
p3442
g6
(g7
g8
Ntp3443
Rp3444
(g105
g12
(g16
S'\x00\x95\xd3\x93|J{?'
p3445
tp3446
Rp3447
I01
NI0
I1
Ng12
(g16
S'\xc1\t\x8b~$\xb7y?'
p3448
tp3449
Rp3450
(dp3451
g109
g12
(g16
S'>\xe4O\xea\x8a\xc0\xeb?'
p3452
tp3453
Rp3454
sg113
g12
(g16
S'18\xd5b\xf6\x92\xec\xbf'
p3455
tp3456
Rp3457
sg117
g12
(g16
S'W z\xcb3\xad\xec?'
p3458
tp3459
Rp3460
sg121
g12
(g16
S'\x0f\xbb\x00\xfdFY\xee\xbf'
p3461
tp3462
Rp3463
sg97
g12
(g16
S'\xe8C\xd9n\xb4}\xb5\xbf'
p3464
tp3465
Rp3466
sg125
g12
(g16
S'\xdeK\xf0*$5\xb2\xbf'
p3467
tp3468
Rp3469
sg129
g12
(g16
S'\xe7\xfdOV\xee\xd1\xec\xbf'
p3470
tp3471
Rp3472
sF0.5
Ntp3473
bsS'width72069'
p3474
g6
(g7
g8
Ntp3475
Rp3476
(g968
g12
(g16
S'\xe3\xfb\xf7\xff\xff\xff;@'
p3477
tp3478
Rp3479
I01
NI7
I28
Ng12
(g16
S'\x0e\x02Z\xeb\xd0\xbb\xf9?'
p3480
tp3481
Rp3482
(dp3483
g964
g12
(g16
S'\xe2\xd9\xac\xdc\x8c\x07\xb2?'
p3484
tp3485
Rp3486
sg976
g12
(g16
S'\xc1/\xe1\xe2oR\xd4\xbf'
p3487
tp3488
Rp3489
sg960
g12
(g16
S'\xb8\x88,\xd2\xcf\x18\xc8?'
p3490
tp3491
Rp3492
sg952
g12
(g16
S'\x86\xb7A8\xe4M\xea\xbf'
p3493
tp3494
Rp3495
sg972
g12
(g16
S'\xcd\x8e\xd3\x81\xf9\xd1\xe7\xbf'
p3496
tp3497
Rp3498
sI14
Ntp3499
bsS'amp92569'
p3500
g6
(g7
g8
Ntp3501
Rp3502
(g1820
g12
(g16
S'P\x1f*\xd4\t\xac\x9b?'
p3503
tp3504
Rp3505
I01
NI0
I1
Ng12
(g16
S'B\x154\xef\xe9\x15U?'
p3506
tp3507
Rp3508
(dp3509
g1812
g12
(g16
S'0\x1e\x0e\xae\x93\xde\xe6\xbf'
p3510
tp3511
Rp3512
sF0.5
Ntp3513
bsS'pos67654'
p3514
g6
(g7
g8
Ntp3515
Rp3516
(S'pos67654'
p3517
I67654
I00
NF-inf
Finf
NNNI67654
Ntp3518
bsS'amp104692'
p3519
g6
(g7
g8
Ntp3520
Rp3521
(S'amp104692'
p3522
g12
(g16
S'@\xc6\x04\xd7\x1f\xf6\x9c?'
p3523
tp3524
Rp3525
I01
NI0
I1
NNNF0.5
Ntp3526
bsS'pos67841'
p3527
g6
(g7
g8
Ntp3528
Rp3529
(S'pos67841'
p3530
I67841
I00
NF-inf
Finf
NNNI67841
Ntp3531
bsS'width99002'
p3532
g6
(g7
g8
Ntp3533
Rp3534
(g66
g12
(g16
S'J\x16l\xfb\xff\xff;@'
p3535
tp3536
Rp3537
I01
NI7
I28
Ng12
(g16
S'\xd1\xa9V&\x1e7\xef?'
p3538
tp3539
Rp3540
(dp3541
g58
g12
(g16
S'\xfcT\x07"\xea\x15\xb9\xbf'
p3542
tp3543
Rp3544
sg70
g12
(g16
S'\xe2&\x1b8w\xa7\xd6\xbf'
p3545
tp3546
Rp3547
sg74
g12
(g16
S'\xdd\xb8\xdd\xe1\xcbw\xe3\xbf'
p3548
tp3549
Rp3550
sI14
Ntp3551
bsS'width93782'
p3552
g6
(g7
g8
Ntp3553
Rp3554
(g448
g12
(g16
S'\xc1\x8e\x9e\xff\xff\xff;@'
p3555
tp3556
Rp3557
I01
NI7
I28
Ng12
(g16
S'\x15\xd3\xdfb\xee\xb7\xfc?'
p3558
tp3559
Rp3560
(dp3561
g440
g12
(g16
S'n\x05\x0c_\x198\xd6\xbf'
p3562
tp3563
Rp3564
sg452
g12
(g16
S'\x83?\x86\x11\xf0\xdd\xae\xbf'
p3565
tp3566
Rp3567
sg456
g12
(g16
S'P\xe1[\xfc\xdc"\xe4\xbf'
p3568
tp3569
Rp3570
sI14
Ntp3571
bsS'width67531'
p3572
g6
(g7
g8
Ntp3573
Rp3574
(g879
g12
(g16
S'\xdc\xfa\xff\xff\xff\xff;@'
p3575
tp3576
Rp3577
I01
NI7
I28
Ng12
(g16
S'\xfc\x8b\xdc!Z-\xe9?'
p3578
tp3579
Rp3580
(dp3581
g883
g12
(g16
S'j\x15\x87\xdaM\x9c~\xbf'
p3582
tp3583
Rp3584
sg871
g12
(g16
S'\xbe\xb7^qI9\xe6\xbf'
p3585
tp3586
Rp3587
sg887
g12
(g16
S'pI\xeeg\xb5\xea\xd8?'
p3588
tp3589
Rp3590
sg891
g12
(g16
S'\xf5\xd2\xf4\x86\x00\xdb\xe1\xbf'
p3591
tp3592
Rp3593
sg895
g12
(g16
S'z\xe74\x8c\x7ft\xd7\xbf'
p3594
tp3595
Rp3596
sg899
g12
(g16
S':\x1d\x8d\xb9\xd8s\x82\xbf'
p3597
tp3598
Rp3599
sg903
g12
(g16
S'\xfdQ\x1fr,\xc6\xdf?'
p3600
tp3601
Rp3602
sI14
Ntp3603
bsS'pos99207'
p3604
g6
(g7
g8
Ntp3605
Rp3606
(S'pos99207'
p3607
I99207
I00
NF-inf
Finf
NI0
NI99207
Ntp3608
bsS'pos71908'
p3609
g6
(g7
g8
Ntp3610
Rp3611
(S'pos71908'
p3612
I71908
I00
NF-inf
Finf
NI0
NI71908
Ntp3613
bsS'width95225'
p3614
g6
(g7
g8
Ntp3615
Rp3616
(g3199
g12
(g16
S"m'\x00\xff\xff\xff;@"
p3617
tp3618
Rp3619
I01
NI7
I28
Ng12
(g16
S'\xf3\xe0\r!\xbf\xb4\x13@'
p3620
tp3621
Rp3622
(dp3623
g3191
g12
(g16
S'V\xd6\x9cd(\xe4\xe6?'
p3624
tp3625
Rp3626
sI14
Ntp3627
bsS'amp67766'
p3628
g6
(g7
g8
Ntp3629
Rp3630
(S'amp67766'
p3631
g12
(g16
S'\xc0\xb2\xad\xd0\xf2\xed\x84?'
p3632
tp3633
Rp3634
I01
NI0
I1
NNNF0.5
Ntp3635
bsS'width90007'
p3636
g6
(g7
g8
Ntp3637
Rp3638
(g935
g12
(g16
S'\x8f\xd9\xfd\xff\xff\xff;@'
p3639
tp3640
Rp3641
I01
NI7
I28
Ng12
(g16
S"\xc2'lh3\xb9\x1b@"
p3642
tp3643
Rp3644
(dp3645
g927
g12
(g16
S'\xee^w\x02\xa2\xfc\xa2?'
p3646
tp3647
Rp3648
sg939
g12
(g16
S'\xed\xd9X\xb8\x9d\x9e\xe2\xbf'
p3649
tp3650
Rp3651
sg943
g12
(g16
S'\xe7u\xd0\xee\x16R\xd3\xbf'
p3652
tp3653
Rp3654
sI14
Ntp3655
bsS'width67520'
p3656
g6
(g7
g8
Ntp3657
Rp3658
(g895
g12
(g16
S'\xd1<%\xff\xff\xff;@'
p3659
tp3660
Rp3661
I01
NI7
I28
Ng12
(g16
S'\xcb_R\xb3\xf3\xf5\t@'
p3662
tp3663
Rp3664
(dp3665
g879
g12
(g16
S'`\xe74\x8c\x7ft\xd7\xbf'
p3666
tp3667
Rp3668
sg883
g12
(g16
S'E\x91p\xc6\xba\xfa\xda\xbf'
p3669
tp3670
Rp3671
sg871
g12
(g16
S'\x7f\xb3\xb6\x90k\x94\xdc?'
p3672
tp3673
Rp3674
sg887
g12
(g16
S'\xe2\xe0\xeeI7N\x82?'
p3675
tp3676
Rp3677
sg891
g12
(g16
S'A\xcb\x94m\x8f\xc0\xa1?'
p3678
tp3679
Rp3680
sg899
g12
(g16
S'<s\xf18\x16\xb5\xdb\xbf'
p3681
tp3682
Rp3683
sg903
g12
(g16
S'W\x81\xd2\xe8\xaa\xa3\xe4\xbf'
p3684
tp3685
Rp3686
sI14
Ntp3687
bsS'pos67257'
p3688
g6
(g7
g8
Ntp3689
Rp3690
(S'pos67257'
p3691
I67257
I00
NF-inf
Finf
NI0
NI67257
Ntp3692
bsS'pos104473'
p3693
g6
(g7
g8
Ntp3694
Rp3695
(S'pos104473'
p3696
I104473
I00
NF-inf
Finf
NNNI104473
Ntp3697
bsS'amp93373'
p3698
g6
(g7
g8
Ntp3699
Rp3700
(g38
g12
(g16
S'H5@}\xe8f\xa1?'
p3701
tp3702
Rp3703
I01
NI0
I1
Ng12
(g16
S'\x12\x17\x04\xe9\xd6\x98E?'
p3704
tp3705
Rp3706
(dp3707
g11
g12
(g16
S'\x89WX^L\x12\xba?'
p3708
tp3709
Rp3710
sg26
g12
(g16
S'\xee\x0bJ\xf1\x9d\x82\xc0?'
p3711
tp3712
Rp3713
sg30
g12
(g16
S'RsTE\x86\xf4\xa9?'
p3714
tp3715
Rp3716
sg34
g12
(g16
S';\xe3\x06g\xa4\x99\xc0\xbf'
p3717
tp3718
Rp3719
sg42
g12
(g16
S'\xc7\xac\xa9\x1bU\x18\x92\xbf'
p3720
tp3721
Rp3722
sg46
g12
(g16
S'\x0bBr\x9e\xe1Q\xb7?'
p3723
tp3724
Rp3725
sg50
g12
(g16
S'%\x8a4\xb9\x85o\xdd?'
p3726
tp3727
Rp3728
sF0.5
Ntp3729
bsS'pos99123'
p3730
g6
(g7
g8
Ntp3731
Rp3732
(S'pos99123'
p3733
I99123
I00
NF-inf
Finf
NI0
NI99123
Ntp3734
bsS'pos67798'
p3735
g6
(g7
g8
Ntp3736
Rp3737
(S'pos67798'
p3738
I67798
I00
NF-inf
Finf
NNNI67798
Ntp3739
bsS'inf'
p3740
Finf
sS'width58152'
p3741
g6
(g7
g8
Ntp3742
Rp3743
(g2657
g12
(g16
S'\xcb\x0e\xea\x8f \xea7@'
p3744
tp3745
Rp3746
I01
NI7
I28
Ng12
(g16
S'a+\xe1"\xddA\xf0?'
p3747
tp3748
Rp3749
(dp3750
g2649
g12
(g16
S'\xd9\xe8JY\xc1\xd0\xe6\xbf'
p3751
tp3752
Rp3753
sI14
Ntp3754
bsS'width72263'
p3755
g6
(g7
g8
Ntp3756
Rp3757
(g257
g12
(g16
S'z\xde\xc8\xff\xff\xff;@'
p3758
tp3759
Rp3760
I01
NI7
I28
Ng12
(g16
S'A"g({\x98\x10@'
p3761
tp3762
Rp3763
(dp3764
g249
g12
(g16
S'$\xff\x1f\xfe\xcf\xed\xe7\xbf'
p3765
tp3766
Rp3767
sg261
g12
(g16
S'\x9b4t\xea 5\xe9\xbf'
p3768
tp3769
Rp3770
sg245
g12
(g16
S'\xcc` }\xe4C\xb6?'
p3771
tp3772
Rp3773
sg253
g12
(g16
S'\xd5\x81|\xee\xe0\xcb\xcf\xbf'
p3774
tp3775
Rp3776
sg237
g12
(g16
S'\t\x96\x87\xe3\x89b\xc0\xbf'
p3777
tp3778
Rp3779
sI14
Ntp3780
bsS'width89871'
p3781
g6
(g7
g8
Ntp3782
Rp3783
(g1184
g12
(g16
S'\x8d\xf0 \xff\xff\xff;@'
p3784
tp3785
Rp3786
I01
NI7
I28
Ng12
(g16
S'\xb0SB\xa35\xd1\xe7?'
p3787
tp3788
Rp3789
(dp3790
g1176
g12
(g16
S'\x8e\xd4l\xf9\xe5\xe0\xe1\xbf'
p3791
tp3792
Rp3793
sg1168
g12
(g16
S'\x01a\tt\xbe\x1a\xc2?'
p3794
tp3795
Rp3796
sg1180
g12
(g16
S'\xe4\xef\xabU\xa4\xbf\xd4\xbf'
p3797
tp3798
Rp3799
sI14
Ntp3800
bsS'pos89630'
p3801
g6
(g7
g8
Ntp3802
Rp3803
(S'pos89630'
p3804
I89630
I00
NF-inf
Finf
NI0
NI89630
Ntp3805
bsS'pos104373'
p3806
g6
(g7
g8
Ntp3807
Rp3808
(S'pos104373'
p3809
I104373
I00
NF-inf
Finf
NNNI104373
Ntp3810
bsS'pos89871'
p3811
g6
(g7
g8
Ntp3812
Rp3813
(S'pos89871'
p3814
I89871
I00
NF-inf
Finf
NI0
NI89871
Ntp3815
bsS'amp104741'
p3816
g6
(g7
g8
Ntp3817
Rp3818
(S'amp104741'
p3819
g12
(g16
S'\x00\x00\x00\x00\x00\x00\xf0?'
p3820
tp3821
Rp3822
I01
NI0
I1
NNNF0.5
Ntp3823
bsS'width67486'
p3824
g6
(g7
g8
Ntp3825
Rp3826
(g883
g12
(g16
S'\xb4\xd7\xff\xff\xff\xff;@'
p3827
tp3828
Rp3829
I01
NI7
I28
Ng12
(g16
S'ad\xe4\x8d`W\xfc?'
p3830
tp3831
Rp3832
(dp3833
g879
g12
(g16
S'!\x1e\x87\xdaM\x9c~\xbf'
p3834
tp3835
Rp3836
sg871
g12
(g16
S'\t\xf82\xd8\x0c\x18\xd6\xbf'
p3837
tp3838
Rp3839
sg887
g12
(g16
S'\x1a\xb1\\\xab\x0b\xc1n\xbf'
p3840
tp3841
Rp3842
sg891
g12
(g16
S' `t6\xaa=\xae?'
p3843
tp3844
Rp3845
sg895
g12
(g16
S'6\x91p\xc6\xba\xfa\xda\xbf'
p3846
tp3847
Rp3848
sg899
g12
(g16
S'\x99\xff}\x9e\xdb\xd0\xd1\xbf'
p3849
tp3850
Rp3851
sg903
g12
(g16
S'\xf9\xe6\xd4\xdc-\x8e\xd4?'
p3852
tp3853
Rp3854
sI14
Ntp3855
bsS'amp79922'
p3856
g6
(g7
g8
Ntp3857
Rp3858
(g1030
g12
(g16
S"`\xa92E'\x89\x9f?"
p3859
tp3860
Rp3861
I01
NI0
I1
Ng12
(g16
S'\x8b`cE\xcc\x97D?'
p3862
tp3863
Rp3864
(dp3865
g1026
g12
(g16
S'\xcc\x9f\xc2=S\xf5\xb9\xbf'
p3866
tp3867
Rp3868
sg1034
g12
(g16
S'*\xe7\xe5r;6\xb8\xbf'
p3869
tp3870
Rp3871
sg1022
g12
(g16
S',Sk\xa0\xd7\xa4\xe0\xbf'
p3872
tp3873
Rp3874
sg1018
g12
(g16
S'\x18>\xb6+:\r\xc2?'
p3875
tp3876
Rp3877
sg1010
g12
(g16
S'\x9c\x16\x01@dr\xc1?'
p3878
tp3879
Rp3880
sF0.5
Ntp3881
bsS'pos90270'
p3882
g6
(g7
g8
Ntp3883
Rp3884
(S'pos90270'
p3885
I90270
I00
NF-inf
Finf
NI0
NI90270
Ntp3886
bsS'width93853'
p3887
g6
(g7
g8
Ntp3888
Rp3889
(g2840
g12
(g16
S'\r\x0b$\xef\xff\xff;@'
p3890
tp3891
Rp3892
I01
NI7
I28
Ng12
(g16
S'\x05\xb9\x90\xb8\xb6\xbe\x02@'
p3893
tp3894
Rp3895
(dp3896
g2832
g12
(g16
S'\xab\xabc\xbd\x0f\xa9\xe3\xbf'
p3897
tp3898
Rp3899
sg2836
g12
(g16
S'~\x15Y8\xc0;\xb6\xbf'
p3900
tp3901
Rp3902
sg2824
g12
(g16
S'n\xe2\xbb\xbe\x1b\xa0\xd6\xbf'
p3903
tp3904
Rp3905
sI14
Ntp3906
bsS'amp72286'
p3907
g6
(g7
g8
Ntp3908
Rp3909
(g261
g12
(g16
S"\x80't\xf6\xd9R\x91?"
p3910
tp3911
Rp3912
I01
NI0
I1
Ng12
(g16
S'P{\x8a\xfaA\xb8^?'
p3913
tp3914
Rp3915
(dp3916
g245
g12
(g16
S'\x07\xc9SWv\xa0\xc0\xbf'
p3917
tp3918
Rp3919
sg249
g12
(g16
S'\x192\xd5\x90\xb9\xb3\xe4?'
p3920
tp3921
Rp3922
sg253
g12
(g16
S'@\x0e\xf8\xfc\x8f9\xc7?'
p3923
tp3924
Rp3925
sg257
g12
(g16
S'\x974t\xea 5\xe9\xbf'
p3926
tp3927
Rp3928
sg237
g12
(g16
S'\xf4\x9cL\xceJ\xaa\xc9\xbf'
p3929
tp3930
Rp3931
sF0.5
Ntp3932
bsS'amp99123'
p3933
g6
(g7
g8
Ntp3934
Rp3935
(S'amp99123'
p3936
g12
(g16
S'L\x06y\xe0#$\xbf?'
p3937
tp3938
Rp3939
I01
NI0
I1
Ng12
(g16
S'l\xd5\xe9\xd7A0x?'
p3940
tp3941
Rp3942
(dp3943
S'width99123'
p3944
g12
(g16
S'2\x801(\x19\xe2\xe6\xbf'
p3945
tp3946
Rp3947
sF0.5
Ntp3948
bsS'pos95225'
p3949
g6
(g7
g8
Ntp3950
Rp3951
(S'pos95225'
p3952
I95225
I00
NF-inf
Finf
NI0
NI95225
Ntp3953
bsS'pos93317'
p3954
g6
(g7
g8
Ntp3955
Rp3956
(S'pos93317'
p3957
I93317
I00
NF-inf
Finf
NI0
NI93317
Ntp3958
bsS'width79922'
p3959
g6
(g7
g8
Ntp3960
Rp3961
(g1022
g12
(g16
S'\xd2%r\xfa\xff\xff;@'
p3962
tp3963
Rp3964
I01
NI7
I28
Ng12
(g16
S'ttKq\xc0!\xf1?'
p3965
tp3966
Rp3967
(dp3968
g1034
g12
(g16
S'\xfc\x13\x92\\\xa8x\xd7\xbf'
p3969
tp3970
Rp3971
sg1026
g12
(g16
S'\x18\xa7X\xea$\xd1\xd6\xbf'
p3972
tp3973
Rp3974
sg1018
g12
(g16
S'>\x1a\xb2s\xe7\x1b\xb4\xbf'
p3975
tp3976
Rp3977
sg1010
g12
(g16
S"\x1eU%\xde'\xbf\xb2\xbf"
p3978
tp3979
Rp3980
sg1030
g12
(g16
S'(Sk\xa0\xd7\xa4\xe0\xbf'
p3981
tp3982
Rp3983
sI14
Ntp3984
bsS'width93490'
p3985
g6
(g7
g8
Ntp3986
Rp3987
(g2392
g12
(g16
S'\xfa\xcd\xeb\xfb\xff\xff;@'
p3988
tp3989
Rp3990
I01
NI7
I28
Ng12
(g16
S'G\x1aL\xeeA\n\x00@'
p3991
tp3992
Rp3993
(dp3994
g2384
g12
(g16
S'\x8c\x82/C9I\xe4\xbf'
p3995
tp3996
Rp3997
sg2388
g12
(g16
S',\xd6*#\xd78\xd6\xbf'
p3998
tp3999
Rp4000
sg2376
g12
(g16
S'8\xfa5\xff\xf1\x9d\xa9\xbf'
p4001
tp4002
Rp4003
sI14
Ntp4004
bsS'pos93782'
p4005
g6
(g7
g8
Ntp4006
Rp4007
(S'pos93782'
p4008
I93782
I00
NF-inf
Finf
NI0
NI93782
Ntp4009
bsS'amp89610'
p4010
g6
(g7
g8
Ntp4011
Rp4012
(g374
g12
(g16
S'0\xb0\x88\x9d\xcb\xf4\xa2?'
p4013
tp4014
Rp4015
I01
NI0
I1
Ng12
(g16
S'\x87\x83\x01\xc9\xfb\n\\?'
p4016
tp4017
Rp4018
(dp4019
g366
g12
(g16
S'\x85/\xecR\x84\xb7\xbc\xbf'
p4020
tp4021
Rp4022
sg382
g12
(g16
S'\t6Mx\x9b\x88\xca\xbf'
p4023
tp4024
Rp4025
sg378
g12
(g16
S'\x9aA/\xaer\x97\xe2\xbf'
p4026
tp4027
Rp4028
sF0.5
Ntp4029
bsS'amp79803'
p4030
g6
(g7
g8
Ntp4031
Rp4032
(g2239
g12
(g16
S'\x00\xdb~\x8b@\t\x91?'
p4033
tp4034
Rp4035
I01
NI0
I1
Ng12
(g16
S'\n\xae\xa8\xfb\xe6\xaa7?'
p4036
tp4037
Rp4038
(dp4039
g2231
g12
(g16
S"'\xba\x98LWY\xc0?"
p4040
tp4041
Rp4042
sg2235
g12
(g16
S'}\x18\x06d\x93\x8b\xae\xbf'
p4043
tp4044
Rp4045
sg2223
g12
(g16
S'kc\xc42W+\xe4\xbf'
p4046
tp4047
Rp4048
sF0.5
Ntp4049
bsS'amp93149'
p4050
g6
(g7
g8
Ntp4051
Rp4052
(S'amp93149'
p4053
g12
(g16
S'\xe0\x9f"\xa0\xc4\x92\x80?'
p4054
tp4055
Rp4056
I01
NI0
I1
Ng12
(g16
S'\x01m\xdcw\x1b\xf60?'
p4057
tp4058
Rp4059
(dp4060
S'width93149'
p4061
g12
(g16
S'\xb6kY\x86\x03r\xe6\xbf'
p4062
tp4063
Rp4064
sF0.5
Ntp4065
bsS'pos58152'
p4066
g6
(g7
g8
Ntp4067
Rp4068
(S'pos58152'
p4069
I58152
I00
NF-inf
Finf
NI0
NI58152
Ntp4070
bsS'amp89992'
p4071
g6
(g7
g8
Ntp4072
Rp4073
(g939
g12
(g16
S'\xa0\x13\xcd\x18c]\x8e?'
p4074
tp4075
Rp4076
I01
NI0
I1
Ng12
(g16
S'b25\xba\xc4\xf1d?'
p4077
tp4078
Rp4079
(dp4080
g927
g12
(g16
S'\xebRtb\xd7\x17\xda\xbf'
p4081
tp4082
Rp4083
sg943
g12
(g16
S'|\xaf\xe8\xdb\x8b\x05\x82?'
p4084
tp4085
Rp4086
sg935
g12
(g16
S'\xec\xd9X\xb8\x9d\x9e\xe2\xbf'
p4087
tp4088
Rp4089
sF0.5
Ntp4090
bsS'pos79873'
p4091
g6
(g7
g8
Ntp4092
Rp4093
(S'pos79873'
p4094
I79873
I00
NF-inf
Finf
NI0
NI79873
Ntp4095
bsS'pos98729'
p4096
g6
(g7
g8
Ntp4097
Rp4098
(S'pos98729'
p4099
I98729
I00
NF-inf
Finf
NNNI98729
Ntp4100
bsS'pos104869'
p4101
g6
(g7
g8
Ntp4102
Rp4103
(S'pos104869'
p4104
I104869
I00
NF-inf
Finf
NI0
NI104869
Ntp4105
bsS'pos92341'
p4106
g6
(g7
g8
Ntp4107
Rp4108
(S'pos92341'
p4109
I92341
I00
NF-inf
Finf
NI0
NI92341
Ntp4110
bsS'amp104440'
p4111
g6
(g7
g8
Ntp4112
Rp4113
(S'amp104440'
p4114
g12
(g16
S'\xa0\xccO\x89\x94\x96\x8b?'
p4115
tp4116
Rp4117
I01
NI0
I1
NNNF0.5
Ntp4118
bsS'amp71876'
p4119
g6
(g7
g8
Ntp4120
Rp4121
(g1409
g12
(g16
S'\x80gV\x93\xcb\xd0\x8e?'
p4122
tp4123
Rp4124
I01
NI0
I1
Ng12
(g16
S'`L\xe2N\xf7S`?'
p4125
tp4126
Rp4127
(dp4128
g1417
g12
(g16
S'(\x8e\x10h\x9e\xd4\xdd\xbf'
p4129
tp4130
Rp4131
sg1413
g12
(g16
S'\xa6\x9c\xb8#\x0e\xb6\xd7?'
p4132
tp4133
Rp4134
sg1401
g12
(g16
S'\xbfOj)6\x0e\xd0?'
p4135
tp4136
Rp4137
sF0.5
Ntp4138
bsS'pos72492'
p4139
g6
(g7
g8
Ntp4140
Rp4141
(S'pos72492'
p4142
I72492
I00
NF-inf
Finf
NI0
NI72492
Ntp4143
bsS'pos67640'
p4144
g6
(g7
g8
Ntp4145
Rp4146
(S'pos67640'
p4147
I67640
I00
NF-inf
Finf
NNNI67640
Ntp4148
bsS'width90234'
p4149
g6
(g7
g8
Ntp4150
Rp4151
(g109
g12
(g16
S'\x90\xf4\xe4\xff\xff\xff;@'
p4152
tp4153
Rp4154
I01
NI7
I28
Ng12
(g16
S'\xaaFj\xfa\x8f\xca>@'
p4155
tp4156
Rp4157
(dp4158
g105
g12
(g16
S'w\xe4O\xea\x8a\xc0\xeb?'
p4159
tp4160
Rp4161
sg113
g12
(g16
S'\x0el\xa5\xb7\xc6\xc2\xee\xbf'
p4162
tp4163
Rp4164
sg117
g12
(g16
S'^>L\xfc\xff\xbb\xe5?'
p4165
tp4166
Rp4167
sg121
g12
(g16
S'Uv\xbe\r\xed\x1f\xed\xbf'
p4168
tp4169
Rp4170
sg97
g12
(g16
S'o\xfa\x7f]\xfa\xaa\xc2\xbf'
p4171
tp4172
Rp4173
sg125
g12
(g16
S'\xa7\xbc}\xd8\xe3\xa5\xc3\xbf'
p4174
tp4175
Rp4176
sg129
g12
(g16
S"}\xe50['\xe9\xe5\xbf"
p4177
tp4178
Rp4179
sI14
Ntp4180
bsS'amp104202'
p4181
g6
(g7
g8
Ntp4182
Rp4183
(S'amp104202'
p4184
g12
(g16
S'@d\xcb\xed?Gy?'
p4185
tp4186
Rp4187
I01
NI0
I1
NNNF0.5
Ntp4188
bsS'amp95343'
p4189
g6
(g7
g8
Ntp4190
Rp4191
(S'amp95343'
p4192
g12
(g16
S'`\xe8\xba@A\xe9\x9f?'
p4193
tp4194
Rp4195
I01
NI0
I1
Ng12
(g16
S'r NQ\x08\xffB?'
p4196
tp4197
Rp4198
(dp4199
S'width95343'
p4200
g12
(g16
S'\x84P\xd4_\xa2\xe6\xe6\xbf'
p4201
tp4202
Rp4203
sF0.5
Ntp4204
bsS'amp90254'
p4205
g6
(g7
g8
Ntp4206
Rp4207
(g121
g12
(g16
S'\xe0\xbf\xbai5r\x84?'
p4208
tp4209
Rp4210
I01
NI0
I1
Ng12
(g16
S'\xd2\x0b\xbf\xcd*rw?'
p4211
tp4212
Rp4213
(dp4214
g105
g12
(g16
S'\x0c\xbb\x00\xfdFY\xee\xbf'
p4215
tp4216
Rp4217
sg109
g12
(g16
S'\x1av\xbe\r\xed\x1f\xed\xbf'
p4218
tp4219
Rp4220
sg113
g12
(g16
S'2\xdd\xee\t\x18\x1b\xed?'
p4221
tp4222
Rp4223
sg117
g12
(g16
S'&\xb82\xc6\x97\xaa\xeb\xbf'
p4224
tp4225
Rp4226
sg97
g12
(g16
S'\x19\xcb\xdd\xa5q\xfek?'
p4227
tp4228
Rp4229
sg125
g12
(g16
S'\xb2d\xff\x00\x15\x0c\x9f\xbf'
p4230
tp4231
Rp4232
sg129
g12
(g16
S'\x1ar0lw\x18\xeb?'
p4233
tp4234
Rp4235
sF0.5
Ntp4236
bsS'amp90098'
p4237
g6
(g7
g8
Ntp4238
Rp4239
(g346
g12
(g16
S'\x80J\xd3zA\x9f{?'
p4240
tp4241
Rp4242
I01
NI0
I1
Ng12
(g16
S'Y\xe1\x95B\x95\xc4k?'
p4243
tp4244
Rp4245
(dp4246
g334
g12
(g16
S'\xc0xk\xfdA\x1e\xee\xbf'
p4247
tp4248
Rp4249
sg326
g12
(g16
S'o\r\xcf\xc8N\x93\xdb\xbf'
p4250
tp4251
Rp4252
sg338
g12
(g16
S'\x00\xdf#\xfa\xce\xb2i\xbf'
p4253
tp4254
Rp4255
sg342
g12
(g16
S'\xb5\xd5\x0e\x8b0\x83\xb9\xbf'
p4256
tp4257
Rp4258
sg350
g12
(g16
S'7+\x1e\xc3\rJ\xe8\xbf'
p4259
tp4260
Rp4261
sg354
g12
(g16
S'\x92\xfc\x16\xbbZ\x93\xeb?'
p4262
tp4263
Rp4264
sg358
g12
(g16
S'\x1f\x1cO\x02\x05\xe1\xdc?'
p4265
tp4266
Rp4267
sF0.5
Ntp4268
bsS'amp98759'
p4269
g6
(g7
g8
Ntp4270
Rp4271
(S'amp98759'
p4272
g12
(g16
S' I\xa2L\x99\x95\x82?'
p4273
tp4274
Rp4275
I01
NI0
I1
NNNF0.5
Ntp4276
bsS'amp99290'
p4277
g6
(g7
g8
Ntp4278
Rp4279
(g1764
g12
(g16
S'\xe0N \xf0V\x9f\x87?'
p4280
tp4281
Rp4282
I01
NI0
I1
Ng12
(g16
S'\xd5\x10T\xf5\xd6^L?'
p4283
tp4284
Rp4285
(dp4286
g1756
g12
(g16
S'\x07\xccD\xb4\x91\x02\xe4?'
p4287
tp4288
Rp4289
sg1768
g12
(g16
S"'g6\xfe\xed.\xc1?"
p4290
tp4291
Rp4292
sg1772
g12
(g16
S'\xd7\x91\xb2\xdc\x0cc\xb1\xbf'
p4293
tp4294
Rp4295
sF0.5
Ntp4296
bsS'pos79803'
p4297
g6
(g7
g8
Ntp4298
Rp4299
(S'pos79803'
p4300
I79803
I00
NF-inf
Finf
NI0
NI79803
Ntp4301
bsS'width67640'
p4302
g6
(g7
g8
Ntp4303
Rp4304
(S'width67640'
p4305
g12
(g16
S'&KW\xfd\xff\xff;@'
p4306
tp4307
Rp4308
I01
NI7
I28
NNNI14
Ntp4309
bsS'amp72545'
p4310
g6
(g7
g8
Ntp4311
Rp4312
(g492
g12
(g16
S' -K\x18\x94a\x96?'
p4313
tp4314
Rp4315
I01
NI0
I1
Ng12
(g16
S'G\xb4\xc3\xbf\xc2IR?'
p4316
tp4317
Rp4318
(dp4319
g472
g12
(g16
S'x\x88\xca\xb4#i\xc9?'
p4320
tp4321
Rp4322
sg476
g12
(g16
S'\x8bb@Umd\xda?'
p4323
tp4324
Rp4325
sg480
g12
(g16
S'\x8b{\x01\xba\xb0s\xe5?'
p4326
tp4327
Rp4328
sg484
g12
(g16
S'V\xcc\x0b\xe8C\xa8\xd0?'
p4329
tp4330
Rp4331
sg488
g12
(g16
S'[\x85\x89\xab\xec[\xd2\xbf'
p4332
tp4333
Rp4334
sg464
g12
(g16
S'\x0eL\xe6\xd0\xeeE\xe0?'
p4335
tp4336
Rp4337
sg496
g12
(g16
S'lAoH\xd5t\xd3\xbf'
p4338
tp4339
Rp4340
sF0.5
Ntp4341
bsS'pos90234'
p4342
g6
(g7
g8
Ntp4343
Rp4344
(S'pos90234'
p4345
I90234
I00
NF-inf
Finf
NI0
NI90234
Ntp4346
bsS'width90134'
p4347
g6
(g7
g8
Ntp4348
Rp4349
(g358
g12
(g16
S'u1\xb0p\xff\xff;@'
p4350
tp4351
Rp4352
I01
NI7
I28
Ng12
(g16
S"+\xd3\xc0\x12`:'@"
p4353
tp4354
Rp4355
(dp4356
g334
g12
(g16
S'\x97\x82\xd0j\x83\x05\xde\xbf'
p4357
tp4358
Rp4359
sg326
g12
(g16
S'BA\xed\xa1\xc8\xf4\xed\xbf'
p4360
tp4361
Rp4362
sg338
g12
(g16
S'\xb0\x15\x1f\t\xd7\xe0\xc3\xbf'
p4363
tp4364
Rp4365
sg342
g12
(g16
S'\x8bv\xce\x9e4\xe2\xa9?'
p4366
tp4367
Rp4368
sg346
g12
(g16
S'\x8e\x1cO\x02\x05\xe1\xdc?'
p4369
tp4370
Rp4371
sg350
g12
(g16
S'\xd0\xb4\x1e\x91\xdd\x01\xeb\xbf'
p4372
tp4373
Rp4374
sg354
g12
(g16
S'\x1d\x11\xbb\x87\xee\x9f\xe5?'
p4375
tp4376
Rp4377
sI14
Ntp4378
bsS'width98704'
p4379
g6
(g7
g8
Ntp4380
Rp4381
(S'width98704'
p4382
g12
(g16
S'\x00\x00\x00\x00\x00\x00<@'
p4383
tp4384
Rp4385
I01
NI7
I28
NNNI14
Ntp4386
bsS'amp80093'
p4387
g6
(g7
g8
Ntp4388
Rp4389
(g765
g12
(g16
S'\x80\xea\xc1{\x14\xc2\x94?'
p4390
tp4391
Rp4392
I01
NI0
I1
Ng12
(g16
S'\xe3\xef\xbby+\xb5G?'
p4393
tp4394
Rp4395
(dp4396
g757
g12
(g16
S'\x93\xa7\x96\xf1\x8a\x9d\xbe?'
p4397
tp4398
Rp4399
sg769
g12
(g16
S'\xd8\xdcC\xcb\xe0\x02\xaa\xbf'
p4400
tp4401
Rp4402
sg773
g12
(g16
S'q\x9a\xa1\xf6BX\xe4\xbf'
p4403
tp4404
Rp4405
sF0.5
Ntp4406
bsS'pos104741'
p4407
g6
(g7
g8
Ntp4408
Rp4409
(S'pos104741'
p4410
I104741
I00
NF-inf
Finf
NNNI104741
Ntp4411
bsS'width95581'
p4412
g6
(g7
g8
Ntp4413
Rp4414
(g794
g12
(g16
S'\xcc\x0b\xd6\xfe\xff\xff;@'
p4415
tp4416
Rp4417
I01
NI7
I28
Ng12
(g16
S'\xc2\xc2\x18\xb1\xdf3 @'
p4418
tp4419
Rp4420
(dp4421
g786
g12
(g16
S'\x8fGtK3\xe3\xe6?'
p4422
tp4423
Rp4424
sI14
Ntp4425
bsS'pos104806'
p4426
g6
(g7
g8
Ntp4427
Rp4428
(S'pos104806'
p4429
I104806
I00
NF-inf
Finf
NNNI104806
Ntp4430
bsS'width93149'
p4431
g6
(g7
g8
Ntp4432
Rp4433
(g4061
g12
(g16
S'\x86\xa9(\xf8\xff\xff;@'
p4434
tp4435
Rp4436
I01
NI7
I28
Ng12
(g16
S'w\xa2\x10\x8e^o\xf6?'
p4437
tp4438
Rp4439
(dp4440
g4053
g12
(g16
S'\xb6kY\x86\x03r\xe6\xbf'
p4441
tp4442
Rp4443
sI14
Ntp4444
bsS'amp99340'
p4445
g6
(g7
g8
Ntp4446
Rp4447
(g1768
g12
(g16
S'\xa0\xae:\xec\x10]\x83?'
p4448
tp4449
Rp4450
I01
NI0
I1
Ng12
(g16
S'\xba\x18\xa9\x96\x16^L?'
p4451
tp4452
Rp4453
(dp4454
g1764
g12
(g16
S'6g6\xfe\xed.\xc1?'
p4455
tp4456
Rp4457
sg1756
g12
(g16
S'\x1d<\x85\xc2\x88i\xb1?'
p4458
tp4459
Rp4460
sg1772
g12
(g16
S'\xf3\x9e6\xc3\x9e\x01\xe4\xbf'
p4461
tp4462
Rp4463
sF0.5
Ntp4464
bsS'e'
p4465
F2.718281828459045
sS'amp93853'
p4466
g6
(g7
g8
Ntp4467
Rp4468
(g2832
g12
(g16
S'@\x002\x9c\xecR\x7f?'
p4469
tp4470
Rp4471
I01
NI0
I1
Ng12
(g16
S"\x93\xca\x82'\x14\x148?"
p4472
tp4473
Rp4474
(dp4475
g2840
g12
(g16
S'\xac\xabc\xbd\x0f\xa9\xe3\xbf'
p4476
tp4477
Rp4478
sg2836
g12
(g16
S'\xb4\xc1\xb2\xc0d\xfb\xc2?'
p4479
tp4480
Rp4481
sg2824
g12
(g16
S'X\x8db\xab14\xb6\xbf'
p4482
tp4483
Rp4484
sF0.5
Ntp4485
bsS'pos80093'
p4486
g6
(g7
g8
Ntp4487
Rp4488
(S'pos80093'
p4489
I80093
I00
NF-inf
Finf
NI0
NI80093
Ntp4490
bsS'width71876'
p4491
g6
(g7
g8
Ntp4492
Rp4493
(g1417
g12
(g16
S'\x8dD\xe7x\xf9\xff;@'
p4494
tp4495
Rp4496
I01
NI7
I28
Ng12
(g16
S'z\xc7+\x93\xe1~\x18@'
p4497
tp4498
Rp4499
(dp4500
g1409
g12
(g16
S'%\x8e\x10h\x9e\xd4\xdd\xbf'
p4501
tp4502
Rp4503
sg1413
g12
(g16
S'k-:\x05\xf5\x19\xd1?'
p4504
tp4505
Rp4506
sg1401
g12
(g16
S'\x14\x87\xb7)l\xc4\xd7\xbf'
p4507
tp4508
Rp4509
sI14
Ntp4510
bsS'amp104596'
p4511
g6
(g7
g8
Ntp4512
Rp4513
(S'amp104596'
p4514
g12
(g16
S'x&!E\xe3{\xa9?'
p4515
tp4516
Rp4517
I01
NI0
I1
NNNF0.5
Ntp4518
bsS'width98955'
p4519
g6
(g7
g8
Ntp4520
Rp4521
(g70
g12
(g16
S'\x93\x0ec\xff\xff\xff;@'
p4522
tp4523
Rp4524
I01
NI7
I28
Ng12
(g16
S'kU\xbc,\x85\xb4\xef?'
p4525
tp4526
Rp4527
(dp4528
g58
g12
(g16
S'\xba\x02]Bas\xe3\xbf'
p4529
tp4530
Rp4531
sg66
g12
(g16
S'\xda&\x1b8w\xa7\xd6\xbf'
p4532
tp4533
Rp4534
sg74
g12
(g16
S'v6\x0bh\xee\x11\xb9\xbf'
p4535
tp4536
Rp4537
sI14
Ntp4538
bsS'amp89871'
p4539
g6
(g7
g8
Ntp4540
Rp4541
(g1180
g12
(g16
S'\xa0\xebj$Y\xc0\x98?'
p4542
tp4543
Rp4544
I01
NI0
I1
Ng12
(g16
S'\xc2=+\xf4\x84\x10\\?'
p4545
tp4546
Rp4547
(dp4548
g1176
g12
(g16
S'}\xc9\\\xe0\xdb\xeb\xbe?'
p4549
tp4550
Rp4551
sg1168
g12
(g16
S'\xf4B\x19h\x87\xe2\xe1?'
p4552
tp4553
Rp4554
sg1184
g12
(g16
S'\xe7\xef\xabU\xa4\xbf\xd4\xbf'
p4555
tp4556
Rp4557
sF0.5
Ntp4558
bsS'nan'
p4559
Fnan
sS'width72519'
p4560
g6
(g7
g8
Ntp4561
Rp4562
(g480
g12
(g16
S'D3\xfd\xff\xff\xff;@'
p4563
tp4564
Rp4565
I01
NI7
I28
Ng12
(g16
S'\xd0/\x89\xef\x93v\xe6?'
p4566
tp4567
Rp4568
(dp4569
g472
g12
(g16
S'\xd4\x9c\x89WkR\xd1?'
p4570
tp4571
Rp4572
sg476
g12
(g16
S'\xd1\xb9\xe1\xa5\xb4W\x90\xbf'
p4573
tp4574
Rp4575
sg484
g12
(g16
S'\xbd1c\xc8B\x08\xd3?'
p4576
tp4577
Rp4578
sg488
g12
(g16
S's\xde\xb7\x1fe!\xc2\xbf'
p4579
tp4580
Rp4581
sg464
g12
(g16
S'K\x92\x89\xa9\xc9\x0b\xe6?'
p4582
tp4583
Rp4584
sg492
g12
(g16
S'\x89{\x01\xba\xb0s\xe5?'
p4585
tp4586
Rp4587
sg496
g12
(g16
S'\xce\xb2lE\xefu\xcf\xbf'
p4588
tp4589
Rp4590
sI14
Ntp4591
bsS'pos89992'
p4592
g6
(g7
g8
Ntp4593
Rp4594
(S'pos89992'
p4595
I89992
I00
NF-inf
Finf
NI0
NI89992
Ntp4596
bsS'amp104869'
p4597
g6
(g7
g8
Ntp4598
Rp4599
(g643
g12
(g16
S'\xc8\x8d\xff@k\x9d\xa5?'
p4600
tp4601
Rp4602
I01
NI0
I1
Ng12
(g16
S'\xf6SJ\x8a\xc6lq?'
p4603
tp4604
Rp4605
(dp4606
g635
g12
(g16
S'7i\x84J\xd3\xe3\xe6\xbf'
p4607
tp4608
Rp4609
sF0.5
Ntp4610
bsS'width95343'
p4611
g6
(g7
g8
Ntp4612
Rp4613
(g4200
g12
(g16
S'\x96\r\xf4\xff\xff\xff;@'
p4614
tp4615
Rp4616
I01
NI7
I28
Ng12
(g16
S'\xbb)\x13k\xaf\x95\xea?'
p4617
tp4618
Rp4619
(dp4620
g4192
g12
(g16
S'\x84P\xd4_\xa2\xe6\xe6\xbf'
p4621
tp4622
Rp4623
sI14
Ntp4624
bsS'amp67841'
p4625
g6
(g7
g8
Ntp4626
Rp4627
(S'amp67841'
p4628
g12
(g16
S'\x80\x88/sml\x88?'
p4629
tp4630
Rp4631
I01
NI0
I1
NNNF0.5
Ntp4632
bsS'width99230'
p4633
g6
(g7
g8
Ntp4634
Rp4635
(g199
g12
(g16
S'\xc2\x02N\xf8\xff\xff;@'
p4636
tp4637
Rp4638
I01
NI7
I28
Ng12
(g16
S'\x1d\xe4~H=\xd1\x11@'
p4639
tp4640
Rp4641
(dp4642
g195
g12
(g16
S'\xd2\x90\x10\xbe\xf8\xe3\xe1\xbf'
p4643
tp4644
Rp4645
sg187
g12
(g16
S'\x90\xbf\xe1n\xc5\xc0\xd4\xbf'
p4646
tp4647
Rp4648
sg203
g12
(g16
S'\xb1\xf7\x16J\x96\x11\xc2?'
p4649
tp4650
Rp4651
sI14
Ntp4652
bsS'width104290'
p4653
g6
(g7
g8
Ntp4654
Rp4655
(S'width104290'
p4656
g12
(g16
S'\x00\x00\x00\x00\x00\x00<@'
p4657
tp4658
Rp4659
I01
NI7
I28
NNNI14
Ntp4660
bsS'width99123'
p4661
g6
(g7
g8
Ntp4662
Rp4663
(g3944
g12
(g16
S'\xb8\x1d\x86\xf9\xff\xff;@'
p4664
tp4665
Rp4666
I01
NI7
I28
Ng12
(g16
S'7\xc4\xd0\xd9qQ\x01@'
p4667
tp4668
Rp4669
(dp4670
g3936
g12
(g16
S'2\x801(\x19\xe2\xe6\xbf'
p4671
tp4672
Rp4673
sI14
Ntp4674
bsS'width104202'
p4675
g6
(g7
g8
Ntp4676
Rp4677
(S'width104202'
p4678
g12
(g16
S'\x00\x00\x00\x00\x00\x00<@'
p4679
tp4680
Rp4681
I01
NI7
I28
NNNI14
Ntp4682
bsS'width72089'
p4683
g6
(g7
g8
Ntp4684
Rp4685
(g964
g12
(g16
S'\x92\xb3\xdb\xff\xff\xff;@'
p4686
tp4687
Rp4688
I01
NI7
I28
Ng12
(g16
S'\xe7;g\xecm\x97\xd8?'
p4689
tp4690
Rp4691
(dp4692
g960
g12
(g16
S'\xc8l\xc5\xe5~\xd0\xde?'
p4693
tp4694
Rp4695
sg952
g12
(g16
S'\xa0\x9fQ \xea\xac\xc6?'
p4696
tp4697
Rp4698
sg968
g12
(g16
S'\xd5\xd9\xac\xdc\x8c\x07\xb2?'
p4699
tp4700
Rp4701
sg972
g12
(g16
S'\x85\x82\x14\x1f^\xfc~?'
p4702
tp4703
Rp4704
sg976
g12
(g16
S'\xcc\xb1\xa4\xe3\x9bL\xae?'
p4705
tp4706
Rp4707
sI14
Ntp4708
bsS'pos90007'
p4709
g6
(g7
g8
Ntp4710
Rp4711
(S'pos90007'
p4712
I90007
I00
NF-inf
Finf
NI0
NI90007
Ntp4713
bsS'pos67531'
p4714
g6
(g7
g8
Ntp4715
Rp4716
(S'pos67531'
p4717
I67531
I00
NF-inf
Finf
NI0
NI67531
Ntp4718
bsS'width93542'
p4719
g6
(g7
g8
Ntp4720
Rp4721
(g2388
g12
(g16
S'\xe7-\xfb\xff\xff\xff;@'
p4722
tp4723
Rp4724
I01
NI7
I28
Ng12
(g16
S'\xf78.%\xca\xea\xf5?'
p4725
tp4726
Rp4727
(dp4728
g2384
g12
(g16
S'\x8a+\nLsD\xab\xbf'
p4729
tp4730
Rp4731
sg2392
g12
(g16
S'9\xd6*#\xd78\xd6\xbf'
p4732
tp4733
Rp4734
sg2376
g12
(g16
S'\x99\xb3\xe6>\x97a\xe4\xbf'
p4735
tp4736
Rp4737
sI14
Ntp4738
bsS'width95106'
p4739
g6
(g7
g8
Ntp4740
Rp4741
(g919
g12
(g16
S'/\xe9\xbb\xff\xff\xff;@'
p4742
tp4743
Rp4744
I01
NI7
I28
Ng12
(g16
S'\xf7\x12\x8e\xf3\x9b\xd3\xf6?'
p4745
tp4746
Rp4747
(dp4748
g911
g12
(g16
S'\t\x1b\xda%\xf1\xe2\xe6?'
p4749
tp4750
Rp4751
sI14
Ntp4752
bsS'width104945'
p4753
g6
(g7
g8
Ntp4754
Rp4755
(g1885
g12
(g16
S'\xba\xd1\x8a\xf7\xff\xff;@'
p4756
tp4757
Rp4758
I01
NI7
I28
Ng12
(g16
S'\xc3\xa8\x1d {\xbb\x16@'
p4759
tp4760
Rp4761
(dp4762
g1881
g12
(g16
S'F\x84\x9e\x02\xcc\x1e\xd3\xbf'
p4763
tp4764
Rp4765
sg1889
g12
(g16
S'\xe9\x05\x7f\x87GD\xe2\xbf'
p4766
tp4767
Rp4768
sg1873
g12
(g16
S'&\xe4\xefIT\xae\xc1\xbf'
p4769
tp4770
Rp4771
sI14
Ntp4772
bssS'params'
p4773
(lp4774
g6
(g7
g8
Ntp4775
Rp4776
(g2646
g6
(g7
g8
Ntp4777
Rp4778
(g2649
g12
(g16
S'\x00\t\xfd\x07\xd7\x82\x8f?'
p4779
tp4780
Rp4781
I01
NI0
I1
Ng12
(g16
S'+\xbc\xbe|\xf8\xf4;?'
p4782
tp4783
Rp4784
(dp4785
g2657
g12
(g16
S'\xd9\xe8JY\xc1\xd0\xe6\xbf'
p4786
tp4787
Rp4788
sF0.5
Ntp4789
bI01
NF-inf
Finf
NNNg4778
Ntp4790
bag6
(g7
g8
Ntp4791
Rp4792
(g3741
g6
(g7
g8
Ntp4793
Rp4794
(g2657
g12
(g16
S'\xcb\x0e\xea\x8f \xea7@'
p4795
tp4796
Rp4797
I01
NI7
I28
Ng12
(g16
S'a+\xe1"\xddA\xf0?'
p4798
tp4799
Rp4800
(dp4801
g2649
g12
(g16
S'\xd9\xe8JY\xc1\xd0\xe6\xbf'
p4802
tp4803
Rp4804
sI14
Ntp4805
bI01
NF-inf
Finf
NNNg4794
Ntp4806
bag6
(g7
g8
Ntp4807
Rp4808
(g4066
g6
(g7
g8
Ntp4809
Rp4810
(g4069
I58152
I00
NF-inf
Finf
NI0
NI58152
Ntp4811
bI00
NF-inf
Finf
NNNg4810
Ntp4812
bag6
(g7
g8
Ntp4813
Rp4814
(g738
g6
(g7
g8
Ntp4815
Rp4816
(g741
g12
(g16
S'@\xd64\xe8\t\xb4w?'
p4817
tp4818
Rp4819
I01
NI0
I1
Ng12
(g16
S'\xfc\xc7l\xfe\xcf\xdf&?'
p4820
tp4821
Rp4822
(dp4823
g749
g12
(g16
S'\xf2<\xac\xd6\xdd\xd1\xe6\xbf'
p4824
tp4825
Rp4826
sF0.5
Ntp4827
bI01
NF-inf
Finf
NNNg4816
Ntp4828
bag6
(g7
g8
Ntp4829
Rp4830
(g1343
g6
(g7
g8
Ntp4831
Rp4832
(g749
g12
(g16
S'\xd4\xb3\n4\xaf.8@'
p4833
tp4834
Rp4835
I01
NI7
I28
Ng12
(g16
S'F\xa2\x07J\xb5\xec\xf1?'
p4836
tp4837
Rp4838
(dp4839
g741
g12
(g16
S'\xf2<\xac\xd6\xdd\xd1\xe6\xbf'
p4840
tp4841
Rp4842
sI14
Ntp4843
bI01
NF-inf
Finf
NNNg4832
Ntp4844
bag6
(g7
g8
Ntp4845
Rp4846
(g3688
g6
(g7
g8
Ntp4847
Rp4848
(g3691
I67257
I00
NF-inf
Finf
NI0
NI67257
Ntp4849
bI00
NF-inf
Finf
NNNg4848
Ntp4850
bag6
(g7
g8
Ntp4851
Rp4852
(g2882
g6
(g7
g8
Ntp4853
Rp4854
(g163
g12
(g16
S'\x00\xcb\xfe9{\x18w?'
p4855
tp4856
Rp4857
I01
NI0
I1
Ng12
(g16
S'\xf0\xef\xe2\x9dq\xc6#?'
p4858
tp4859
Rp4860
(dp4861
g155
g12
(g16
S'}^\x1a\x9cy\xec\x80?'
p4862
tp4863
Rp4864
sg167
g12
(g16
S'\xbb!/\x0ed\x99\xc1?'
p4865
tp4866
Rp4867
sg171
g12
(g16
S'+J\xab\x872\xbf\xe1\xbf'
p4868
tp4869
Rp4870
sg175
g12
(g16
S'm+\xa4\x08\x95\xf0\xc2\xbf'
p4871
tp4872
Rp4873
sg179
g12
(g16
S'\xee-\xcdU\xc7o\xb8?'
p4874
tp4875
Rp4876
sF0.5
Ntp4877
bI01
NF-inf
Finf
NNNg4854
Ntp4878
bag6
(g7
g8
Ntp4879
Rp4880
(g2544
g6
(g7
g8
Ntp4881
Rp4882
(g171
g12
(g16
S'\x17T\x1d\x84\x16\x926@'
p4883
tp4884
Rp4885
I01
NI7
I28
Ng12
(g16
S'\x1f\n\xf6\x15\xf8\xb2\xf0?'
p4886
tp4887
Rp4888
(dp4889
g155
g12
(g16
S'E\x9c\xd1\x9a\xfb\x84\xb8?'
p4890
tp4891
Rp4892
sg167
g12
(g16
S'\xb7\xa8\xd6u\xeb\x8c\xba\xbf'
p4893
tp4894
Rp4895
sg163
g12
(g16
S'gJ\xab\x872\xbf\xe1\xbf'
p4896
tp4897
Rp4898
sg175
g12
(g16
S'D$9S\x8a\xa8\xda\xbf'
p4899
tp4900
Rp4901
sg179
g12
(g16
S'\xee\xa9\xc1\xa0J\x91\xc7?'
p4902
tp4903
Rp4904
sI14
Ntp4905
bI01
NF-inf
Finf
NNNg4882
Ntp4906
bag6
(g7
g8
Ntp4907
Rp4908
(g1838
g6
(g7
g8
Ntp4909
Rp4910
(g1841
I67351
I00
NF-inf
Finf
NI0
NI67351
Ntp4911
bI00
NF-inf
Finf
NNNg4910
Ntp4912
bag6
(g7
g8
Ntp4913
Rp4914
(g822
g6
(g7
g8
Ntp4915
Rp4916
(g167
g12
(g16
S'\xc0\x17,|\x81|y?'
p4917
tp4918
Rp4919
I01
NI0
I1
Ng12
(g16
S'\xf8q\x0e\x9f\x10\xff"?'
p4920
tp4921
Rp4922
(dp4923
g171
g12
(g16
S"'\xa6\xd6u\xeb\x8c\xba\xbf"
p4924
tp4925
Rp4926
sg175
g12
(g16
S'"5\t\'\xa0\x7f\xd6\xbf'
p4927
tp4928
Rp4929
sg163
g12
(g16
S'\xab!/\x0ed\x99\xc1?'
p4930
tp4931
Rp4932
sg155
g12
(g16
S'N\xd0\xde`\x11"\xd8\xbf'
p4933
tp4934
Rp4935
sg179
g12
(g16
S'\xb1\xf3|\xca\xb0-\xcc?'
p4936
tp4937
Rp4938
sF0.5
Ntp4939
bI01
NF-inf
Finf
NNNg4916
Ntp4940
bag6
(g7
g8
Ntp4941
Rp4942
(g501
g6
(g7
g8
Ntp4943
Rp4944
(g175
g12
(g16
S'ZCs\xfe\xff\xff;@'
p4945
tp4946
Rp4947
I01
NI7
I28
Ng12
(g16
S'\xe1\x83\xea\x92:{\xf5?'
p4948
tp4949
Rp4950
(dp4951
g171
g12
(g16
S'\x16&9S\x8a\xa8\xda\xbf'
p4952
tp4953
Rp4954
sg167
g12
(g16
S"\xfe4\t'\xa0\x7f\xd6\xbf"
p4955
tp4956
Rp4957
sg163
g12
(g16
S'\xae*\xa4\x08\x95\xf0\xc2\xbf'
p4958
tp4959
Rp4960
sg155
g12
(g16
S'Tc{\x91\xd8e\xd2\xbf'
p4961
tp4962
Rp4963
sg179
g12
(g16
S'\xc2\x97\x13\xa3\xc80\xdb\xbf'
p4964
tp4965
Rp4966
sI14
Ntp4967
bI01
NF-inf
Finf
NNNg4944
Ntp4968
bag6
(g7
g8
Ntp4969
Rp4970
(g308
g6
(g7
g8
Ntp4971
Rp4972
(g311
I67393
I00
NF-inf
Finf
NI0
NI67393
Ntp4973
bI00
NF-inf
Finf
NNNg4972
Ntp4974
bag6
(g7
g8
Ntp4975
Rp4976
(g2089
g6
(g7
g8
Ntp4977
Rp4978
(g179
g12
(g16
S'\x80\xbfrP\xf7\xb7\x80?'
p4979
tp4980
Rp4981
I01
NI0
I1
Ng12
(g16
S'\xbb\xf4\xaeE\xe7\x8d#?'
p4982
tp4983
Rp4984
(dp4985
g155
g12
(g16
S'1\x9b\x0e\xf3\x16T\xdb\xbf'
p4986
tp4987
Rp4988
sg171
g12
(g16
S'\xa3\xad\xc1\xa0J\x91\xc7?'
p4989
tp4990
Rp4991
sg167
g12
(g16
S'\xb6\xf2|\xca\xb0-\xcc?'
p4992
tp4993
Rp4994
sg163
g12
(g16
S"\x06'\xcdU\xc7o\xb8?"
p4995
tp4996
Rp4997
sg175
g12
(g16
S'\xff\x97\x13\xa3\xc80\xdb\xbf'
p4998
tp4999
Rp5000
sF0.5
Ntp5001
bI01
NF-inf
Finf
NNNg4978
Ntp5002
bag6
(g7
g8
Ntp5003
Rp5004
(g152
g6
(g7
g8
Ntp5005
Rp5006
(g155
g12
(g16
S'Ud\xf7\xff\xff\xff;@'
p5007
tp5008
Rp5009
I01
NI7
I28
Ng12
(g16
S'\xcbj\x8f\xbc\xabR\xec?'
p5010
tp5011
Rp5012
(dp5013
g171
g12
(g16
S'\xd0\x9c\xd1\x9a\xfb\x84\xb8?'
p5014
tp5015
Rp5016
sg167
g12
(g16
S'\xef\xcf\xde`\x11"\xd8\xbf'
p5017
tp5018
Rp5019
sg163
g12
(g16
S'\x82v\x1a\x9cy\xec\x80?'
p5020
tp5021
Rp5022
sg175
g12
(g16
S'|c{\x91\xd8e\xd2\xbf'
p5023
tp5024
Rp5025
sg179
g12
(g16
S'\x16\x9b\x0e\xf3\x16T\xdb\xbf'
p5026
tp5027
Rp5028
sI14
Ntp5029
bI01
NF-inf
Finf
NNNg5006
Ntp5030
bag6
(g7
g8
Ntp5031
Rp5032
(g3075
g6
(g7
g8
Ntp5033
Rp5034
(g3078
I67425
I00
NF-inf
Finf
NI0
NI67425
Ntp5035
bI00
NF-inf
Finf
NNNg5034
Ntp5036
bag6
(g7
g8
Ntp5037
Rp5038
(g3323
g6
(g7
g8
Ntp5039
Rp5040
(g899
g12
(g16
S'\x80\x99\x11q/\xaez?'
p5041
tp5042
Rp5043
I01
NI0
I1
Ng12
(g16
S' Aw\x10\x05\x036?'
p5044
tp5045
Rp5046
(dp5047
g891
g12
(g16
S'zL\x83\xdc\xa9\xc8\xbf?'
p5048
tp5049
Rp5050
sg883
g12
(g16
S'\xa3\xff}\x9e\xdb\xd0\xd1\xbf'
p5051
tp5052
Rp5053
sg871
g12
(g16
S'\x14>\xb7\xc3 +\xb5\xbf'
p5054
tp5055
Rp5056
sg887
g12
(g16
S')\xa2\xc6\x00\x98d\xa9\xbf'
p5057
tp5058
Rp5059
sg879
g12
(g16
S'\x89\x1d\x8d\xb9\xd8s\x82\xbf'
p5060
tp5061
Rp5062
sg895
g12
(g16
S'2s\xf18\x16\xb5\xdb\xbf'
p5063
tp5064
Rp5065
sg903
g12
(g16
S'\xde\xbaD\xee\xa2\xf9\xd0?'
p5066
tp5067
Rp5068
sF0.5
Ntp5069
bI01
NF-inf
Finf
NNNg5040
Ntp5070
bag6
(g7
g8
Ntp5071
Rp5072
(g3824
g6
(g7
g8
Ntp5073
Rp5074
(g883
g12
(g16
S'\xb4\xd7\xff\xff\xff\xff;@'
p5075
tp5076
Rp5077
I01
NI7
I28
Ng12
(g16
S'ad\xe4\x8d`W\xfc?'
p5078
tp5079
Rp5080
(dp5081
g891
g12
(g16
S' `t6\xaa=\xae?'
p5082
tp5083
Rp5084
sg871
g12
(g16
S'\t\xf82\xd8\x0c\x18\xd6\xbf'
p5085
tp5086
Rp5087
sg887
g12
(g16
S'\x1a\xb1\\\xab\x0b\xc1n\xbf'
p5088
tp5089
Rp5090
sg879
g12
(g16
S'!\x1e\x87\xdaM\x9c~\xbf'
p5091
tp5092
Rp5093
sg895
g12
(g16
S'6\x91p\xc6\xba\xfa\xda\xbf'
p5094
tp5095
Rp5096
sg899
g12
(g16
S'\x99\xff}\x9e\xdb\xd0\xd1\xbf'
p5097
tp5098
Rp5099
sg903
g12
(g16
S'\xf9\xe6\xd4\xdc-\x8e\xd4?'
p5100
tp5101
Rp5102
sI14
Ntp5103
bI01
NF-inf
Finf
NNNg5074
Ntp5104
bag6
(g7
g8
Ntp5105
Rp5106
(g432
g6
(g7
g8
Ntp5107
Rp5108
(g435
I67486
I00
NF-inf
Finf
NI0
NI67486
Ntp5109
bI00
NF-inf
Finf
NNNg5108
Ntp5110
bag6
(g7
g8
Ntp5111
Rp5112
(g868
g6
(g7
g8
Ntp5113
Rp5114
(g871
g12
(g16
S'@\x08\xa0.\xc40u?'
p5115
tp5116
Rp5117
I01
NI0
I1
Ng12
(g16
S'\x1c&\x14\xdf\xebpG?'
p5118
tp5119
Rp5120
(dp5121
g891
g12
(g16
S'\xf0:p\t&\x9b\xd9?'
p5122
tp5123
Rp5124
sg883
g12
(g16
S'\x10\xf82\xd8\x0c\x18\xd6\xbf'
p5125
tp5126
Rp5127
sg887
g12
(g16
S'\xd7n.\xcb\x9e\xdc\xd4\xbf'
p5128
tp5129
Rp5130
sg879
g12
(g16
S'\xb7\xb7^qI9\xe6\xbf'
p5131
tp5132
Rp5133
sg895
g12
(g16
S'}\xb3\xb6\x90k\x94\xdc?'
p5134
tp5135
Rp5136
sg899
g12
(g16
S'\xf8=\xb7\xc3 +\xb5\xbf'
p5137
tp5138
Rp5139
sg903
g12
(g16
S'L\xafg|\x9a\xc9\xea\xbf'
p5140
tp5141
Rp5142
sF0.5
Ntp5143
bI01
NF-inf
Finf
NNNg5114
Ntp5144
bag6
(g7
g8
Ntp5145
Rp5146
(g3656
g6
(g7
g8
Ntp5147
Rp5148
(g895
g12
(g16
S'\xd1<%\xff\xff\xff;@'
p5149
tp5150
Rp5151
I01
NI7
I28
Ng12
(g16
S'\xcb_R\xb3\xf3\xf5\t@'
p5152
tp5153
Rp5154
(dp5155
g891
g12
(g16
S'A\xcb\x94m\x8f\xc0\xa1?'
p5156
tp5157
Rp5158
sg883
g12
(g16
S'E\x91p\xc6\xba\xfa\xda\xbf'
p5159
tp5160
Rp5161
sg871
g12
(g16
S'\x7f\xb3\xb6\x90k\x94\xdc?'
p5162
tp5163
Rp5164
sg887
g12
(g16
S'\xe2\xe0\xeeI7N\x82?'
p5165
tp5166
Rp5167
sg879
g12
(g16
S'`\xe74\x8c\x7ft\xd7\xbf'
p5168
tp5169
Rp5170
sg899
g12
(g16
S'<s\xf18\x16\xb5\xdb\xbf'
p5171
tp5172
Rp5173
sg903
g12
(g16
S'W\x81\xd2\xe8\xaa\xa3\xe4\xbf'
p5174
tp5175
Rp5176
sI14
Ntp5177
bI01
NF-inf
Finf
NNNg5148
Ntp5178
bag6
(g7
g8
Ntp5179
Rp5180
(g1857
g6
(g7
g8
Ntp5181
Rp5182
(g1860
I67520
I00
NF-inf
Finf
NI0
NI67520
Ntp5183
bI00
NF-inf
Finf
NNNg5182
Ntp5184
bag6
(g7
g8
Ntp5185
Rp5186
(g1437
g6
(g7
g8
Ntp5187
Rp5188
(g903
g12
(g16
S'\xe0\xe7G\x7fn\xe8\x81?'
p5189
tp5190
Rp5191
I01
NI0
I1
Ng12
(g16
S'\x10\xdb\x84\x8e\x92EG?'
p5192
tp5193
Rp5194
(dp5195
g891
g12
(g16
S'\x1a\x0fj)\xf1\xbc\xc9\xbf'
p5196
tp5197
Rp5198
sg883
g12
(g16
S'\xe0\xe6\xd4\xdc-\x8e\xd4?'
p5199
tp5200
Rp5201
sg871
g12
(g16
S'C\xafg|\x9a\xc9\xea\xbf'
p5202
tp5203
Rp5204
sg887
g12
(g16
S'-O\xa3\xa8\xf7\x10\xd9?'
p5205
tp5206
Rp5207
sg879
g12
(g16
S'\xdeQ\x1fr,\xc6\xdf?'
p5208
tp5209
Rp5210
sg895
g12
(g16
S'M\x81\xd2\xe8\xaa\xa3\xe4\xbf'
p5211
tp5212
Rp5213
sg899
g12
(g16
S'\xde\xbaD\xee\xa2\xf9\xd0?'
p5214
tp5215
Rp5216
sF0.5
Ntp5217
bI01
NF-inf
Finf
NNNg5188
Ntp5218
bag6
(g7
g8
Ntp5219
Rp5220
(g3572
g6
(g7
g8
Ntp5221
Rp5222
(g879
g12
(g16
S'\xdc\xfa\xff\xff\xff\xff;@'
p5223
tp5224
Rp5225
I01
NI7
I28
Ng12
(g16
S'\xfc\x8b\xdc!Z-\xe9?'
p5226
tp5227
Rp5228
(dp5229
g883
g12
(g16
S'j\x15\x87\xdaM\x9c~\xbf'
p5230
tp5231
Rp5232
sg871
g12
(g16
S'\xbe\xb7^qI9\xe6\xbf'
p5233
tp5234
Rp5235
sg887
g12
(g16
S'pI\xeeg\xb5\xea\xd8?'
p5236
tp5237
Rp5238
sg891
g12
(g16
S'\xf5\xd2\xf4\x86\x00\xdb\xe1\xbf'
p5239
tp5240
Rp5241
sg895
g12
(g16
S'z\xe74\x8c\x7ft\xd7\xbf'
p5242
tp5243
Rp5244
sg899
g12
(g16
S':\x1d\x8d\xb9\xd8s\x82\xbf'
p5245
tp5246
Rp5247
sg903
g12
(g16
S'\xfdQ\x1fr,\xc6\xdf?'
p5248
tp5249
Rp5250
sI14
Ntp5251
bI01
NF-inf
Finf
NNNg5222
Ntp5252
bag6
(g7
g8
Ntp5253
Rp5254
(g4714
g6
(g7
g8
Ntp5255
Rp5256
(g4717
I67531
I00
NF-inf
Finf
NI0
NI67531
Ntp5257
bI00
NF-inf
Finf
NNNg5256
Ntp5258
bag6
(g7
g8
Ntp5259
Rp5260
(g3038
g6
(g7
g8
Ntp5261
Rp5262
(g891
g12
(g16
S' \xce<x\xf7/\x86?'
p5263
tp5264
Rp5265
I01
NI0
I1
Ng12
(g16
S'\x90\x06\xc9MW\x108?'
p5266
tp5267
Rp5268
(dp5269
g883
g12
(g16
S'\xa8\\t6\xaa=\xae?'
p5270
tp5271
Rp5272
sg871
g12
(g16
S'\x1f;p\t&\x9b\xd9?'
p5273
tp5274
Rp5275
sg887
g12
(g16
S')S\x00\xb3m\xc2\xc8?'
p5276
tp5277
Rp5278
sg879
g12
(g16
S'\xfc\xd2\xf4\x86\x00\xdb\xe1\xbf'
p5279
tp5280
Rp5281
sg895
g12
(g16
S't\xcd\x94m\x8f\xc0\xa1?'
p5282
tp5283
Rp5284
sg899
g12
(g16
S'\xb6L\x83\xdc\xa9\xc8\xbf?'
p5285
tp5286
Rp5287
sg903
g12
(g16
S'l\x0fj)\xf1\xbc\xc9\xbf'
p5288
tp5289
Rp5290
sF0.5
Ntp5291
bI01
NF-inf
Finf
NNNg5262
Ntp5292
bag6
(g7
g8
Ntp5293
Rp5294
(g1357
g6
(g7
g8
Ntp5295
Rp5296
(g887
g12
(g16
S'\x93G\xfb\xff\xff\xff;@'
p5297
tp5298
Rp5299
I01
NI7
I28
Ng12
(g16
S'\xa7gkB\x98\x9a\xbb?'
p5300
tp5301
Rp5302
(dp5303
g891
g12
(g16
S'#S\x00\xb3m\xc2\xc8?'
p5304
tp5305
Rp5306
sg883
g12
(g16
S't\xe8\\\xab\x0b\xc1n\xbf'
p5307
tp5308
Rp5309
sg871
g12
(g16
S'\xa4n.\xcb\x9e\xdc\xd4\xbf'
p5310
tp5311
Rp5312
sg879
g12
(g16
S'kI\xeeg\xb5\xea\xd8?'
p5313
tp5314
Rp5315
sg895
g12
(g16
S'\x0f\xe3\xeeI7N\x82?'
p5316
tp5317
Rp5318
sg899
g12
(g16
S'\\\xa1\xc6\x00\x98d\xa9\xbf'
p5319
tp5320
Rp5321
sg903
g12
(g16
S'\rO\xa3\xa8\xf7\x10\xd9?'
p5322
tp5323
Rp5324
sI14
Ntp5325
bI01
NF-inf
Finf
NNNg5296
Ntp5326
bag6
(g7
g8
Ntp5327
Rp5328
(g1338
g6
(g7
g8
Ntp5329
Rp5330
(g1341
I67562
I00
NF-inf
Finf
NI0
NI67562
Ntp5331
bI00
NF-inf
Finf
NNNg5330
Ntp5332
bag6
(g7
g8
Ntp5333
Rp5334
(g1521
g6
(g7
g8
Ntp5335
Rp5336
(g1524
g12
(g16
S'\xc0J\x08q \x95\x88?'
p5337
tp5338
Rp5339
I01
NI0
I1
NNNF0.5
Ntp5340
bI01
NF-inf
Finf
NNNg5336
Ntp5341
bag6
(g7
g8
Ntp5342
Rp5343
(g4302
g6
(g7
g8
Ntp5344
Rp5345
(g4305
g12
(g16
S'&KW\xfd\xff\xff;@'
p5346
tp5347
Rp5348
I01
NI7
I28
NNNI14
Ntp5349
bI01
NF-inf
Finf
NNNg5345
Ntp5350
bag6
(g7
g8
Ntp5351
Rp5352
(g4144
g6
(g7
g8
Ntp5353
Rp5354
(g4147
I67640
I00
NF-inf
Finf
NNNI67640
Ntp5355
bI00
NF-inf
Finf
NNNg5354
Ntp5356
bag6
(g7
g8
Ntp5357
Rp5358
(g809
g6
(g7
g8
Ntp5359
Rp5360
(g812
g12
(g16
S'\x80\x96\xbaQ\x89Bi?'
p5361
tp5362
Rp5363
I01
NI0
I1
NNNF0.5
Ntp5364
bI01
NF-inf
Finf
NNNg5360
Ntp5365
bag6
(g7
g8
Ntp5366
Rp5367
(g1075
g6
(g7
g8
Ntp5368
Rp5369
(g1078
g12
(g16
S'`L\xa3|\x94\x0e&@'
p5370
tp5371
Rp5372
I01
NI7
I28
NNNI14
Ntp5373
bI01
NF-inf
Finf
NNNg5369
Ntp5374
bag6
(g7
g8
Ntp5375
Rp5376
(g3514
g6
(g7
g8
Ntp5377
Rp5378
(g3517
I67654
I00
NF-inf
Finf
NNNI67654
Ntp5379
bI00
NF-inf
Finf
NNNg5378
Ntp5380
bag6
(g7
g8
Ntp5381
Rp5382
(g1979
g6
(g7
g8
Ntp5383
Rp5384
(g1982
g12
(g16
S'\xc0\xe0:\x1b!\x0c\x86?'
p5385
tp5386
Rp5387
I01
NI0
I1
NNNF0.5
Ntp5388
bI01
NF-inf
Finf
NNNg5384
Ntp5389
bag6
(g7
g8
Ntp5390
Rp5391
(g2129
g6
(g7
g8
Ntp5392
Rp5393
(g2132
g12
(g16
S'\x00\x00\x00\x00\x00\x00<@'
p5394
tp5395
Rp5396
I01
NI7
I28
NNNI14
Ntp5397
bI01
NF-inf
Finf
NNNg5393
Ntp5398
bag6
(g7
g8
Ntp5399
Rp5400
(g89
g6
(g7
g8
Ntp5401
Rp5402
(g92
I67673
I00
NF-inf
Finf
NNNI67673
Ntp5403
bI00
NF-inf
Finf
NNNg5402
Ntp5404
bag6
(g7
g8
Ntp5405
Rp5406
(g1971
g6
(g7
g8
Ntp5407
Rp5408
(g1974
g12
(g16
S'\x80*\xe8\x82\x92\xdf\x87?'
p5409
tp5410
Rp5411
I01
NI0
I1
NNNF0.5
Ntp5412
bI01
NF-inf
Finf
NNNg5408
Ntp5413
bag6
(g7
g8
Ntp5414
Rp5415
(g2622
g6
(g7
g8
Ntp5416
Rp5417
(g2625
g12
(g16
S'\x00\x00\x00\x00\x00\x00<@'
p5418
tp5419
Rp5420
I01
NI7
I28
NNNI14
Ntp5421
bI01
NF-inf
Finf
NNNg5417
Ntp5422
bag6
(g7
g8
Ntp5423
Rp5424
(g2877
g6
(g7
g8
Ntp5425
Rp5426
(g2880
I67705
I00
NF-inf
Finf
NNNI67705
Ntp5427
bI00
NF-inf
Finf
NNNg5426
Ntp5428
bag6
(g7
g8
Ntp5429
Rp5430
(g3628
g6
(g7
g8
Ntp5431
Rp5432
(g3631
g12
(g16
S'\xc0\xb2\xad\xd0\xf2\xed\x84?'
p5433
tp5434
Rp5435
I01
NI0
I1
NNNF0.5
Ntp5436
bI01
NF-inf
Finf
NNNg5432
Ntp5437
bag6
(g7
g8
Ntp5438
Rp5439
(g1534
g6
(g7
g8
Ntp5440
Rp5441
(g1537
g12
(g16
S'\x00\x00\x00\x00\x00\x00<@'
p5442
tp5443
Rp5444
I01
NI7
I28
NNNI14
Ntp5445
bI01
NF-inf
Finf
NNNg5441
Ntp5446
bag6
(g7
g8
Ntp5447
Rp5448
(g2808
g6
(g7
g8
Ntp5449
Rp5450
(g2811
I67766
I00
NF-inf
Finf
NNNI67766
Ntp5451
bI00
NF-inf
Finf
NNNg5450
Ntp5452
bag6
(g7
g8
Ntp5453
Rp5454
(g2638
g6
(g7
g8
Ntp5455
Rp5456
(g2641
g12
(g16
S'@\xd1Qp\xceX\x86?'
p5457
tp5458
Rp5459
I01
NI0
I1
NNNF0.5
Ntp5460
bI01
NF-inf
Finf
NNNg5456
Ntp5461
bag6
(g7
g8
Ntp5462
Rp5463
(g2908
g6
(g7
g8
Ntp5464
Rp5465
(g2911
g12
(g16
S'\x11s\xd3\xfe\xff\xff;@'
p5466
tp5467
Rp5468
I01
NI7
I28
NNNI14
Ntp5469
bI01
NF-inf
Finf
NNNg5465
Ntp5470
bag6
(g7
g8
Ntp5471
Rp5472
(g3735
g6
(g7
g8
Ntp5473
Rp5474
(g3738
I67798
I00
NF-inf
Finf
NNNI67798
Ntp5475
bI00
NF-inf
Finf
NNNg5474
Ntp5476
bag6
(g7
g8
Ntp5477
Rp5478
(g4625
g6
(g7
g8
Ntp5479
Rp5480
(g4628
g12
(g16
S'\x80\x88/sml\x88?'
p5481
tp5482
Rp5483
I01
NI0
I1
NNNF0.5
Ntp5484
bI01
NF-inf
Finf
NNNg5480
Ntp5485
bag6
(g7
g8
Ntp5486
Rp5487
(g134
g6
(g7
g8
Ntp5488
Rp5489
(g137
g12
(g16
S'xfZ\xf9\xff\xff;@'
p5490
tp5491
Rp5492
I01
NI7
I28
NNNI14
Ntp5493
bI01
NF-inf
Finf
NNNg5489
Ntp5494
bag6
(g7
g8
Ntp5495
Rp5496
(g3527
g6
(g7
g8
Ntp5497
Rp5498
(g3530
I67841
I00
NF-inf
Finf
NNNI67841
Ntp5499
bI00
NF-inf
Finf
NNNg5498
Ntp5500
bag6
(g7
g8
Ntp5501
Rp5502
(g2057
g6
(g7
g8
Ntp5503
Rp5504
(g1229
g12
(g16
S'@\xb8\xfc\xd3\xe7\xe2\x88?'
p5505
tp5506
Rp5507
I01
NI0
I1
Ng12
(g16
S'1#\xa2I\xb4\xd8@?'
p5508
tp5509
Rp5510
(dp5511
g1221
g12
(g16
S'\xf6\x03e\xb0#\xe2\xe6?'
p5512
tp5513
Rp5514
sF0.5
Ntp5515
bI01
NF-inf
Finf
NNNg5504
Ntp5516
bag6
(g7
g8
Ntp5517
Rp5518
(g1218
g6
(g7
g8
Ntp5519
Rp5520
(g1221
g12
(g16
S'\x00\x00\x00\x00\x00\x00<@'
p5521
tp5522
Rp5523
I01
NI7
I28
Ng12
(g16
S"'\xb5X\xb8\x1bR\x12?"
p5524
tp5525
Rp5526
(dp5527
g1229
g12
(g16
S'\xf6\x03e\xb0#\xe2\xe6?'
p5528
tp5529
Rp5530
sI14
Ntp5531
bI01
NF-inf
Finf
NNNg5520
Ntp5532
bag6
(g7
g8
Ntp5533
Rp5534
(g799
g6
(g7
g8
Ntp5535
Rp5536
(g802
I67934
I00
NF-inf
Finf
NI0
NI67934
Ntp5537
bI00
NF-inf
Finf
NNNg5536
Ntp5538
bag6
(g7
g8
Ntp5539
Rp5540
(g4119
g6
(g7
g8
Ntp5541
Rp5542
(g1409
g12
(g16
S'\x80gV\x93\xcb\xd0\x8e?'
p5543
tp5544
Rp5545
I01
NI0
I1
Ng12
(g16
S'`L\xe2N\xf7S`?'
p5546
tp5547
Rp5548
(dp5549
g1417
g12
(g16
S'(\x8e\x10h\x9e\xd4\xdd\xbf'
p5550
tp5551
Rp5552
sg1413
g12
(g16
S'\xa6\x9c\xb8#\x0e\xb6\xd7?'
p5553
tp5554
Rp5555
sg1401
g12
(g16
S'\xbfOj)6\x0e\xd0?'
p5556
tp5557
Rp5558
sF0.5
Ntp5559
bI01
NF-inf
Finf
NNNg5542
Ntp5560
bag6
(g7
g8
Ntp5561
Rp5562
(g4491
g6
(g7
g8
Ntp5563
Rp5564
(g1417
g12
(g16
S'\x8dD\xe7x\xf9\xff;@'
p5565
tp5566
Rp5567
I01
NI7
I28
Ng12
(g16
S'z\xc7+\x93\xe1~\x18@'
p5568
tp5569
Rp5570
(dp5571
g1409
g12
(g16
S'%\x8e\x10h\x9e\xd4\xdd\xbf'
p5572
tp5573
Rp5574
sg1413
g12
(g16
S'k-:\x05\xf5\x19\xd1?'
p5575
tp5576
Rp5577
sg1401
g12
(g16
S'\x14\x87\xb7)l\xc4\xd7\xbf'
p5578
tp5579
Rp5580
sI14
Ntp5581
bI01
NF-inf
Finf
NNNg5564
Ntp5582
bag6
(g7
g8
Ntp5583
Rp5584
(g1825
g6
(g7
g8
Ntp5585
Rp5586
(g1828
I71876
I00
NF-inf
Finf
NI0
NI71876
Ntp5587
bI00
NF-inf
Finf
NNNg5586
Ntp5588
bag6
(g7
g8
Ntp5589
Rp5590
(g1398
g6
(g7
g8
Ntp5591
Rp5592
(g1401
g12
(g16
S'\xf8j\xaem\xe3 \xa5?'
p5593
tp5594
Rp5595
I01
NI0
I1
Ng12
(g16
S"\x83f\xcb?'R`?"
p5596
tp5597
Rp5598
(dp5599
g1409
g12
(g16
S'\xbbOj)6\x0e\xd0?'
p5600
tp5601
Rp5602
sg1413
g12
(g16
S'\xcd|{\x7f\xf9\xc1\xdd?'
p5603
tp5604
Rp5605
sg1417
g12
(g16
S'\x10\x87\xb7)l\xc4\xd7\xbf'
p5606
tp5607
Rp5608
sF0.5
Ntp5609
bI01
NF-inf
Finf
NNNg5592
Ntp5610
bag6
(g7
g8
Ntp5611
Rp5612
(g2479
g6
(g7
g8
Ntp5613
Rp5614
(g1413
g12
(g16
S'd\x8a\xfc\xff\xff\xff;@'
p5615
tp5616
Rp5617
I01
NI7
I28
Ng12
(g16
S'\x14\xa6\x80t\x18\xe9\x04@'
p5618
tp5619
Rp5620
(dp5621
g1409
g12
(g16
S'\xa6\x9c\xb8#\x0e\xb6\xd7?'
p5622
tp5623
Rp5624
sg1401
g12
(g16
S'\xcd|{\x7f\xf9\xc1\xdd?'
p5625
tp5626
Rp5627
sg1417
g12
(g16
S'j-:\x05\xf5\x19\xd1?'
p5628
tp5629
Rp5630
sI14
Ntp5631
bI01
NF-inf
Finf
NNNg5614
Ntp5632
bag6
(g7
g8
Ntp5633
Rp5634
(g3609
g6
(g7
g8
Ntp5635
Rp5636
(g3612
I71908
I00
NF-inf
Finf
NI0
NI71908
Ntp5637
bI00
NF-inf
Finf
NNNg5636
Ntp5638
bag6
(g7
g8
Ntp5639
Rp5640
(g3297
g6
(g7
g8
Ntp5641
Rp5642
(g972
g12
(g16
S'\x90x\x1d\xcbo\xcf\x91?'
p5643
tp5644
Rp5645
I01
NI0
I1
Ng12
(g16
S"'\xda\xc5\xf0a\xdcV?"
p5646
tp5647
Rp5648
(dp5649
g964
g12
(g16
S'\x98\x86\x14\x1f^\xfc~?'
p5650
tp5651
Rp5652
sg968
g12
(g16
S'\x11\x8f\xd3\x81\xf9\xd1\xe7\xbf'
p5653
tp5654
Rp5655
sg952
g12
(g16
S'1+\xb92\xe7f\xe5?'
p5656
tp5657
Rp5658
sg960
g12
(g16
S"\xb7\x1aH\xc4x'\xc1\xbf"
p5659
tp5660
Rp5661
sg976
g12
(g16
S'\xb6\xdet\xd9I\xe9\xbd\xbf'
p5662
tp5663
Rp5664
sF0.5
Ntp5665
bI01
NF-inf
Finf
NNNg5642
Ntp5666
bag6
(g7
g8
Ntp5667
Rp5668
(g1945
g6
(g7
g8
Ntp5669
Rp5670
(g976
g12
(g16
S'\xb2\xbb\xcd\xfb\xff\xff;@'
p5671
tp5672
Rp5673
I01
NI7
I28
Ng12
(g16
S'M>A\xf4N[\xfd?'
p5674
tp5675
Rp5676
(dp5677
g964
g12
(g16
S'I\xb0\xa4\xe3\x9bL\xae?'
p5678
tp5679
Rp5680
sg968
g12
(g16
S'W.\xe1\xe2oR\xd4\xbf'
p5681
tp5682
Rp5683
sg952
g12
(g16
S'\xec$#\x8b\x0c\xe9\xd0?'
p5684
tp5685
Rp5686
sg960
g12
(g16
S'I\x066IQm\xdc\xbf'
p5687
tp5688
Rp5689
sg972
g12
(g16
S'\xbd\xe3t\xd9I\xe9\xbd\xbf'
p5690
tp5691
Rp5692
sI14
Ntp5693
bI01
NF-inf
Finf
NNNg5670
Ntp5694
bag6
(g7
g8
Ntp5695
Rp5696
(g2326
g6
(g7
g8
Ntp5697
Rp5698
(g2329
I72042
I00
NF-inf
Finf
NI0
NI72042
Ntp5699
bI00
NF-inf
Finf
NNNg5698
Ntp5700
bag6
(g7
g8
Ntp5701
Rp5702
(g3384
g6
(g7
g8
Ntp5703
Rp5704
(g960
g12
(g16
S'\x80\x8c\x8dt\x90\xef\x99?'
p5705
tp5706
Rp5707
I01
NI0
I1
Ng12
(g16
S'av\x95\xd3x\xa5U?'
p5708
tp5709
Rp5710
(dp5711
g964
g12
(g16
S'\xd6l\xc5\xe5~\xd0\xde?'
p5712
tp5713
Rp5714
sg952
g12
(g16
S'\xb2a\x12\xbb\xe8\xea\xd1\xbf'
p5715
tp5716
Rp5717
sg968
g12
(g16
S'\xaf\x87,\xd2\xcf\x18\xc8?'
p5718
tp5719
Rp5720
sg972
g12
(g16
S"\xa8\x19H\xc4x'\xc1\xbf"
p5721
tp5722
Rp5723
sg976
g12
(g16
S'[\x066IQm\xdc\xbf'
p5724
tp5725
Rp5726
sF0.5
Ntp5727
bI01
NF-inf
Finf
NNNg5704
Ntp5728
bag6
(g7
g8
Ntp5729
Rp5730
(g3474
g6
(g7
g8
Ntp5731
Rp5732
(g968
g12
(g16
S'\xe3\xfb\xf7\xff\xff\xff;@'
p5733
tp5734
Rp5735
I01
NI7
I28
Ng12
(g16
S'\x0e\x02Z\xeb\xd0\xbb\xf9?'
p5736
tp5737
Rp5738
(dp5739
g964
g12
(g16
S'\xe2\xd9\xac\xdc\x8c\x07\xb2?'
p5740
tp5741
Rp5742
sg952
g12
(g16
S'\x86\xb7A8\xe4M\xea\xbf'
p5743
tp5744
Rp5745
sg960
g12
(g16
S'\xb8\x88,\xd2\xcf\x18\xc8?'
p5746
tp5747
Rp5748
sg972
g12
(g16
S'\xcd\x8e\xd3\x81\xf9\xd1\xe7\xbf'
p5749
tp5750
Rp5751
sg976
g12
(g16
S'\xc1/\xe1\xe2oR\xd4\xbf'
p5752
tp5753
Rp5754
sI14
Ntp5755
bI01
NF-inf
Finf
NNNg5732
Ntp5756
bag6
(g7
g8
Ntp5757
Rp5758
(g2188
g6
(g7
g8
Ntp5759
Rp5760
(g2191
I72069
I00
NF-inf
Finf
NI0
NI72069
Ntp5761
bI00
NF-inf
Finf
NNNg5760
Ntp5762
bag6
(g7
g8
Ntp5763
Rp5764
(g949
g6
(g7
g8
Ntp5765
Rp5766
(g952
g12
(g16
S'pj\xeb\xf2\xaa\x96\x98?'
p5767
tp5768
Rp5769
I01
NI0
I1
Ng12
(g16
S'\x86v\xef\x9fM\x81[?'
p5770
tp5771
Rp5772
(dp5773
g968
g12
(g16
S'\x92\xb7A8\xe4M\xea\xbf'
p5774
tp5775
Rp5776
sg964
g12
(g16
S'\x8b\x9fQ \xea\xac\xc6?'
p5777
tp5778
Rp5779
sg960
g12
(g16
S'%b\x12\xbb\xe8\xea\xd1\xbf'
p5780
tp5781
Rp5782
sg972
g12
(g16
S'\xee*\xb92\xe7f\xe5?'
p5783
tp5784
Rp5785
sg976
g12
(g16
S'M&#\x8b\x0c\xe9\xd0?'
p5786
tp5787
Rp5788
sF0.5
Ntp5789
bI01
NF-inf
Finf
NNNg5766
Ntp5790
bag6
(g7
g8
Ntp5791
Rp5792
(g4683
g6
(g7
g8
Ntp5793
Rp5794
(g964
g12
(g16
S'\x92\xb3\xdb\xff\xff\xff;@'
p5795
tp5796
Rp5797
I01
NI7
I28
Ng12
(g16
S'\xe7;g\xecm\x97\xd8?'
p5798
tp5799
Rp5800
(dp5801
g968
g12
(g16
S'\xd5\xd9\xac\xdc\x8c\x07\xb2?'
p5802
tp5803
Rp5804
sg952
g12
(g16
S'\xa0\x9fQ \xea\xac\xc6?'
p5805
tp5806
Rp5807
sg960
g12
(g16
S'\xc8l\xc5\xe5~\xd0\xde?'
p5808
tp5809
Rp5810
sg972
g12
(g16
S'\x85\x82\x14\x1f^\xfc~?'
p5811
tp5812
Rp5813
sg976
g12
(g16
S'\xcc\xb1\xa4\xe3\x9bL\xae?'
p5814
tp5815
Rp5816
sI14
Ntp5817
bI01
NF-inf
Finf
NNNg5794
Ntp5818
bag6
(g7
g8
Ntp5819
Rp5820
(g303
g6
(g7
g8
Ntp5821
Rp5822
(g306
I72089
I00
NF-inf
Finf
NI0
NI72089
Ntp5823
bI00
NF-inf
Finf
NNNg5822
Ntp5824
bag6
(g7
g8
Ntp5825
Rp5826
(g2194
g6
(g7
g8
Ntp5827
Rp5828
(g249
g12
(g16
S'\xa0\x03\xcaM\x88\xea\x9e?'
p5829
tp5830
Rp5831
I01
NI0
I1
Ng12
(g16
S'\x1c\r\xe9\x07\x16Z\\?'
p5832
tp5833
Rp5834
(dp5835
g237
g12
(g16
S'?\xebe>\x10\x10\xac?'
p5836
tp5837
Rp5838
sg257
g12
(g16
S'(\xff\x1f\xfe\xcf\xed\xe7\xbf'
p5839
tp5840
Rp5841
sg253
g12
(g16
S'\xbe/\x01,\xd9p\xc5\xbf'
p5842
tp5843
Rp5844
sg245
g12
(g16
S'\x9d\xd3\x8e\x1ff\xab\xb2\xbf'
p5845
tp5846
Rp5847
sg261
g12
(g16
S'\x1b2\xd5\x90\xb9\xb3\xe4?'
p5848
tp5849
Rp5850
sF0.5
Ntp5851
bI01
NF-inf
Finf
NNNg5828
Ntp5852
bag6
(g7
g8
Ntp5853
Rp5854
(g981
g6
(g7
g8
Ntp5855
Rp5856
(g253
g12
(g16
S'\xe25O\xff\xff\xff;@'
p5857
tp5858
Rp5859
I01
NI7
I28
Ng12
(g16
S'\x87\xc8;\x97j\x08\x01@'
p5860
tp5861
Rp5862
(dp5863
g237
g12
(g16
S'\xc4\xb3\x16j\xd8\x01\x9d\xbf'
p5864
tp5865
Rp5866
sg257
g12
(g16
S'\xee\x81|\xee\xe0\xcb\xcf\xbf'
p5867
tp5868
Rp5869
sg261
g12
(g16
S'\x98\x0e\xf8\xfc\x8f9\xc7?'
p5870
tp5871
Rp5872
sg245
g12
(g16
S'o\xc3~\xb1o\xea\xdc\xbf'
p5873
tp5874
Rp5875
sg249
g12
(g16
S'\xa8/\x01,\xd9p\xc5\xbf'
p5876
tp5877
Rp5878
sI14
Ntp5879
bI01
NF-inf
Finf
NNNg5856
Ntp5880
bag6
(g7
g8
Ntp5881
Rp5882
(g685
g6
(g7
g8
Ntp5883
Rp5884
(g688
I72237
I00
NF-inf
Finf
NI0
NI72237
Ntp5885
bI00
NF-inf
Finf
NNNg5884
Ntp5886
bag6
(g7
g8
Ntp5887
Rp5888
(g387
g6
(g7
g8
Ntp5889
Rp5890
(g245
g12
(g16
S'@\xe4H\x8b\xbfP\x9a?'
p5891
tp5892
Rp5893
I01
NI0
I1
Ng12
(g16
S'\xea\\2_\xd7\x88Y?'
p5894
tp5895
Rp5896
(dp5897
g237
g12
(g16
S'm\x8d_\xc9\xe7\x0f\xdf\xbf'
p5898
tp5899
Rp5900
sg261
g12
(g16
S'/\xc9SWv\xa0\xc0\xbf'
p5901
tp5902
Rp5903
sg253
g12
(g16
S'q\xc3~\xb1o\xea\xdc\xbf'
p5904
tp5905
Rp5906
sg257
g12
(g16
S'\x11a }\xe4C\xb6?'
p5907
tp5908
Rp5909
sg249
g12
(g16
S'\xc9\xd3\x8e\x1ff\xab\xb2\xbf'
p5910
tp5911
Rp5912
sF0.5
Ntp5913
bI01
NF-inf
Finf
NNNg5890
Ntp5914
bag6
(g7
g8
Ntp5915
Rp5916
(g3755
g6
(g7
g8
Ntp5917
Rp5918
(g257
g12
(g16
S'z\xde\xc8\xff\xff\xff;@'
p5919
tp5920
Rp5921
I01
NI7
I28
Ng12
(g16
S'A"g({\x98\x10@'
p5922
tp5923
Rp5924
(dp5925
g237
g12
(g16
S'\t\x96\x87\xe3\x89b\xc0\xbf'
p5926
tp5927
Rp5928
sg261
g12
(g16
S'\x9b4t\xea 5\xe9\xbf'
p5929
tp5930
Rp5931
sg253
g12
(g16
S'\xd5\x81|\xee\xe0\xcb\xcf\xbf'
p5932
tp5933
Rp5934
sg245
g12
(g16
S'\xcc` }\xe4C\xb6?'
p5935
tp5936
Rp5937
sg249
g12
(g16
S'$\xff\x1f\xfe\xcf\xed\xe7\xbf'
p5938
tp5939
Rp5940
sI14
Ntp5941
bI01
NF-inf
Finf
NNNg5918
Ntp5942
bag6
(g7
g8
Ntp5943
Rp5944
(g1503
g6
(g7
g8
Ntp5945
Rp5946
(g1506
I72263
I00
NF-inf
Finf
NI0
NI72263
Ntp5947
bI00
NF-inf
Finf
NNNg5946
Ntp5948
bag6
(g7
g8
Ntp5949
Rp5950
(g3907
g6
(g7
g8
Ntp5951
Rp5952
(g261
g12
(g16
S"\x80't\xf6\xd9R\x91?"
p5953
tp5954
Rp5955
I01
NI0
I1
Ng12
(g16
S'P{\x8a\xfaA\xb8^?'
p5956
tp5957
Rp5958
(dp5959
g237
g12
(g16
S'\xf4\x9cL\xceJ\xaa\xc9\xbf'
p5960
tp5961
Rp5962
sg257
g12
(g16
S'\x974t\xea 5\xe9\xbf'
p5963
tp5964
Rp5965
sg253
g12
(g16
S'@\x0e\xf8\xfc\x8f9\xc7?'
p5966
tp5967
Rp5968
sg245
g12
(g16
S'\x07\xc9SWv\xa0\xc0\xbf'
p5969
tp5970
Rp5971
sg249
g12
(g16
S'\x192\xd5\x90\xb9\xb3\xe4?'
p5972
tp5973
Rp5974
sF0.5
Ntp5975
bI01
NF-inf
Finf
NNNg5952
Ntp5976
bag6
(g7
g8
Ntp5977
Rp5978
(g234
g6
(g7
g8
Ntp5979
Rp5980
(g237
g12
(g16
S'OF\x8e\xfb\xff\xff;@'
p5981
tp5982
Rp5983
I01
NI7
I28
Ng12
(g16
S'\xb7^-ZqS\x0e@'
p5984
tp5985
Rp5986
(dp5987
g257
g12
(g16
S'\x0e\x96\x87\xe3\x89b\xc0\xbf'
p5988
tp5989
Rp5990
sg261
g12
(g16
S'\xf3\x9cL\xceJ\xaa\xc9\xbf'
p5991
tp5992
Rp5993
sg253
g12
(g16
S'\xd5\xb1\x16j\xd8\x01\x9d\xbf'
p5994
tp5995
Rp5996
sg245
g12
(g16
S'\x84\x8d_\xc9\xe7\x0f\xdf\xbf'
p5997
tp5998
Rp5999
sg249
g12
(g16
S'\xe8\xeae>\x10\x10\xac?'
p6000
tp6001
Rp6002
sI14
Ntp6003
bI01
NF-inf
Finf
NNNg5980
Ntp6004
bag6
(g7
g8
Ntp6005
Rp6006
(g3287
g6
(g7
g8
Ntp6007
Rp6008
(g3290
I72286
I00
NF-inf
Finf
NI0
NI72286
Ntp6009
bI00
NF-inf
Finf
NNNg6008
Ntp6010
bag6
(g7
g8
Ntp6011
Rp6012
(g461
g6
(g7
g8
Ntp6013
Rp6014
(g464
g12
(g16
S"\x00u\xa6-\xa9'\x80?"
p6015
tp6016
Rp6017
I01
NI0
I1
Ng12
(g16
S'\x93\x1e\x1b\xb0\xf3xM?'
p6018
tp6019
Rp6020
(dp6021
g472
g12
(g16
S'\xf0\x1e9@\xc9\xf3\xca\xbf'
p6022
tp6023
Rp6024
sg476
g12
(g16
S'\xb7\xbe^Q\xd0\x7f\x8d?'
p6025
tp6026
Rp6027
sg480
g12
(g16
S'@\x92\x89\xa9\xc9\x0b\xe6?'
p6028
tp6029
Rp6030
sg484
g12
(g16
S'<\xfeU\x13\x9d\x1f\xc5?'
p6031
tp6032
Rp6033
sg488
g12
(g16
S'\x12\x8f\r\x1a\xc6w\xb2\xbf'
p6034
tp6035
Rp6036
sg492
g12
(g16
S'\xfdK\xe6\xd0\xeeE\xe0?'
p6037
tp6038
Rp6039
sg496
g12
(g16
S"a\x1e'\xdb\xcdK\xc0\xbf"
p6040
tp6041
Rp6042
sF0.5
Ntp6043
bI01
NF-inf
Finf
NNNg6014
Ntp6044
bag6
(g7
g8
Ntp6045
Rp6046
(g1777
g6
(g7
g8
Ntp6047
Rp6048
(g472
g12
(g16
S'.\xa3]\xc0\xff\xff;@'
p6049
tp6050
Rp6051
I01
NI7
I28
Ng12
(g16
S'\xd0V\xd9m|h\x10@'
p6052
tp6053
Rp6054
(dp6055
g476
g12
(g16
S'\x19R\xe2<\xd9\xf0\xa8?'
p6056
tp6057
Rp6058
sg480
g12
(g16
S'\xe1\x9c\x89WkR\xd1?'
p6059
tp6060
Rp6061
sg484
g12
(g16
S'k\x8c\x07<\xcd\xeb\xbc?'
p6062
tp6063
Rp6064
sg488
g12
(g16
S'`+\xe0\x00X\xf2\xda\xbf'
p6065
tp6066
Rp6067
sg464
g12
(g16
S'\xd2\x1e9@\xc9\xf3\xca\xbf'
p6068
tp6069
Rp6070
sg492
g12
(g16
S'\x84\x88\xca\xb4#i\xc9?'
p6071
tp6072
Rp6073
sg496
g12
(g16
S'5g\xa9\xc9z\xeb\xbe\xbf'
p6074
tp6075
Rp6076
sI14
Ntp6077
bI01
NF-inf
Finf
NNNg6048
Ntp6078
bag6
(g7
g8
Ntp6079
Rp6080
(g4139
g6
(g7
g8
Ntp6081
Rp6082
(g4142
I72492
I00
NF-inf
Finf
NI0
NI72492
Ntp6083
bI00
NF-inf
Finf
NNNg6082
Ntp6084
bag6
(g7
g8
Ntp6085
Rp6086
(g2442
g6
(g7
g8
Ntp6087
Rp6088
(g488
g12
(g16
S'pWo\x7f\xa6\xd5\x98?'
p6089
tp6090
Rp6091
I01
NI0
I1
Ng12
(g16
S'<\x84+\xb7\xdb2R?'
p6092
tp6093
Rp6094
(dp6095
g472
g12
(g16
S'I+\xe0\x00X\xf2\xda\xbf'
p6096
tp6097
Rp6098
sg476
g12
(g16
S'\xd0\x82^\x9337\x97\xbf'
p6099
tp6100
Rp6101
sg480
g12
(g16
S'\xc3\xde\xb7\x1fe!\xc2\xbf'
p6102
tp6103
Rp6104
sg484
g12
(g16
S'\x9dc"\xd1$\x97\xe7\xbf'
p6105
tp6106
Rp6107
sg464
g12
(g16
S'\x00\x90\r\x1a\xc6w\xb2\xbf'
p6108
tp6109
Rp6110
sg492
g12
(g16
S'n\x85\x89\xab\xec[\xd2\xbf'
p6111
tp6112
Rp6113
sg496
g12
(g16
S'\xbb\xa2D\xea\xc6\xdc\xe4?'
p6114
tp6115
Rp6116
sF0.5
Ntp6117
bI01
NF-inf
Finf
NNNg6088
Ntp6118
bag6
(g7
g8
Ntp6119
Rp6120
(g4560
g6
(g7
g8
Ntp6121
Rp6122
(g480
g12
(g16
S'D3\xfd\xff\xff\xff;@'
p6123
tp6124
Rp6125
I01
NI7
I28
Ng12
(g16
S'\xd0/\x89\xef\x93v\xe6?'
p6126
tp6127
Rp6128
(dp6129
g472
g12
(g16
S'\xd4\x9c\x89WkR\xd1?'
p6130
tp6131
Rp6132
sg476
g12
(g16
S'\xd1\xb9\xe1\xa5\xb4W\x90\xbf'
p6133
tp6134
Rp6135
sg484
g12
(g16
S'\xbd1c\xc8B\x08\xd3?'
p6136
tp6137
Rp6138
sg488
g12
(g16
S's\xde\xb7\x1fe!\xc2\xbf'
p6139
tp6140
Rp6141
sg464
g12
(g16
S'K\x92\x89\xa9\xc9\x0b\xe6?'
p6142
tp6143
Rp6144
sg492
g12
(g16
S'\x89{\x01\xba\xb0s\xe5?'
p6145
tp6146
Rp6147
sg496
g12
(g16
S'\xce\xb2lE\xefu\xcf\xbf'
p6148
tp6149
Rp6150
sI14
Ntp6151
bI01
NF-inf
Finf
NNNg6122
Ntp6152
bag6
(g7
g8
Ntp6153
Rp6154
(g2422
g6
(g7
g8
Ntp6155
Rp6156
(g2425
I72519
I00
NF-inf
Finf
NI0
NI72519
Ntp6157
bI00
NF-inf
Finf
NNNg6156
Ntp6158
bag6
(g7
g8
Ntp6159
Rp6160
(g4310
g6
(g7
g8
Ntp6161
Rp6162
(g492
g12
(g16
S' -K\x18\x94a\x96?'
p6163
tp6164
Rp6165
I01
NI0
I1
Ng12
(g16
S'G\xb4\xc3\xbf\xc2IR?'
p6166
tp6167
Rp6168
(dp6169
g472
g12
(g16
S'x\x88\xca\xb4#i\xc9?'
p6170
tp6171
Rp6172
sg476
g12
(g16
S'\x8bb@Umd\xda?'
p6173
tp6174
Rp6175
sg480
g12
(g16
S'\x8b{\x01\xba\xb0s\xe5?'
p6176
tp6177
Rp6178
sg484
g12
(g16
S'V\xcc\x0b\xe8C\xa8\xd0?'
p6179
tp6180
Rp6181
sg488
g12
(g16
S'[\x85\x89\xab\xec[\xd2\xbf'
p6182
tp6183
Rp6184
sg464
g12
(g16
S'\x0eL\xe6\xd0\xeeE\xe0?'
p6185
tp6186
Rp6187
sg496
g12
(g16
S'lAoH\xd5t\xd3\xbf'
p6188
tp6189
Rp6190
sF0.5
Ntp6191
bI01
NF-inf
Finf
NNNg6162
Ntp6192
bag6
(g7
g8
Ntp6193
Rp6194
(g1588
g6
(g7
g8
Ntp6195
Rp6196
(g484
g12
(g16
S'\xf8\xff\xff\xff\xff\xff;@'
p6197
tp6198
Rp6199
I01
NI7
I28
Ng12
(g16
S'\xbcM\x0f\xcb\x0e\x8c\xe9?'
p6200
tp6201
Rp6202
(dp6203
g472
g12
(g16
S'\xc3\x8b\x07<\xcd\xeb\xbc?'
p6204
tp6205
Rp6206
sg476
g12
(g16
S'\x17\x1f\xe1\\d\x80\xb2?'
p6207
tp6208
Rp6209
sg480
g12
(g16
S'\xe61c\xc8B\x08\xd3?'
p6210
tp6211
Rp6212
sg488
g12
(g16
S'\x8ac"\xd1$\x97\xe7\xbf'
p6213
tp6214
Rp6215
sg464
g12
(g16
S'\xc5\xfeU\x13\x9d\x1f\xc5?'
p6216
tp6217
Rp6218
sg492
g12
(g16
S'e\xcc\x0b\xe8C\xa8\xd0?'
p6219
tp6220
Rp6221
sg496
g12
(g16
S'*\x00\xe9\xe9\x87{\xe9\xbf'
p6222
tp6223
Rp6224
sI14
Ntp6225
bI01
NF-inf
Finf
NNNg6196
Ntp6226
bag6
(g7
g8
Ntp6227
Rp6228
(g2163
g6
(g7
g8
Ntp6229
Rp6230
(g2166
I72545
I00
NF-inf
Finf
NI0
NI72545
Ntp6231
bI00
NF-inf
Finf
NNNg6230
Ntp6232
bag6
(g7
g8
Ntp6233
Rp6234
(g3108
g6
(g7
g8
Ntp6235
Rp6236
(g496
g12
(g16
S' C\x9e@\xf9\x10\x8d?'
p6237
tp6238
Rp6239
I01
NI0
I1
Ng12
(g16
S'O\xf1\xee\xeeo\tR?'
p6240
tp6241
Rp6242
(dp6243
g472
g12
(g16
S'\xb6f\xa9\xc9z\xeb\xbe\xbf'
p6244
tp6245
Rp6246
sg476
g12
(g16
S'\x89\nQ\x17\xd0\x7f\xca?'
p6247
tp6248
Rp6249
sg480
g12
(g16
S'\x13\xb3lE\xefu\xcf\xbf'
p6250
tp6251
Rp6252
sg484
g12
(g16
S'&\x00\xe9\xe9\x87{\xe9\xbf'
p6253
tp6254
Rp6255
sg488
g12
(g16
S'\xae\xa2D\xea\xc6\xdc\xe4?'
p6256
tp6257
Rp6258
sg464
g12
(g16
S"\xd7\x1e'\xdb\xcdK\xc0\xbf"
p6259
tp6260
Rp6261
sg492
g12
(g16
S'hAoH\xd5t\xd3\xbf'
p6262
tp6263
Rp6264
sF0.5
Ntp6265
bI01
NF-inf
Finf
NNNg6236
Ntp6266
bag6
(g7
g8
Ntp6267
Rp6268
(g2710
g6
(g7
g8
Ntp6269
Rp6270
(g476
g12
(g16
S'0%\xe4\xff\xff\xff;@'
p6271
tp6272
Rp6273
I01
NI7
I28
Ng12
(g16
S'\x92\x83\xc8\xdf\xaa\xf1\xda?'
p6274
tp6275
Rp6276
(dp6277
g472
g12
(g16
S'\x19R\xe2<\xd9\xf0\xa8?'
p6278
tp6279
Rp6280
sg480
g12
(g16
S'D\xb9\xe1\xa5\xb4W\x90\xbf'
p6281
tp6282
Rp6283
sg484
g12
(g16
S't\x1f\xe1\\d\x80\xb2?'
p6284
tp6285
Rp6286
sg488
g12
(g16
S'\xae\x83^\x9337\x97\xbf'
p6287
tp6288
Rp6289
sg464
g12
(g16
S'Z\xc1^Q\xd0\x7f\x8d?'
p6290
tp6291
Rp6292
sg492
g12
(g16
S'\x9cb@Umd\xda?'
p6293
tp6294
Rp6295
sg496
g12
(g16
S'\x1b\nQ\x17\xd0\x7f\xca?'
p6296
tp6297
Rp6298
sI14
Ntp6299
bI01
NF-inf
Finf
NNNg6270
Ntp6300
bag6
(g7
g8
Ntp6301
Rp6302
(g562
g6
(g7
g8
Ntp6303
Rp6304
(g565
I72566
I00
NF-inf
Finf
NI0
NI72566
Ntp6305
bI00
NF-inf
Finf
NNNg6304
Ntp6306
bag6
(g7
g8
Ntp6307
Rp6308
(g2662
g6
(g7
g8
Ntp6309
Rp6310
(g2231
g12
(g16
S'\xc0N\xe8\xd8\x08\x92\x8b?'
p6311
tp6312
Rp6313
I01
NI0
I1
Ng12
(g16
S'`\x926\xb2\xaa\xaa7?'
p6314
tp6315
Rp6316
(dp6317
g2235
g12
(g16
S'Z\xfd\x99D6+\xe4\xbf'
p6318
tp6319
Rp6320
sg2223
g12
(g16
S'9\x86\x02\xd4"\x88\xae\xbf'
p6321
tp6322
Rp6323
sg2239
g12
(g16
S'5\xba\x98LWY\xc0?'
p6324
tp6325
Rp6326
sF0.5
Ntp6327
bI01
NF-inf
Finf
NNNg6310
Ntp6328
bag6
(g7
g8
Ntp6329
Rp6330
(g2575
g6
(g7
g8
Ntp6331
Rp6332
(g2235
g12
(g16
S'M\xe7\\\xfe\xff\xff;@'
p6333
tp6334
Rp6335
I01
NI7
I28
Ng12
(g16
S'\x9f[IP\xe5\xa6\xf4?'
p6336
tp6337
Rp6338
(dp6339
g2231
g12
(g16
S'Y\xfd\x99D6+\xe4\xbf'
p6340
tp6341
Rp6342
sg2223
g12
(g16
S'\x9cI\x9e\x0b\xbbO\xd6\xbf'
p6343
tp6344
Rp6345
sg2239
g12
(g16
S'E\x18\x06d\x93\x8b\xae\xbf'
p6346
tp6347
Rp6348
sI14
Ntp6349
bI01
NF-inf
Finf
NNNg6332
Ntp6350
bag6
(g7
g8
Ntp6351
Rp6352
(g2264
g6
(g7
g8
Ntp6353
Rp6354
(g2267
I79752
I00
NF-inf
Finf
NI0
NI79752
Ntp6355
bI00
NF-inf
Finf
NNNg6354
Ntp6356
bag6
(g7
g8
Ntp6357
Rp6358
(g4030
g6
(g7
g8
Ntp6359
Rp6360
(g2239
g12
(g16
S'\x00\xdb~\x8b@\t\x91?'
p6361
tp6362
Rp6363
I01
NI0
I1
Ng12
(g16
S'\n\xae\xa8\xfb\xe6\xaa7?'
p6364
tp6365
Rp6366
(dp6367
g2231
g12
(g16
S"'\xba\x98LWY\xc0?"
p6368
tp6369
Rp6370
sg2235
g12
(g16
S'}\x18\x06d\x93\x8b\xae\xbf'
p6371
tp6372
Rp6373
sg2223
g12
(g16
S'kc\xc42W+\xe4\xbf'
p6374
tp6375
Rp6376
sF0.5
Ntp6377
bI01
NF-inf
Finf
NNNg6360
Ntp6378
bag6
(g7
g8
Ntp6379
Rp6380
(g2220
g6
(g7
g8
Ntp6381
Rp6382
(g2223
g12
(g16
S'\x0f\xad\xce\xfe\xff\xff;@'
p6383
tp6384
Rp6385
I01
NI7
I28
Ng12
(g16
S'\x11\xd53\xbc\x9c\xb9\xf0?'
p6386
tp6387
Rp6388
(dp6389
g2231
g12
(g16
S'%\x86\x02\xd4"\x88\xae\xbf'
p6390
tp6391
Rp6392
sg2235
g12
(g16
S'\x96I\x9e\x0b\xbbO\xd6\xbf'
p6393
tp6394
Rp6395
sg2239
g12
(g16
S'mc\xc42W+\xe4\xbf'
p6396
tp6397
Rp6398
sI14
Ntp6399
bI01
NF-inf
Finf
NNNg6382
Ntp6400
bag6
(g7
g8
Ntp6401
Rp6402
(g4297
g6
(g7
g8
Ntp6403
Rp6404
(g4300
I79803
I00
NF-inf
Finf
NI0
NI79803
Ntp6405
bI00
NF-inf
Finf
NNNg6404
Ntp6406
bag6
(g7
g8
Ntp6407
Rp6408
(g1007
g6
(g7
g8
Ntp6409
Rp6410
(g1010
g12
(g16
S'pv\tu\x92\x11\x90?'
p6411
tp6412
Rp6413
I01
NI0
I1
Ng12
(g16
S'\xa1M\xab\x02\xe0\xa6D?'
p6414
tp6415
Rp6416
(dp6417
g1026
g12
(g16
S'\xe8\x1c\xd7\x15*\xeb\x7f?'
p6418
tp6419
Rp6420
sg1018
g12
(g16
S'\xe5w\x14\\\x90\xb7\xa3?'
p6421
tp6422
Rp6423
sg1022
g12
(g16
S"\xf2T%\xde'\xbf\xb2\xbf"
p6424
tp6425
Rp6426
sg1034
g12
(g16
S'TJ\x14\x7fD\xb4\xe3\xbf'
p6427
tp6428
Rp6429
sg1030
g12
(g16
S'\x95\x16\x01@dr\xc1?'
p6430
tp6431
Rp6432
sF0.5
Ntp6433
bI01
NF-inf
Finf
NNNg6410
Ntp6434
bag6
(g7
g8
Ntp6435
Rp6436
(g1542
g6
(g7
g8
Ntp6437
Rp6438
(g1034
g12
(g16
S'\xc3$\xfa\xff\xff\xff;@'
p6439
tp6440
Rp6441
I01
NI7
I28
Ng12
(g16
S'\x9eoI1{e\xff?'
p6442
tp6443
Rp6444
(dp6445
g1026
g12
(g16
S'\xa7#\x88\xcei\xba\xbd?'
p6446
tp6447
Rp6448
sg1018
g12
(g16
S'\xab\x82\xa2\xdecDh?'
p6449
tp6450
Rp6451
sg1022
g12
(g16
S'\r\x14\x92\\\xa8x\xd7\xbf'
p6452
tp6453
Rp6454
sg1010
g12
(g16
S'SJ\x14\x7fD\xb4\xe3\xbf'
p6455
tp6456
Rp6457
sg1030
g12
(g16
S'\x12\xe7\xe5r;6\xb8\xbf'
p6458
tp6459
Rp6460
sI14
Ntp6461
bI01
NF-inf
Finf
NNNg6438
Ntp6462
bag6
(g7
g8
Ntp6463
Rp6464
(g4091
g6
(g7
g8
Ntp6465
Rp6466
(g4094
I79873
I00
NF-inf
Finf
NI0
NI79873
Ntp6467
bI00
NF-inf
Finf
NNNg6466
Ntp6468
bag6
(g7
g8
Ntp6469
Rp6470
(g3856
g6
(g7
g8
Ntp6471
Rp6472
(g1030
g12
(g16
S"`\xa92E'\x89\x9f?"
p6473
tp6474
Rp6475
I01
NI0
I1
Ng12
(g16
S'\x8b`cE\xcc\x97D?'
p6476
tp6477
Rp6478
(dp6479
g1018
g12
(g16
S'\x18>\xb6+:\r\xc2?'
p6480
tp6481
Rp6482
sg1034
g12
(g16
S'*\xe7\xe5r;6\xb8\xbf'
p6483
tp6484
Rp6485
sg1022
g12
(g16
S',Sk\xa0\xd7\xa4\xe0\xbf'
p6486
tp6487
Rp6488
sg1010
g12
(g16
S'\x9c\x16\x01@dr\xc1?'
p6489
tp6490
Rp6491
sg1026
g12
(g16
S'\xcc\x9f\xc2=S\xf5\xb9\xbf'
p6492
tp6493
Rp6494
sF0.5
Ntp6495
bI01
NF-inf
Finf
NNNg6472
Ntp6496
bag6
(g7
g8
Ntp6497
Rp6498
(g3959
g6
(g7
g8
Ntp6499
Rp6500
(g1022
g12
(g16
S'\xd2%r\xfa\xff\xff;@'
p6501
tp6502
Rp6503
I01
NI7
I28
Ng12
(g16
S'ttKq\xc0!\xf1?'
p6504
tp6505
Rp6506
(dp6507
g1018
g12
(g16
S'>\x1a\xb2s\xe7\x1b\xb4\xbf'
p6508
tp6509
Rp6510
sg1034
g12
(g16
S'\xfc\x13\x92\\\xa8x\xd7\xbf'
p6511
tp6512
Rp6513
sg1026
g12
(g16
S'\x18\xa7X\xea$\xd1\xd6\xbf'
p6514
tp6515
Rp6516
sg1010
g12
(g16
S"\x1eU%\xde'\xbf\xb2\xbf"
p6517
tp6518
Rp6519
sg1030
g12
(g16
S'(Sk\xa0\xd7\xa4\xe0\xbf'
p6520
tp6521
Rp6522
sI14
Ntp6523
bI01
NF-inf
Finf
NNNg6500
Ntp6524
bag6
(g7
g8
Ntp6525
Rp6526
(g527
g6
(g7
g8
Ntp6527
Rp6528
(g530
I79922
I00
NF-inf
Finf
NI0
NI79922
Ntp6529
bI00
NF-inf
Finf
NNNg6528
Ntp6530
bag6
(g7
g8
Ntp6531
Rp6532
(g1083
g6
(g7
g8
Ntp6533
Rp6534
(g1018
g12
(g16
S'\xe0H\x9e\xbc\x02\xfe\x94?'
p6535
tp6536
Rp6537
I01
NI0
I1
Ng12
(g16
S'\xe6\xd3\xf5\x82\xd5YD?'
p6538
tp6539
Rp6540
(dp6541
g1026
g12
(g16
S'\xa7/U\xe7\xean\xe3\xbf'
p6542
tp6543
Rp6544
sg1034
g12
(g16
S'\x9b\x95\xa2\xdecDh?'
p6545
tp6546
Rp6547
sg1022
g12
(g16
S'\xb1\x19\xb2s\xe7\x1b\xb4\xbf'
p6548
tp6549
Rp6550
sg1010
g12
(g16
S'\xddx\x14\\\x90\xb7\xa3?'
p6551
tp6552
Rp6553
sg1030
g12
(g16
S'\x04>\xb6+:\r\xc2?'
p6554
tp6555
Rp6556
sF0.5
Ntp6557
bI01
NF-inf
Finf
NNNg6534
Ntp6558
bag6
(g7
g8
Ntp6559
Rp6560
(g1636
g6
(g7
g8
Ntp6561
Rp6562
(g1026
g12
(g16
S'\xa3\xfd\xff\xff\xff\xff;@'
p6563
tp6564
Rp6565
I01
NI7
I28
Ng12
(g16
S'\x8e\xcd\xf6\x957\x95\xf9?'
p6566
tp6567
Rp6568
(dp6569
g1018
g12
(g16
S'\xa6/U\xe7\xean\xe3\xbf'
p6570
tp6571
Rp6572
sg1034
g12
(g16
S'D#\x88\xcei\xba\xbd?'
p6573
tp6574
Rp6575
sg1022
g12
(g16
S'\x1c\xa7X\xea$\xd1\xd6\xbf'
p6576
tp6577
Rp6578
sg1010
g12
(g16
S':\x1c\xd7\x15*\xeb\x7f?'
p6579
tp6580
Rp6581
sg1030
g12
(g16
S'\xeb\x9f\xc2=S\xf5\xb9\xbf'
p6582
tp6583
Rp6584
sI14
Ntp6585
bI01
NF-inf
Finf
NNNg6562
Ntp6586
bag6
(g7
g8
Ntp6587
Rp6588
(g2150
g6
(g7
g8
Ntp6589
Rp6590
(g2153
I79972
I00
NF-inf
Finf
NI0
NI79972
Ntp6591
bI00
NF-inf
Finf
NNNg6590
Ntp6592
bag6
(g7
g8
Ntp6593
Rp6594
(g754
g6
(g7
g8
Ntp6595
Rp6596
(g757
g12
(g16
S'0;\xaa\x13\x88\xe4\x94?'
p6597
tp6598
Rp6599
I01
NI0
I1
Ng12
(g16
S'\x99\x06\xc5\xa7\xcc\xaeG?'
p6600
tp6601
Rp6602
(dp6603
g765
g12
(g16
S'\xbc\xa7\x96\xf1\x8a\x9d\xbe?'
p6604
tp6605
Rp6606
sg769
g12
(g16
S'\xfa\xb7\xa1\xc7\xf5W\xe4\xbf'
p6607
tp6608
Rp6609
sg773
g12
(g16
S'\xdb6\xd5\x1a8)\xa9\xbf'
p6610
tp6611
Rp6612
sF0.5
Ntp6613
bI01
NF-inf
Finf
NNNg6596
Ntp6614
bag6
(g7
g8
Ntp6615
Rp6616
(g2017
g6
(g7
g8
Ntp6617
Rp6618
(g769
g12
(g16
S'\n\x97\xf2\xf3\xff\xff;@'
p6619
tp6620
Rp6621
I01
NI7
I28
Ng12
(g16
S'\x0f\xba\xda>\x96+\xfb?'
p6622
tp6623
Rp6624
(dp6625
g765
g12
(g16
S'b\xddC\xcb\xe0\x02\xaa\xbf'
p6626
tp6627
Rp6628
sg757
g12
(g16
S'\xfc\xb7\xa1\xc7\xf5W\xe4\xbf'
p6629
tp6630
Rp6631
sg773
g12
(g16
S'\x16\x12\xb1\xc8A6\xd6\xbf'
p6632
tp6633
Rp6634
sI14
Ntp6635
bI01
NF-inf
Finf
NNNg6618
Ntp6636
bag6
(g7
g8
Ntp6637
Rp6638
(g672
g6
(g7
g8
Ntp6639
Rp6640
(g675
I80041
I00
NF-inf
Finf
NI0
NI80041
Ntp6641
bI00
NF-inf
Finf
NNNg6640
Ntp6642
bag6
(g7
g8
Ntp6643
Rp6644
(g4387
g6
(g7
g8
Ntp6645
Rp6646
(g765
g12
(g16
S'\x80\xea\xc1{\x14\xc2\x94?'
p6647
tp6648
Rp6649
I01
NI0
I1
Ng12
(g16
S'\xe3\xef\xbby+\xb5G?'
p6650
tp6651
Rp6652
(dp6653
g757
g12
(g16
S'\x93\xa7\x96\xf1\x8a\x9d\xbe?'
p6654
tp6655
Rp6656
sg769
g12
(g16
S'\xd8\xdcC\xcb\xe0\x02\xaa\xbf'
p6657
tp6658
Rp6659
sg773
g12
(g16
S'q\x9a\xa1\xf6BX\xe4\xbf'
p6660
tp6661
Rp6662
sF0.5
Ntp6663
bI01
NF-inf
Finf
NNNg6646
Ntp6664
bag6
(g7
g8
Ntp6665
Rp6666
(g1286
g6
(g7
g8
Ntp6667
Rp6668
(g773
g12
(g16
S'M\x9b\xfe\xff\xff\xff;@'
p6669
tp6670
Rp6671
I01
NI7
I28
Ng12
(g16
S'\xedQ\xe0!\xbd\n\xfc?'
p6672
tp6673
Rp6674
(dp6675
g765
g12
(g16
S'l\x9a\xa1\xf6BX\xe4\xbf'
p6676
tp6677
Rp6678
sg757
g12
(g16
S'\x8c6\xd5\x1a8)\xa9\xbf'
p6679
tp6680
Rp6681
sg769
g12
(g16
S'"\x12\xb1\xc8A6\xd6\xbf'
p6682
tp6683
Rp6684
sI14
Ntp6685
bI01
NF-inf
Finf
NNNg6668
Ntp6686
bag6
(g7
g8
Ntp6687
Rp6688
(g4486
g6
(g7
g8
Ntp6689
Rp6690
(g4489
I80093
I00
NF-inf
Finf
NI0
NI80093
Ntp6691
bI00
NF-inf
Finf
NNNg6690
Ntp6692
bag6
(g7
g8
Ntp6693
Rp6694
(g2427
g6
(g7
g8
Ntp6695
Rp6696
(g1050
g12
(g16
S'\xe0\x1b\xfd\xaa\x1a@\xad?'
p6697
tp6698
Rp6699
I01
NI0
I1
Ng12
(g16
S'\x92\x97\xc1\x02\xb3\x7fD?'
p6700
tp6701
Rp6702
(dp6703
g1042
g12
(g16
S'\x04_u\xaf\x10\xe2\xe6?'
p6704
tp6705
Rp6706
sF0.5
Ntp6707
bI01
NF-inf
Finf
NNNg6696
Ntp6708
bag6
(g7
g8
Ntp6709
Rp6710
(g1039
g6
(g7
g8
Ntp6711
Rp6712
(g1042
g12
(g16
S'\x08\xba\xfd\xff\xff\xff;@'
p6713
tp6714
Rp6715
I01
NI7
I28
Ng12
(g16
S'\xaa\xbb6\xfc{\x1b\xa2?'
p6716
tp6717
Rp6718
(dp6719
g1050
g12
(g16
S'\x04_u\xaf\x10\xe2\xe6?'
p6720
tp6721
Rp6722
sI14
Ntp6723
bI01
NF-inf
Finf
NNNg6712
Ntp6724
bag6
(g7
g8
Ntp6725
Rp6726
(g79
g6
(g7
g8
Ntp6727
Rp6728
(g82
I86705
I00
NF-inf
Finf
NI0
NI86705
Ntp6729
bI00
NF-inf
Finf
NNNg6728
Ntp6730
bag6
(g7
g8
Ntp6731
Rp6732
(g1894
g6
(g7
g8
Ntp6733
Rp6734
(g659
g12
(g16
S'\xf0\x82\xe0\xbc\x83\xa9\xb1?'
p6735
tp6736
Rp6737
I01
NI0
I1
Ng12
(g16
S'6\xa5N\x12RsI?'
p6738
tp6739
Rp6740
(dp6741
g651
g12
(g16
S'2\x82j\x15\xdb\xea\xe6\xbf'
p6742
tp6743
Rp6744
sF0.5
Ntp6745
bI01
NF-inf
Finf
NNNg6734
Ntp6746
bag6
(g7
g8
Ntp6747
Rp6748
(g648
g6
(g7
g8
Ntp6749
Rp6750
(g651
g12
(g16
S'\x8ds\xbb\xff\xff\xff;@'
p6751
tp6752
Rp6753
I01
NI7
I28
Ng12
(g16
S'\xe2\xa6w\xb2\xea\xe2\xdf?'
p6754
tp6755
Rp6756
(dp6757
g659
g12
(g16
S'2\x82j\x15\xdb\xea\xe6\xbf'
p6758
tp6759
Rp6760
sI14
Ntp6761
bI01
NF-inf
Finf
NNNg6750
Ntp6762
bag6
(g7
g8
Ntp6763
Rp6764
(g778
g6
(g7
g8
Ntp6765
Rp6766
(g781
I86970
I00
NF-inf
Finf
NI0
NI86970
Ntp6767
bI00
NF-inf
Finf
NNNg6766
Ntp6768
bag6
(g7
g8
Ntp6769
Rp6770
(g4010
g6
(g7
g8
Ntp6771
Rp6772
(g374
g12
(g16
S'0\xb0\x88\x9d\xcb\xf4\xa2?'
p6773
tp6774
Rp6775
I01
NI0
I1
Ng12
(g16
S'\x87\x83\x01\xc9\xfb\n\\?'
p6776
tp6777
Rp6778
(dp6779
g366
g12
(g16
S'\x85/\xecR\x84\xb7\xbc\xbf'
p6780
tp6781
Rp6782
sg382
g12
(g16
S'\t6Mx\x9b\x88\xca\xbf'
p6783
tp6784
Rp6785
sg378
g12
(g16
S'\x9aA/\xaer\x97\xe2\xbf'
p6786
tp6787
Rp6788
sF0.5
Ntp6789
bI01
NF-inf
Finf
NNNg6772
Ntp6790
bag6
(g7
g8
Ntp6791
Rp6792
(g2331
g6
(g7
g8
Ntp6793
Rp6794
(g382
g12
(g16
S'{\xf9\xff\xff\xff\xff;@'
p6795
tp6796
Rp6797
I01
NI7
I28
Ng12
(g16
S'\xff\x01\xe5\xbb\xb6f\xf2?'
p6798
tp6799
Rp6800
(dp6801
g366
g12
(g16
S'\xc3\xdd\xf5\x88\tf\xd6\xbf'
p6802
tp6803
Rp6804
sg374
g12
(g16
S'\xfc5Mx\x9b\x88\xca\xbf'
p6805
tp6806
Rp6807
sg378
g12
(g16
S'\xe6$f\x01sK\xc8\xbf'
p6808
tp6809
Rp6810
sI14
Ntp6811
bI01
NF-inf
Finf
NNNg6794
Ntp6812
bag6
(g7
g8
Ntp6813
Rp6814
(g2499
g6
(g7
g8
Ntp6815
Rp6816
(g2502
I89610
I00
NF-inf
Finf
NI0
NI89610
Ntp6817
bI00
NF-inf
Finf
NNNg6816
Ntp6818
bag6
(g7
g8
Ntp6819
Rp6820
(g363
g6
(g7
g8
Ntp6821
Rp6822
(g366
g12
(g16
S'P\xa2m\x8d5^\x9e?'
p6823
tp6824
Rp6825
I01
NI0
I1
Ng12
(g16
S'9\xd1\x0e\x10/jX?'
p6826
tp6827
Rp6828
(dp6829
g382
g12
(g16
S'\xd2\xdd\xf5\x88\tf\xd6\xbf'
p6830
tp6831
Rp6832
sg378
g12
(g16
S'\x00\xb4\xd0`*d\xd3\xbf'
p6833
tp6834
Rp6835
sg374
g12
(g16
S'y/\xecR\x84\xb7\xbc\xbf'
p6836
tp6837
Rp6838
sF0.5
Ntp6839
bI01
NF-inf
Finf
NNNg6822
Ntp6840
bag6
(g7
g8
Ntp6841
Rp6842
(g1234
g6
(g7
g8
Ntp6843
Rp6844
(g378
g12
(g16
S'eV\x83\xff\xff\xff;@'
p6845
tp6846
Rp6847
I01
NI7
I28
Ng12
(g16
S'\xf2\xf8\x9dH\xed\xec\x04@'
p6848
tp6849
Rp6850
(dp6851
g382
g12
(g16
S'\xc5$f\x01sK\xc8\xbf'
p6852
tp6853
Rp6854
sg366
g12
(g16
S'\x06\xb4\xd0`*d\xd3\xbf'
p6855
tp6856
Rp6857
sg374
g12
(g16
S'\x9bA/\xaer\x97\xe2\xbf'
p6858
tp6859
Rp6860
sI14
Ntp6861
bI01
NF-inf
Finf
NNNg6844
Ntp6862
bag6
(g7
g8
Ntp6863
Rp6864
(g3801
g6
(g7
g8
Ntp6865
Rp6866
(g3804
I89630
I00
NF-inf
Finf
NI0
NI89630
Ntp6867
bI00
NF-inf
Finf
NNNg6866
Ntp6868
bag6
(g7
g8
Ntp6869
Rp6870
(g4539
g6
(g7
g8
Ntp6871
Rp6872
(g1180
g12
(g16
S'\xa0\xebj$Y\xc0\x98?'
p6873
tp6874
Rp6875
I01
NI0
I1
Ng12
(g16
S'\xc2=+\xf4\x84\x10\\?'
p6876
tp6877
Rp6878
(dp6879
g1176
g12
(g16
S'}\xc9\\\xe0\xdb\xeb\xbe?'
p6880
tp6881
Rp6882
sg1168
g12
(g16
S'\xf4B\x19h\x87\xe2\xe1?'
p6883
tp6884
Rp6885
sg1184
g12
(g16
S'\xe7\xef\xabU\xa4\xbf\xd4\xbf'
p6886
tp6887
Rp6888
sF0.5
Ntp6889
bI01
NF-inf
Finf
NNNg6872
Ntp6890
bag6
(g7
g8
Ntp6891
Rp6892
(g3781
g6
(g7
g8
Ntp6893
Rp6894
(g1184
g12
(g16
S'\x8d\xf0 \xff\xff\xff;@'
p6895
tp6896
Rp6897
I01
NI7
I28
Ng12
(g16
S'\xb0SB\xa35\xd1\xe7?'
p6898
tp6899
Rp6900
(dp6901
g1176
g12
(g16
S'\x8e\xd4l\xf9\xe5\xe0\xe1\xbf'
p6902
tp6903
Rp6904
sg1168
g12
(g16
S'\x01a\tt\xbe\x1a\xc2?'
p6905
tp6906
Rp6907
sg1180
g12
(g16
S'\xe4\xef\xabU\xa4\xbf\xd4\xbf'
p6908
tp6909
Rp6910
sI14
Ntp6911
bI01
NF-inf
Finf
NNNg6894
Ntp6912
bag6
(g7
g8
Ntp6913
Rp6914
(g3811
g6
(g7
g8
Ntp6915
Rp6916
(g3814
I89871
I00
NF-inf
Finf
NI0
NI89871
Ntp6917
bI00
NF-inf
Finf
NNNg6916
Ntp6918
bag6
(g7
g8
Ntp6919
Rp6920
(g1699
g6
(g7
g8
Ntp6921
Rp6922
(g1176
g12
(g16
S'pA\xdc+K\x95\xab?'
p6923
tp6924
Rp6925
I01
NI0
I1
Ng12
(g16
S'\xf1DWo\x80\x13\\?'
p6926
tp6927
Rp6928
(dp6929
g1168
g12
(g16
S'\x88\xc9J\x05#\xcd\xd4?'
p6930
tp6931
Rp6932
sg1180
g12
(g16
S'n\xc9\\\xe0\xdb\xeb\xbe?'
p6933
tp6934
Rp6935
sg1184
g12
(g16
S'\x92\xd4l\xf9\xe5\xe0\xe1\xbf'
p6936
tp6937
Rp6938
sF0.5
Ntp6939
bI01
NF-inf
Finf
NNNg6922
Ntp6940
bag6
(g7
g8
Ntp6941
Rp6942
(g1165
g6
(g7
g8
Ntp6943
Rp6944
(g1168
g12
(g16
S'\xc9\x8b\x94\xff\xff\xff;@'
p6945
tp6946
Rp6947
I01
NI7
I28
Ng12
(g16
S'\xfa\x1d\xcaM\x08h\x17@'
p6948
tp6949
Rp6950
(dp6951
g1176
g12
(g16
S'\x8e\xc9J\x05#\xcd\xd4?'
p6952
tp6953
Rp6954
sg1180
g12
(g16
S'\xf7B\x19h\x87\xe2\xe1?'
p6955
tp6956
Rp6957
sg1184
g12
(g16
S'\xed`\tt\xbe\x1a\xc2?'
p6958
tp6959
Rp6960
sI14
Ntp6961
bI01
NF-inf
Finf
NNNg6944
Ntp6962
bag6
(g7
g8
Ntp6963
Rp6964
(g2784
g6
(g7
g8
Ntp6965
Rp6966
(g2787
I89894
I00
NF-inf
Finf
NI0
NI89894
Ntp6967
bI00
NF-inf
Finf
NNNg6966
Ntp6968
bag6
(g7
g8
Ntp6969
Rp6970
(g4071
g6
(g7
g8
Ntp6971
Rp6972
(g939
g12
(g16
S'\xa0\x13\xcd\x18c]\x8e?'
p6973
tp6974
Rp6975
I01
NI0
I1
Ng12
(g16
S'b25\xba\xc4\xf1d?'
p6976
tp6977
Rp6978
(dp6979
g927
g12
(g16
S'\xebRtb\xd7\x17\xda\xbf'
p6980
tp6981
Rp6982
sg943
g12
(g16
S'|\xaf\xe8\xdb\x8b\x05\x82?'
p6983
tp6984
Rp6985
sg935
g12
(g16
S'\xec\xd9X\xb8\x9d\x9e\xe2\xbf'
p6986
tp6987
Rp6988
sF0.5
Ntp6989
bI01
NF-inf
Finf
NNNg6972
Ntp6990
bag6
(g7
g8
Ntp6991
Rp6992
(g1055
g6
(g7
g8
Ntp6993
Rp6994
(g943
g12
(g16
S'VP\xf5\xfd\xff\xff;@'
p6995
tp6996
Rp6997
I01
NI7
I28
Ng12
(g16
S'\xbe\xf5\xdb\xcd\xc8\xb0\x1b@'
p6998
tp6999
Rp7000
(dp7001
g927
g12
(g16
S'\xb0\xb5\x8c\xbb\x05\xb3\xe2\xbf'
p7002
tp7003
Rp7004
sg939
g12
(g16
S'|\xaf\xe8\xdb\x8b\x05\x82?'
p7005
tp7006
Rp7007
sg935
g12
(g16
S'\xe6u\xd0\xee\x16R\xd3\xbf'
p7008
tp7009
Rp7010
sI14
Ntp7011
bI01
NF-inf
Finf
NNNg6994
Ntp7012
bag6
(g7
g8
Ntp7013
Rp7014
(g4592
g6
(g7
g8
Ntp7015
Rp7016
(g4595
I89992
I00
NF-inf
Finf
NI0
NI89992
Ntp7017
bI00
NF-inf
Finf
NNNg7016
Ntp7018
bag6
(g7
g8
Ntp7019
Rp7020
(g924
g6
(g7
g8
Ntp7021
Rp7022
(g927
g12
(g16
S'\x804U\xaf \xe5\x8f?'
p7023
tp7024
Rp7025
I01
NI0
I1
Ng12
(g16
S'\xcb\xa1\xa9P\xe6\xd6d?'
p7026
tp7027
Rp7028
(dp7029
g935
g12
(g16
S'\xd4^w\x02\xa2\xfc\xa2?'
p7030
tp7031
Rp7032
sg939
g12
(g16
S'\xeaRtb\xd7\x17\xda\xbf'
p7033
tp7034
Rp7035
sg943
g12
(g16
S'\xae\xb5\x8c\xbb\x05\xb3\xe2\xbf'
p7036
tp7037
Rp7038
sF0.5
Ntp7039
bI01
NF-inf
Finf
NNNg7022
Ntp7040
bag6
(g7
g8
Ntp7041
Rp7042
(g3636
g6
(g7
g8
Ntp7043
Rp7044
(g935
g12
(g16
S'\x8f\xd9\xfd\xff\xff\xff;@'
p7045
tp7046
Rp7047
I01
NI7
I28
Ng12
(g16
S"\xc2'lh3\xb9\x1b@"
p7048
tp7049
Rp7050
(dp7051
g927
g12
(g16
S'\xee^w\x02\xa2\xfc\xa2?'
p7052
tp7053
Rp7054
sg939
g12
(g16
S'\xed\xd9X\xb8\x9d\x9e\xe2\xbf'
p7055
tp7056
Rp7057
sg943
g12
(g16
S'\xe7u\xd0\xee\x16R\xd3\xbf'
p7058
tp7059
Rp7060
sI14
Ntp7061
bI01
NF-inf
Finf
NNNg7044
Ntp7062
bag6
(g7
g8
Ntp7063
Rp7064
(g4709
g6
(g7
g8
Ntp7065
Rp7066
(g4712
I90007
I00
NF-inf
Finf
NI0
NI90007
Ntp7067
bI00
NF-inf
Finf
NNNg7066
Ntp7068
bag6
(g7
g8
Ntp7069
Rp7070
(g4237
g6
(g7
g8
Ntp7071
Rp7072
(g346
g12
(g16
S'\x80J\xd3zA\x9f{?'
p7073
tp7074
Rp7075
I01
NI0
I1
Ng12
(g16
S'Y\xe1\x95B\x95\xc4k?'
p7076
tp7077
Rp7078
(dp7079
g334
g12
(g16
S'\xc0xk\xfdA\x1e\xee\xbf'
p7080
tp7081
Rp7082
sg326
g12
(g16
S'o\r\xcf\xc8N\x93\xdb\xbf'
p7083
tp7084
Rp7085
sg338
g12
(g16
S'\x00\xdf#\xfa\xce\xb2i\xbf'
p7086
tp7087
Rp7088
sg342
g12
(g16
S'\xb5\xd5\x0e\x8b0\x83\xb9\xbf'
p7089
tp7090
Rp7091
sg350
g12
(g16
S'7+\x1e\xc3\rJ\xe8\xbf'
p7092
tp7093
Rp7094
sg354
g12
(g16
S'\x92\xfc\x16\xbbZ\x93\xeb?'
p7095
tp7096
Rp7097
sg358
g12
(g16
S'\x1f\x1cO\x02\x05\xe1\xdc?'
p7098
tp7099
Rp7100
sF0.5
Ntp7101
bI01
NF-inf
Finf
NNNg7072
Ntp7102
bag6
(g7
g8
Ntp7103
Rp7104
(g599
g6
(g7
g8
Ntp7105
Rp7106
(g338
g12
(g16
S'\xa7y\xff\xff\xff\xff;@'
p7107
tp7108
Rp7109
I01
NI7
I28
Ng12
(g16
S'\x9d\x19}\xc8\x1a\x07\x12@'
p7110
tp7111
Rp7112
(dp7113
g334
g12
(g16
S'\x1a\x18\xf1|\xcav\xb9\xbf'
p7114
tp7115
Rp7116
sg326
g12
(g16
S'\xf2\x18\x88.\xbav\xc0?'
p7117
tp7118
Rp7119
sg342
g12
(g16
S'\xea\xae\xb72v;\xa4?'
p7120
tp7121
Rp7122
sg346
g12
(g16
S'\xf6\x05$\xfa\xce\xb2i\xbf'
p7123
tp7124
Rp7125
sg350
g12
(g16
S'\x0e\x1coa\xc8\xec\xb9\xbf'
p7126
tp7127
Rp7128
sg354
g12
(g16
S'\xbeR\xf2\x7fP_\x88\xbf'
p7129
tp7130
Rp7131
sg358
g12
(g16
S'l\x16\x1f\t\xd7\xe0\xc3\xbf'
p7132
tp7133
Rp7134
sI14
Ntp7135
bI01
NF-inf
Finf
NNNg7106
Ntp7136
bag6
(g7
g8
Ntp7137
Rp7138
(g208
g6
(g7
g8
Ntp7139
Rp7140
(g211
I90098
I00
NF-inf
Finf
NI0
NI90098
Ntp7141
bI00
NF-inf
Finf
NNNg7140
Ntp7142
bag6
(g7
g8
Ntp7143
Rp7144
(g2752
g6
(g7
g8
Ntp7145
Rp7146
(g350
g12
(g16
S' \x8bA1{\xaf\x81?'
p7147
tp7148
Rp7149
I01
NI0
I1
Ng12
(g16
S'S7#ux\x92p?'
p7150
tp7151
Rp7152
(dp7153
g334
g12
(g16
S'*:\xe2\xbc\xb0u\xe7?'
p7154
tp7155
Rp7156
sg326
g12
(g16
S'\xeb=\x1d\x037T\xea?'
p7157
tp7158
Rp7159
sg338
g12
(g16
S'\x85\x1doa\xc8\xec\xb9\xbf'
p7160
tp7161
Rp7162
sg342
g12
(g16
S'5^\xbb\xf8\x05\x1d\xa2?'
p7163
tp7164
Rp7165
sg346
g12
(g16
S'\\+\x1e\xc3\rJ\xe8\xbf'
p7166
tp7167
Rp7168
sg354
g12
(g16
S'B&\xbd\x8e\xc5\xd0\xeb\xbf'
p7169
tp7170
Rp7171
sg358
g12
(g16
S'\xba\xb4\x1e\x91\xdd\x01\xeb\xbf'
p7172
tp7173
Rp7174
sF0.5
Ntp7175
bI01
NF-inf
Finf
NNNg7146
Ntp7176
bag6
(g7
g8
Ntp7177
Rp7178
(g567
g6
(g7
g8
Ntp7179
Rp7180
(g334
g12
(g16
S'\x82\x84_\xff\xff\xff;@'
p7181
tp7182
Rp7183
I01
NI7
I28
Ng12
(g16
S'\xf7\x03<\xd7\xfd\xf6+@'
p7184
tp7185
Rp7186
(dp7187
g326
g12
(g16
S'\x83\xd8[\xbf\xa55\xdc?'
p7188
tp7189
Rp7190
sg338
g12
(g16
S't\x19\xf1|\xcav\xb9\xbf'
p7191
tp7192
Rp7193
sg342
g12
(g16
S'Z\x0b\xb4\xd5FM\xc0?'
p7194
tp7195
Rp7196
sg346
g12
(g16
S'\xb5xk\xfdA\x1e\xee\xbf'
p7197
tp7198
Rp7199
sg350
g12
(g16
S'\xf39\xe2\xbc\xb0u\xe7?'
p7200
tp7201
Rp7202
sg354
g12
(g16
S'$\xcb\x84V\xc3\xf7\xeb\xbf'
p7203
tp7204
Rp7205
sg358
g12
(g16
S'\xfc\x81\xd0j\x83\x05\xde\xbf'
p7206
tp7207
Rp7208
sI14
Ntp7209
bI01
NF-inf
Finf
NNNg7180
Ntp7210
bag6
(g7
g8
Ntp7211
Rp7212
(g2474
g6
(g7
g8
Ntp7213
Rp7214
(g2477
I90114
I00
NF-inf
Finf
NI0
NI90114
Ntp7215
bI00
NF-inf
Finf
NNNg7214
Ntp7216
bag6
(g7
g8
Ntp7217
Rp7218
(g1133
g6
(g7
g8
Ntp7219
Rp7220
(g354
g12
(g16
S'@\x89\xa3\xef\x05\xb5\x84?'
p7221
tp7222
Rp7223
I01
NI0
I1
Ng12
(g16
S'@\xc3`\xcf?\x91o?'
p7224
tp7225
Rp7226
(dp7227
g334
g12
(g16
S'H\xcb\x84V\xc3\xf7\xeb\xbf'
p7228
tp7229
Rp7230
sg326
g12
(g16
S'\x9ddu\xaf\x86\xee\xe5\xbf'
p7231
tp7232
Rp7233
sg338
g12
(g16
S'.G\xf2\x7fP_\x88\xbf'
p7234
tp7235
Rp7236
sg342
g12
(g16
S'\xfd8>_\xf2&\xba?'
p7237
tp7238
Rp7239
sg346
g12
(g16
S'\xa4\xfc\x16\xbbZ\x93\xeb?'
p7240
tp7241
Rp7242
sg350
g12
(g16
S'3&\xbd\x8e\xc5\xd0\xeb\xbf'
p7243
tp7244
Rp7245
sg358
g12
(g16
S'\xfd\x10\xbb\x87\xee\x9f\xe5?'
p7246
tp7247
Rp7248
sF0.5
Ntp7249
bI01
NF-inf
Finf
NNNg7220
Ntp7250
bag6
(g7
g8
Ntp7251
Rp7252
(g4347
g6
(g7
g8
Ntp7253
Rp7254
(g358
g12
(g16
S'u1\xb0p\xff\xff;@'
p7255
tp7256
Rp7257
I01
NI7
I28
Ng12
(g16
S"+\xd3\xc0\x12`:'@"
p7258
tp7259
Rp7260
(dp7261
g334
g12
(g16
S'\x97\x82\xd0j\x83\x05\xde\xbf'
p7262
tp7263
Rp7264
sg326
g12
(g16
S'BA\xed\xa1\xc8\xf4\xed\xbf'
p7265
tp7266
Rp7267
sg338
g12
(g16
S'\xb0\x15\x1f\t\xd7\xe0\xc3\xbf'
p7268
tp7269
Rp7270
sg342
g12
(g16
S'\x8bv\xce\x9e4\xe2\xa9?'
p7271
tp7272
Rp7273
sg346
g12
(g16
S'\x8e\x1cO\x02\x05\xe1\xdc?'
p7274
tp7275
Rp7276
sg350
g12
(g16
S'\xd0\xb4\x1e\x91\xdd\x01\xeb\xbf'
p7277
tp7278
Rp7279
sg354
g12
(g16
S'\x1d\x11\xbb\x87\xee\x9f\xe5?'
p7280
tp7281
Rp7282
sI14
Ntp7283
bI01
NF-inf
Finf
NNNg7254
Ntp7284
bag6
(g7
g8
Ntp7285
Rp7286
(g1474
g6
(g7
g8
Ntp7287
Rp7288
(g1477
I90134
I00
NF-inf
Finf
NI0
NI90134
Ntp7289
bI00
NF-inf
Finf
NNNg7288
Ntp7290
bag6
(g7
g8
Ntp7291
Rp7292
(g323
g6
(g7
g8
Ntp7293
Rp7294
(g326
g12
(g16
S'\xb0\xac\x97k)T\x92?'
p7295
tp7296
Rp7297
I01
NI0
I1
Ng12
(g16
S'\xa0\xf7m\xc3<\x1ci?'
p7298
tp7299
Rp7300
(dp7301
g334
g12
(g16
S'\x0f\xd9[\xbf\xa55\xdc?'
p7302
tp7303
Rp7304
sg338
g12
(g16
S'7\x18\x88.\xbav\xc0?'
p7305
tp7306
Rp7307
sg342
g12
(g16
S'\xdd\xb4>-Uu\xb2?'
p7308
tp7309
Rp7310
sg346
g12
(g16
S'\xd3\r\xcf\xc8N\x93\xdb\xbf'
p7311
tp7312
Rp7313
sg350
g12
(g16
S'\xf8=\x1d\x037T\xea?'
p7314
tp7315
Rp7316
sg354
g12
(g16
S'\xb5du\xaf\x86\xee\xe5\xbf'
p7317
tp7318
Rp7319
sg358
g12
(g16
S'=A\xed\xa1\xc8\xf4\xed\xbf'
p7320
tp7321
Rp7322
sF0.5
Ntp7323
bI01
NF-inf
Finf
NNNg7294
Ntp7324
bag6
(g7
g8
Ntp7325
Rp7326
(g1254
g6
(g7
g8
Ntp7327
Rp7328
(g342
g12
(g16
S'Gm\xa4\xfd\xff\xff;@'
p7329
tp7330
Rp7331
I01
NI7
I28
Ng12
(g16
S'w7:\xae\xd9\xba\x11@'
p7332
tp7333
Rp7334
(dp7335
g334
g12
(g16
S'!\x0b\xb4\xd5FM\xc0?'
p7336
tp7337
Rp7338
sg326
g12
(g16
S'H\xb4>-Uu\xb2?'
p7339
tp7340
Rp7341
sg338
g12
(g16
S'\t\xaf\xb72v;\xa4?'
p7342
tp7343
Rp7344
sg346
g12
(g16
S'c\xd5\x0e\x8b0\x83\xb9\xbf'
p7345
tp7346
Rp7347
sg350
g12
(g16
S'\xca\\\xbb\xf8\x05\x1d\xa2?'
p7348
tp7349
Rp7350
sg354
g12
(g16
S'{9>_\xf2&\xba?'
p7351
tp7352
Rp7353
sg358
g12
(g16
S'\xc8w\xce\x9e4\xe2\xa9?'
p7354
tp7355
Rp7356
sI14
Ntp7357
bI01
NF-inf
Finf
NNNg7328
Ntp7358
bag6
(g7
g8
Ntp7359
Rp7360
(g1508
g6
(g7
g8
Ntp7361
Rp7362
(g1511
I90152
I00
NF-inf
Finf
NI0
NI90152
Ntp7363
bI00
NF-inf
Finf
NNNg7362
Ntp7364
bag6
(g7
g8
Ntp7365
Rp7366
(g1306
g6
(g7
g8
Ntp7367
Rp7368
(g113
g12
(g16
S'\x80\xbb\xa6r\x96\xd1\x92?'
p7369
tp7370
Rp7371
I01
NI0
I1
Ng12
(g16
S'f\xd1\xa8\xb5\xe01s?'
p7372
tp7373
Rp7374
(dp7375
g105
g12
(g16
S'a8\xd5b\xf6\x92\xec\xbf'
p7376
tp7377
Rp7378
sg109
g12
(g16
S'\x06l\xa5\xb7\xc6\xc2\xee\xbf'
p7379
tp7380
Rp7381
sg97
g12
(g16
S'\x8cT\xe7\xcc\x03?\xb1?'
p7382
tp7383
Rp7384
sg117
g12
(g16
S'\xe2\x98!\x8dO\xee\xe5\xbf'
p7385
tp7386
Rp7387
sg121
g12
(g16
S'c\xdd\xee\t\x18\x1b\xed?'
p7388
tp7389
Rp7390
sg125
g12
(g16
S'\x1f\xb8e\xa2\xe0\xaa\xc0?'
p7391
tp7392
Rp7393
sg129
g12
(g16
S'\x9e\x8a`$\x8d\xeb\xe5?'
p7394
tp7395
Rp7396
sF0.5
Ntp7397
bI01
NF-inf
Finf
NNNg7368
Ntp7398
bag6
(g7
g8
Ntp7399
Rp7400
(g94
g6
(g7
g8
Ntp7401
Rp7402
(g97
g12
(g16
S'MV\n\xeb\xff\xff;@'
p7403
tp7404
Rp7405
I01
NI7
I28
Ng12
(g16
S'\\\xbe\xe5r\xb7\xdc\t@'
p7406
tp7407
Rp7408
(dp7409
g105
g12
(g16
S'\xe6D\xd9n\xb4}\xb5\xbf'
p7410
tp7411
Rp7412
sg109
g12
(g16
S'\x04\xfb\x7f]\xfa\xaa\xc2\xbf'
p7413
tp7414
Rp7415
sg113
g12
(g16
S'\xb2U\xe7\xcc\x03?\xb1?'
p7416
tp7417
Rp7418
sg117
g12
(g16
S'\x83\x02\xd7\xe5\xa6r\xbc?'
p7419
tp7420
Rp7421
sg121
g12
(g16
S'\xf1\xe9\xdd\xa5q\xfek?'
p7422
tp7423
Rp7424
sg125
g12
(g16
S'\xbe\xc3c\xcb\x0c\xec\x84\xbf'
p7425
tp7426
Rp7427
sg129
g12
(g16
S'\xa9\xfb\xbb\xd0Q\xcb\xc0\xbf'
p7428
tp7429
Rp7430
sI14
Ntp7431
bI01
NF-inf
Finf
NNNg7402
Ntp7432
bag6
(g7
g8
Ntp7433
Rp7434
(g2079
g6
(g7
g8
Ntp7435
Rp7436
(g2082
I90220
I00
NF-inf
Finf
NI0
NI90220
Ntp7437
bI00
NF-inf
Finf
NNNg7436
Ntp7438
bag6
(g7
g8
Ntp7439
Rp7440
(g3442
g6
(g7
g8
Ntp7441
Rp7442
(g105
g12
(g16
S'\x00\x95\xd3\x93|J{?'
p7443
tp7444
Rp7445
I01
NI0
I1
Ng12
(g16
S'\xc1\t\x8b~$\xb7y?'
p7446
tp7447
Rp7448
(dp7449
g109
g12
(g16
S'>\xe4O\xea\x8a\xc0\xeb?'
p7450
tp7451
Rp7452
sg97
g12
(g16
S'\xe8C\xd9n\xb4}\xb5\xbf'
p7453
tp7454
Rp7455
sg117
g12
(g16
S'W z\xcb3\xad\xec?'
p7456
tp7457
Rp7458
sg121
g12
(g16
S'\x0f\xbb\x00\xfdFY\xee\xbf'
p7459
tp7460
Rp7461
sg113
g12
(g16
S'18\xd5b\xf6\x92\xec\xbf'
p7462
tp7463
Rp7464
sg125
g12
(g16
S'\xdeK\xf0*$5\xb2\xbf'
p7465
tp7466
Rp7467
sg129
g12
(g16
S'\xe7\xfdOV\xee\xd1\xec\xbf'
p7468
tp7469
Rp7470
sF0.5
Ntp7471
bI01
NF-inf
Finf
NNNg7442
Ntp7472
bag6
(g7
g8
Ntp7473
Rp7474
(g4149
g6
(g7
g8
Ntp7475
Rp7476
(g109
g12
(g16
S'\x90\xf4\xe4\xff\xff\xff;@'
p7477
tp7478
Rp7479
I01
NI7
I28
Ng12
(g16
S'\xaaFj\xfa\x8f\xca>@'
p7480
tp7481
Rp7482
(dp7483
g105
g12
(g16
S'w\xe4O\xea\x8a\xc0\xeb?'
p7484
tp7485
Rp7486
sg97
g12
(g16
S'o\xfa\x7f]\xfa\xaa\xc2\xbf'
p7487
tp7488
Rp7489
sg117
g12
(g16
S'^>L\xfc\xff\xbb\xe5?'
p7490
tp7491
Rp7492
sg121
g12
(g16
S'Uv\xbe\r\xed\x1f\xed\xbf'
p7493
tp7494
Rp7495
sg113
g12
(g16
S'\x0el\xa5\xb7\xc6\xc2\xee\xbf'
p7496
tp7497
Rp7498
sg125
g12
(g16
S'\xa7\xbc}\xd8\xe3\xa5\xc3\xbf'
p7499
tp7500
Rp7501
sg129
g12
(g16
S"}\xe50['\xe9\xe5\xbf"
p7502
tp7503
Rp7504
sI14
Ntp7505
bI01
NF-inf
Finf
NNNg7476
Ntp7506
bag6
(g7
g8
Ntp7507
Rp7508
(g4342
g6
(g7
g8
Ntp7509
Rp7510
(g4345
I90234
I00
NF-inf
Finf
NI0
NI90234
Ntp7511
bI00
NF-inf
Finf
NNNg7510
Ntp7512
bag6
(g7
g8
Ntp7513
Rp7514
(g4205
g6
(g7
g8
Ntp7515
Rp7516
(g121
g12
(g16
S'\xe0\xbf\xbai5r\x84?'
p7517
tp7518
Rp7519
I01
NI0
I1
Ng12
(g16
S'\xd2\x0b\xbf\xcd*rw?'
p7520
tp7521
Rp7522
(dp7523
g105
g12
(g16
S'\x0c\xbb\x00\xfdFY\xee\xbf'
p7524
tp7525
Rp7526
sg109
g12
(g16
S'\x1av\xbe\r\xed\x1f\xed\xbf'
p7527
tp7528
Rp7529
sg97
g12
(g16
S'\x19\xcb\xdd\xa5q\xfek?'
p7530
tp7531
Rp7532
sg117
g12
(g16
S'&\xb82\xc6\x97\xaa\xeb\xbf'
p7533
tp7534
Rp7535
sg113
g12
(g16
S'2\xdd\xee\t\x18\x1b\xed?'
p7536
tp7537
Rp7538
sg125
g12
(g16
S'\xb2d\xff\x00\x15\x0c\x9f\xbf'
p7539
tp7540
Rp7541
sg129
g12
(g16
S'\x1ar0lw\x18\xeb?'
p7542
tp7543
Rp7544
sF0.5
Ntp7545
bI01
NF-inf
Finf
NNNg7516
Ntp7546
bag6
(g7
g8
Ntp7547
Rp7548
(g706
g6
(g7
g8
Ntp7549
Rp7550
(g129
g12
(g16
S'\xeay\x7f\xfe\xff\xff;@'
p7551
tp7552
Rp7553
I01
NI7
I28
Ng12
(g16
S'\xc4\xc4\xb5\xa8\x11\x1a5@'
p7554
tp7555
Rp7556
(dp7557
g105
g12
(g16
S'\xc5\xfdOV\xee\xd1\xec\xbf'
p7558
tp7559
Rp7560
sg109
g12
(g16
S"%\xe50['\xe9\xe5\xbf"
p7561
tp7562
Rp7563
sg97
g12
(g16
S'\x12\xfc\xbb\xd0Q\xcb\xc0\xbf'
p7564
tp7565
Rp7566
sg117
g12
(g16
S'\xc66\x92m\x16\xd5\xee\xbf'
p7567
tp7568
Rp7569
sg121
g12
(g16
S'\xf9q0lw\x18\xeb?'
p7570
tp7571
Rp7572
sg113
g12
(g16
S'M\x8a`$\x8d\xeb\xe5?'
p7573
tp7574
Rp7575
sg125
g12
(g16
S'\x8f\xad\xd4\xd9\xe0\xd5\xa0\xbf'
p7576
tp7577
Rp7578
sI14
Ntp7579
bI01
NF-inf
Finf
NNNg7550
Ntp7580
bag6
(g7
g8
Ntp7581
Rp7582
(g229
g6
(g7
g8
Ntp7583
Rp7584
(g232
I90254
I00
NF-inf
Finf
NI0
NI90254
Ntp7585
bI00
NF-inf
Finf
NNNg7584
Ntp7586
bag6
(g7
g8
Ntp7587
Rp7588
(g2921
g6
(g7
g8
Ntp7589
Rp7590
(g117
g12
(g16
S'\x00\xc7\xf79\x07yw?'
p7591
tp7592
Rp7593
I01
NI0
I1
Ng12
(g16
S'^keVR\x0fr?'
p7594
tp7595
Rp7596
(dp7597
g105
g12
(g16
S'6 z\xcb3\xad\xec?'
p7598
tp7599
Rp7600
sg109
g12
(g16
S'\x0b>L\xfc\xff\xbb\xe5?'
p7601
tp7602
Rp7603
sg97
g12
(g16
S'"\x03\xd7\xe5\xa6r\xbc?'
p7604
tp7605
Rp7606
sg121
g12
(g16
S'\x06\xb82\xc6\x97\xaa\xeb\xbf'
p7607
tp7608
Rp7609
sg113
g12
(g16
S'\x97\x98!\x8dO\xee\xe5\xbf'
p7610
tp7611
Rp7612
sg125
g12
(g16
S'\xa3\xa4 G\x0e,\xa9\xbf'
p7613
tp7614
Rp7615
sg129
g12
(g16
S'\xc56\x92m\x16\xd5\xee\xbf'
p7616
tp7617
Rp7618
sF0.5
Ntp7619
bI01
NF-inf
Finf
NNNg7590
Ntp7620
bag6
(g7
g8
Ntp7621
Rp7622
(g1913
g6
(g7
g8
Ntp7623
Rp7624
(g125
g12
(g16
S'\xb3\xf8\xb5\xf3\xff\xff;@'
p7625
tp7626
Rp7627
I01
NI7
I28
Ng12
(g16
S'HW\x14\x08\xccE$@'
p7628
tp7629
Rp7630
(dp7631
g105
g12
(g16
S'"O\xf0*$5\xb2\xbf'
p7632
tp7633
Rp7634
sg109
g12
(g16
S'\r\xbe}\xd8\xe3\xa5\xc3\xbf'
p7635
tp7636
Rp7637
sg97
g12
(g16
S'|\xc4c\xcb\x0c\xec\x84\xbf'
p7638
tp7639
Rp7640
sg117
g12
(g16
S'P\xaa G\x0e,\xa9\xbf'
p7641
tp7642
Rp7643
sg121
g12
(g16
S'\x17Y\xff\x00\x15\x0c\x9f\xbf'
p7644
tp7645
Rp7646
sg113
g12
(g16
S'\x92\xb9e\xa2\xe0\xaa\xc0?'
p7647
tp7648
Rp7649
sg129
g12
(g16
S'\x8c\xa8\xd4\xd9\xe0\xd5\xa0\xbf'
p7650
tp7651
Rp7652
sI14
Ntp7653
bI01
NF-inf
Finf
NNNg7624
Ntp7654
bag6
(g7
g8
Ntp7655
Rp7656
(g3882
g6
(g7
g8
Ntp7657
Rp7658
(g3885
I90270
I00
NF-inf
Finf
NI0
NI90270
Ntp7659
bI00
NF-inf
Finf
NNNg7658
Ntp7660
bag6
(g7
g8
Ntp7661
Rp7662
(g545
g6
(g7
g8
Ntp7663
Rp7664
(g548
g12
(g16
S'\xd0m\xc6\xe6/i\x9e?'
p7665
tp7666
Rp7667
I01
NI0
I1
Ng12
(g16
S'\x96|\xd7-\x84kT?'
p7668
tp7669
Rp7670
(dp7671
g556
g12
(g16
S'\x1e^\x8b4,\xdd\xe6\xbf'
p7672
tp7673
Rp7674
sF0.5
Ntp7675
bI01
NF-inf
Finf
NNNg7664
Ntp7676
bag6
(g7
g8
Ntp7677
Rp7678
(g2603
g6
(g7
g8
Ntp7679
Rp7680
(g556
g12
(g16
S'F\xd5&\xff\xff\xff;@'
p7681
tp7682
Rp7683
I01
NI7
I28
Ng12
(g16
S'\x02\xf4\xff\xa42\xe1\xfd?'
p7684
tp7685
Rp7686
(dp7687
g548
g12
(g16
S'\x1e^\x8b4,\xdd\xe6\xbf'
p7688
tp7689
Rp7690
sI14
Ntp7691
bI01
NF-inf
Finf
NNNg7680
Ntp7692
bag6
(g7
g8
Ntp7693
Rp7694
(g313
g6
(g7
g8
Ntp7695
Rp7696
(g316
I92207
I00
NF-inf
Finf
NI0
NI92207
Ntp7697
bI00
NF-inf
Finf
NNNg7696
Ntp7698
bag6
(g7
g8
Ntp7699
Rp7700
(g1843
g6
(g7
g8
Ntp7701
Rp7702
(g1631
g12
(g16
S'\xe0\x92\xa3\x84\xedQ\xa0?'
p7703
tp7704
Rp7705
I01
NI0
I1
Ng12
(g16
S'\x19d\x97\xad}\xbfW?'
p7706
tp7707
Rp7708
(dp7709
g1623
g12
(g16
S'Ut\xb9\x89T\xcc\xe6\xbf'
p7710
tp7711
Rp7712
sF0.5
Ntp7713
bI01
NF-inf
Finf
NNNg7702
Ntp7714
bag6
(g7
g8
Ntp7715
Rp7716
(g1620
g6
(g7
g8
Ntp7717
Rp7718
(g1623
g12
(g16
S'CR\xd5\xff\xff\xff;@'
p7719
tp7720
Rp7721
I01
NI7
I28
Ng12
(g16
S'~q\x1e\xd1n\xba\x00@'
p7722
tp7723
Rp7724
(dp7725
g1631
g12
(g16
S'Ut\xb9\x89T\xcc\xe6\xbf'
p7726
tp7727
Rp7728
sI14
Ntp7729
bI01
NF-inf
Finf
NNNg7718
Ntp7730
bag6
(g7
g8
Ntp7731
Rp7732
(g4106
g6
(g7
g8
Ntp7733
Rp7734
(g4109
I92341
I00
NF-inf
Finf
NI0
NI92341
Ntp7735
bI00
NF-inf
Finf
NNNg7734
Ntp7736
bag6
(g7
g8
Ntp7737
Rp7738
(g1987
g6
(g7
g8
Ntp7739
Rp7740
(g1120
g12
(g16
S'\x90\x9f\xb1\xc6\xb1\xed\x9c?'
p7741
tp7742
Rp7743
I01
NI0
I1
Ng12
(g16
S'F\x04b\xd3\x94\xeeV?'
p7744
tp7745
Rp7746
(dp7747
g1112
g12
(g16
S'>\xba\xfe\x9a<\xe2\xe6?'
p7748
tp7749
Rp7750
sF0.5
Ntp7751
bI01
NF-inf
Finf
NNNg7740
Ntp7752
bag6
(g7
g8
Ntp7753
Rp7754
(g1109
g6
(g7
g8
Ntp7755
Rp7756
(g1112
g12
(g16
S'Y\xff\xff\xff\xff\xff;@'
p7757
tp7758
Rp7759
I01
NI7
I28
Ng12
(g16
S'f\xd3B\xad1\x8fq?'
p7760
tp7761
Rp7762
(dp7763
g1120
g12
(g16
S'>\xba\xfe\x9a<\xe2\xe6?'
p7764
tp7765
Rp7766
sI14
Ntp7767
bI01
NF-inf
Finf
NNNg7756
Ntp7768
bag6
(g7
g8
Ntp7769
Rp7770
(g804
g6
(g7
g8
Ntp7771
Rp7772
(g807
I92432
I00
NF-inf
Finf
NI0
NI92432
Ntp7773
bI00
NF-inf
Finf
NNNg7772
Ntp7774
bag6
(g7
g8
Ntp7775
Rp7776
(g3500
g6
(g7
g8
Ntp7777
Rp7778
(g1820
g12
(g16
S'P\x1f*\xd4\t\xac\x9b?'
p7779
tp7780
Rp7781
I01
NI0
I1
Ng12
(g16
S'B\x154\xef\xe9\x15U?'
p7782
tp7783
Rp7784
(dp7785
g1812
g12
(g16
S'0\x1e\x0e\xae\x93\xde\xe6\xbf'
p7786
tp7787
Rp7788
sF0.5
Ntp7789
bI01
NF-inf
Finf
NNNg7778
Ntp7790
bag6
(g7
g8
Ntp7791
Rp7792
(g1809
g6
(g7
g8
Ntp7793
Rp7794
(g1812
g12
(g16
S'\xea2a\xff\xff\xff;@'
p7795
tp7796
Rp7797
I01
NI7
I28
Ng12
(g16
S'c\\\x91A\xc2\x18\x01@'
p7798
tp7799
Rp7800
(dp7801
g1820
g12
(g16
S'0\x1e\x0e\xae\x93\xde\xe6\xbf'
p7802
tp7803
Rp7804
sI14
Ntp7805
bI01
NF-inf
Finf
NNNg7794
Ntp7806
bag6
(g7
g8
Ntp7807
Rp7808
(g2789
g6
(g7
g8
Ntp7809
Rp7810
(g2792
I92569
I00
NF-inf
Finf
NI0
NI92569
Ntp7811
bI00
NF-inf
Finf
NNNg7810
Ntp7812
bag6
(g7
g8
Ntp7813
Rp7814
(g4050
g6
(g7
g8
Ntp7815
Rp7816
(g4053
g12
(g16
S'\xe0\x9f"\xa0\xc4\x92\x80?'
p7817
tp7818
Rp7819
I01
NI0
I1
Ng12
(g16
S'\x01m\xdcw\x1b\xf60?'
p7820
tp7821
Rp7822
(dp7823
g4061
g12
(g16
S'\xb6kY\x86\x03r\xe6\xbf'
p7824
tp7825
Rp7826
sF0.5
Ntp7827
bI01
NF-inf
Finf
NNNg7816
Ntp7828
bag6
(g7
g8
Ntp7829
Rp7830
(g4431
g6
(g7
g8
Ntp7831
Rp7832
(g4061
g12
(g16
S'\x86\xa9(\xf8\xff\xff;@'
p7833
tp7834
Rp7835
I01
NI7
I28
Ng12
(g16
S'w\xa2\x10\x8e^o\xf6?'
p7836
tp7837
Rp7838
(dp7839
g4053
g12
(g16
S'\xb6kY\x86\x03r\xe6\xbf'
p7840
tp7841
Rp7842
sI14
Ntp7843
bI01
NF-inf
Finf
NNNg7832
Ntp7844
bag6
(g7
g8
Ntp7845
Rp7846
(g2570
g6
(g7
g8
Ntp7847
Rp7848
(g2573
I93149
I00
NF-inf
Finf
NI0
NI93149
Ntp7849
bI00
NF-inf
Finf
NNNg7848
Ntp7850
bag6
(g7
g8
Ntp7851
Rp7852
(g2981
g6
(g7
g8
Ntp7853
Rp7854
(g30
g12
(g16
S'\x90\xcbL\x87\xc4\xf3\x99?'
p7855
tp7856
Rp7857
I01
NI0
I1
Ng12
(g16
S'\xf3\x1a\xc4h\x8ayF?'
p7858
tp7859
Rp7860
(dp7861
g11
g12
(g16
S'\x86_\xad\xf4\xdd\xeb\x0f\xbf'
p7862
tp7863
Rp7864
sg26
g12
(g16
S'\x94\xe2|%\xa6T\x97\xbf'
p7865
tp7866
Rp7867
sg42
g12
(g16
S'\x9d[\x93R);\xe3?'
p7868
tp7869
Rp7870
sg34
g12
(g16
S'Z?\xfc\xc2\xdcp\xa2\xbf'
p7871
tp7872
Rp7873
sg38
g12
(g16
S'\x99~TE\x86\xf4\xa9?'
p7874
tp7875
Rp7876
sg46
g12
(g16
S'\xb4\xbc\x8dtw\xfd\xb7?'
p7877
tp7878
Rp7879
sg50
g12
(g16
S'\x82\x0b\xf4\x03\xa2\xfc\xb4?'
p7880
tp7881
Rp7882
sF0.5
Ntp7883
bI01
NF-inf
Finf
NNNg7854
Ntp7884
bag6
(g7
g8
Ntp7885
Rp7886
(g1667
g6
(g7
g8
Ntp7887
Rp7888
(g42
g12
(g16
S'\xfb\xff\xff\xff\xff\xff;@'
p7889
tp7890
Rp7891
I01
NI7
I28
Ng12
(g16
S'\x87o\xad\xf7\xdb\xdb\xe3?'
p7892
tp7893
Rp7894
(dp7895
g11
g12
(g16
S'\x9e\x96\xbe\xcei9\x90\xbf'
p7896
tp7897
Rp7898
sg26
g12
(g16
S'M\xb7Bd}b\xad\xbf'
p7899
tp7900
Rp7901
sg30
g12
(g16
S'\xdb[\x93R);\xe3?'
p7902
tp7903
Rp7904
sg34
g12
(g16
S'\xe6\xb3?\x1f*\xf0\xd5?'
p7905
tp7906
Rp7907
sg38
g12
(g16
S'\x9c\xc5\xa9\x1bU\x18\x92\xbf'
p7908
tp7909
Rp7910
sg46
g12
(g16
S')\xb0\xc5\x9f3\x83\x9c?'
p7911
tp7912
Rp7913
sg50
g12
(g16
S'g\x1d\x95\x85\x06;\xc3?'
p7914
tp7915
Rp7916
sI14
Ntp7917
bI01
NF-inf
Finf
NNNg7888
Ntp7918
bag6
(g7
g8
Ntp7919
Rp7920
(g2145
g6
(g7
g8
Ntp7921
Rp7922
(g2148
I93261
I00
NF-inf
Finf
NI0
NI93261
Ntp7923
bI00
NF-inf
Finf
NNNg7922
Ntp7924
bag6
(g7
g8
Ntp7925
Rp7926
(g2504
g6
(g7
g8
Ntp7927
Rp7928
(g46
g12
(g16
S'\xa0\x0bK\x1a\xb4\x1c\x85?'
p7929
tp7930
Rp7931
I01
NI0
I1
Ng12
(g16
S'v\x19\xd1C\xe8\x81G?'
p7932
tp7933
Rp7934
(dp7935
g11
g12
(g16
S'>\xaa\x17~o\xb8\x94?'
p7936
tp7937
Rp7938
sg26
g12
(g16
S'\xb6\xce\x14$`\xcd!?'
p7939
tp7940
Rp7941
sg30
g12
(g16
S'1\xbb\x8dtw\xfd\xb7?'
p7942
tp7943
Rp7944
sg34
g12
(g16
S'\x97\x7f\x7f\xc6\xe1g\xe3\xbf'
p7945
tp7946
Rp7947
sg38
g12
(g16
S'\xa7Er\x9e\xe1Q\xb7?'
p7948
tp7949
Rp7950
sg42
g12
(g16
S'r\xa7\xc5\x9f3\x83\x9c?'
p7951
tp7952
Rp7953
sg50
g12
(g16
S'\x0f\xdcf\xb3+\xe4\x98?'
p7954
tp7955
Rp7956
sF0.5
Ntp7957
bI01
NF-inf
Finf
NNNg7928
Ntp7958
bag6
(g7
g8
Ntp7959
Rp7960
(g3255
g6
(g7
g8
Ntp7961
Rp7962
(g34
g12
(g16
S'\xfa\xb2t\xf8\xff\xff;@'
p7963
tp7964
Rp7965
I01
NI7
I28
Ng12
(g16
S'\xebdc^\xe71\xfb?'
p7966
tp7967
Rp7968
(dp7969
g11
g12
(g16
S'\xfc\xfaM\xb8\x8e\xe3y\xbf'
p7970
tp7971
Rp7972
sg26
g12
(g16
S'|\x83\x97\xee\x1bA\xad\xbf'
p7973
tp7974
Rp7975
sg30
g12
(g16
S'O8\xfc\xc2\xdcp\xa2\xbf'
p7976
tp7977
Rp7978
sg38
g12
(g16
S'\x19\xe4\x06g\xa4\x99\xc0\xbf'
p7979
tp7980
Rp7981
sg46
g12
(g16
S'^\x7f\x7f\xc6\xe1g\xe3\xbf'
p7982
tp7983
Rp7984
sg42
g12
(g16
S'\x93\xb4?\x1f*\xf0\xd5?'
p7985
tp7986
Rp7987
sg50
g12
(g16
S'y\xef\x8c?Z\xa5\xd2?'
p7988
tp7989
Rp7990
sI14
Ntp7991
bI01
NF-inf
Finf
NNNg7962
Ntp7992
bag6
(g7
g8
Ntp7993
Rp7994
(g3954
g6
(g7
g8
Ntp7995
Rp7996
(g3957
I93317
I00
NF-inf
Finf
NI0
NI93317
Ntp7997
bI00
NF-inf
Finf
NNNg7996
Ntp7998
bag6
(g7
g8
Ntp7999
Rp8000
(g3698
g6
(g7
g8
Ntp8001
Rp8002
(g38
g12
(g16
S'H5@}\xe8f\xa1?'
p8003
tp8004
Rp8005
I01
NI0
I1
Ng12
(g16
S'\x12\x17\x04\xe9\xd6\x98E?'
p8006
tp8007
Rp8008
(dp8009
g11
g12
(g16
S'\x89WX^L\x12\xba?'
p8010
tp8011
Rp8012
sg26
g12
(g16
S'\xee\x0bJ\xf1\x9d\x82\xc0?'
p8013
tp8014
Rp8015
sg30
g12
(g16
S'RsTE\x86\xf4\xa9?'
p8016
tp8017
Rp8018
sg34
g12
(g16
S';\xe3\x06g\xa4\x99\xc0\xbf'
p8019
tp8020
Rp8021
sg42
g12
(g16
S'\xc7\xac\xa9\x1bU\x18\x92\xbf'
p8022
tp8023
Rp8024
sg46
g12
(g16
S'\x0bBr\x9e\xe1Q\xb7?'
p8025
tp8026
Rp8027
sg50
g12
(g16
S'%\x8a4\xb9\x85o\xdd?'
p8028
tp8029
Rp8030
sF0.5
Ntp8031
bI01
NF-inf
Finf
NNNg8002
Ntp8032
bag6
(g7
g8
Ntp8033
Rp8034
(g2289
g6
(g7
g8
Ntp8035
Rp8036
(g50
g12
(g16
S'\xf6\xff\xff\xff\xff\xff;@'
p8037
tp8038
Rp8039
I01
NI7
I28
Ng12
(g16
S'\xc7\xc6>\xe2\x80N\xf4?'
p8040
tp8041
Rp8042
(dp8043
g11
g12
(g16
S'\x80y\xd7@#\xdc\x90?'
p8044
tp8045
Rp8046
sg26
g12
(g16
S'\xc9\xa8\x05\xa4\xbf4\xd3\xbf'
p8047
tp8048
Rp8049
sg30
g12
(g16
S'\xe4\x10\xf4\x03\xa2\xfc\xb4?'
p8050
tp8051
Rp8052
sg34
g12
(g16
S'\xc0\xee\x8c?Z\xa5\xd2?'
p8053
tp8054
Rp8055
sg38
g12
(g16
S'\xeb\x894\xb9\x85o\xdd?'
p8056
tp8057
Rp8058
sg46
g12
(g16
S'\xb2\xf3f\xb3+\xe4\x98?'
p8059
tp8060
Rp8061
sg42
g12
(g16
S'!\x1c\x95\x85\x06;\xc3?'
p8062
tp8063
Rp8064
sI14
Ntp8065
bI01
NF-inf
Finf
NNNg8036
Ntp8066
bag6
(g7
g8
Ntp8067
Rp8068
(g2742
g6
(g7
g8
Ntp8069
Rp8070
(g2745
I93373
I00
NF-inf
Finf
NI0
NI93373
Ntp8071
bI00
NF-inf
Finf
NNNg8070
Ntp8072
bag6
(g7
g8
Ntp8073
Rp8074
(g5
g6
(g7
g8
Ntp8075
Rp8076
(g11
g12
(g16
S'\x00t\xe2\xd8\x80\x0e\xa2?'
p8077
tp8078
Rp8079
I01
NI0
I1
Ng12
(g16
S'n\x07\xc9\xe8X\xbdG?'
p8080
tp8081
Rp8082
(dp8083
g26
g12
(g16
S'\xcb\xfd\x1d\xd6P)\xe5?'
p8084
tp8085
Rp8086
sg30
g12
(g16
S'\xf39t\xf4\xdd\xeb\x0f\xbf'
p8087
tp8088
Rp8089
sg34
g12
(g16
S'ClM\xb8\x8e\xe3y\xbf'
p8090
tp8091
Rp8092
sg38
g12
(g16
S'fYX^L\x12\xba?'
p8093
tp8094
Rp8095
sg46
g12
(g16
S'\xf2\x8b\x17~o\xb8\x94?'
p8096
tp8097
Rp8098
sg42
g12
(g16
S'\xfd\xf9\xbd\xcei9\x90\xbf'
p8099
tp8100
Rp8101
sg50
g12
(g16
S'\x03~\xd7@#\xdc\x90?'
p8102
tp8103
Rp8104
sF0.5
Ntp8105
bI01
NF-inf
Finf
NNNg8076
Ntp8106
bag6
(g7
g8
Ntp8107
Rp8108
(g3410
g6
(g7
g8
Ntp8109
Rp8110
(g26
g12
(g16
S'.\xc0$\xff\xff\xff;@'
p8111
tp8112
Rp8113
I01
NI7
I28
Ng12
(g16
S'\x05d\xc0"\xb7\x8f\xfe?'
p8114
tp8115
Rp8116
(dp8117
g11
g12
(g16
S'\x12\xfe\x1d\xd6P)\xe5?'
p8118
tp8119
Rp8120
sg30
g12
(g16
S'\xfc\x05}%\xa6T\x97\xbf'
p8121
tp8122
Rp8123
sg34
g12
(g16
S'9i\x97\xee\x1bA\xad\xbf'
p8124
tp8125
Rp8126
sg38
g12
(g16
S'3\x0bJ\xf1\x9d\x82\xc0?'
p8127
tp8128
Rp8129
sg46
g12
(g16
S'u\x90\xf5#`\xcd!?'
p8130
tp8131
Rp8132
sg42
g12
(g16
S'\xeaiBd}b\xad\xbf'
p8133
tp8134
Rp8135
sg50
g12
(g16
S'\xba\xa7\x05\xa4\xbf4\xd3\xbf'
p8136
tp8137
Rp8138
sI14
Ntp8139
bI01
NF-inf
Finf
NNNg8110
Ntp8140
bag6
(g7
g8
Ntp8141
Rp8142
(g1427
g6
(g7
g8
Ntp8143
Rp8144
(g1430
I93428
I00
NF-inf
Finf
NI0
NI93428
Ntp8145
bI00
NF-inf
Finf
NNNg8144
Ntp8146
bag6
(g7
g8
Ntp8147
Rp8148
(g2690
g6
(g7
g8
Ntp8149
Rp8150
(g2384
g12
(g16
S'0\xfbB\x1d\xe1 \x9c?'
p8151
tp8152
Rp8153
I01
NI0
I1
Ng12
(g16
S'\xc9{\x0cx\xed\xd5R?'
p8154
tp8155
Rp8156
(dp8157
g2392
g12
(g16
S'\x8c\x82/C9I\xe4\xbf'
p8158
tp8159
Rp8160
sg2388
g12
(g16
S'\xae+\nLsD\xab\xbf'
p8161
tp8162
Rp8163
sg2376
g12
(g16
S'y\x0ez\xba\xd6B\xbf?'
p8164
tp8165
Rp8166
sF0.5
Ntp8167
bI01
NF-inf
Finf
NNNg8150
Ntp8168
bag6
(g7
g8
Ntp8169
Rp8170
(g3985
g6
(g7
g8
Ntp8171
Rp8172
(g2392
g12
(g16
S'\xfa\xcd\xeb\xfb\xff\xff;@'
p8173
tp8174
Rp8175
I01
NI7
I28
Ng12
(g16
S'G\x1aL\xeeA\n\x00@'
p8176
tp8177
Rp8178
(dp8179
g2384
g12
(g16
S'\x8c\x82/C9I\xe4\xbf'
p8180
tp8181
Rp8182
sg2388
g12
(g16
S',\xd6*#\xd78\xd6\xbf'
p8183
tp8184
Rp8185
sg2376
g12
(g16
S'8\xfa5\xff\xf1\x9d\xa9\xbf'
p8186
tp8187
Rp8188
sI14
Ntp8189
bI01
NF-inf
Finf
NNNg8172
Ntp8190
bag6
(g7
g8
Ntp8191
Rp8192
(g3222
g6
(g7
g8
Ntp8193
Rp8194
(g3225
I93490
I00
NF-inf
Finf
NI0
NI93490
Ntp8195
bI00
NF-inf
Finf
NNNg8194
Ntp8196
bag6
(g7
g8
Ntp8197
Rp8198
(g2373
g6
(g7
g8
Ntp8199
Rp8200
(g2376
g12
(g16
S'\xf8X\x0f\x0f\x95\xeb\xa4?'
p8201
tp8202
Rp8203
I01
NI0
I1
Ng12
(g16
S'\x9e\xd83\x10[\xe1R?'
p8204
tp8205
Rp8206
(dp8207
g2384
g12
(g16
S'b\x0ez\xba\xd6B\xbf?'
p8208
tp8209
Rp8210
sg2388
g12
(g16
S'\x9d\xb3\xe6>\x97a\xe4\xbf'
p8211
tp8212
Rp8213
sg2392
g12
(g16
S'\x9f\xf95\xff\xf1\x9d\xa9\xbf'
p8214
tp8215
Rp8216
sF0.5
Ntp8217
bI01
NF-inf
Finf
NNNg8200
Ntp8218
bag6
(g7
g8
Ntp8219
Rp8220
(g4719
g6
(g7
g8
Ntp8221
Rp8222
(g2388
g12
(g16
S'\xe7-\xfb\xff\xff\xff;@'
p8223
tp8224
Rp8225
I01
NI7
I28
Ng12
(g16
S'\xf78.%\xca\xea\xf5?'
p8226
tp8227
Rp8228
(dp8229
g2384
g12
(g16
S'\x8a+\nLsD\xab\xbf'
p8230
tp8231
Rp8232
sg2376
g12
(g16
S'\x99\xb3\xe6>\x97a\xe4\xbf'
p8233
tp8234
Rp8235
sg2392
g12
(g16
S'9\xd6*#\xd78\xd6\xbf'
p8236
tp8237
Rp8238
sI14
Ntp8239
bI01
NF-inf
Finf
NNNg8222
Ntp8240
bag6
(g7
g8
Ntp8241
Rp8242
(g2084
g6
(g7
g8
Ntp8243
Rp8244
(g2087
I93542
I00
NF-inf
Finf
NI0
NI93542
Ntp8245
bI00
NF-inf
Finf
NNNg8244
Ntp8246
bag6
(g7
g8
Ntp8247
Rp8248
(g2244
g6
(g7
g8
Ntp8249
Rp8250
(g1743
g12
(g16
S'0\xeb~\x1b\x82\xa7\x97?'
p8251
tp8252
Rp8253
I01
NI0
I1
Ng12
(g16
S'4\xb2\xb8\x01\x92\x11P?'
p8254
tp8255
Rp8256
(dp8257
g1735
g12
(g16
S'O\xe5\x05\x90g\x12\xc2?'
p8258
tp8259
Rp8260
sg1739
g12
(g16
S'\x9eM\xc9KL\xb7\xb3?'
p8261
tp8262
Rp8263
sg1727
g12
(g16
S'f\x95\xc7\xe0\xf0\xd7\xe3?'
p8264
tp8265
Rp8266
sF0.5
Ntp8267
bI01
NF-inf
Finf
NNNg8250
Ntp8268
bag6
(g7
g8
Ntp8269
Rp8270
(g1724
g6
(g7
g8
Ntp8271
Rp8272
(g1727
g12
(g16
S',\xcf\xfd\xff\xff\xff;@'
p8273
tp8274
Rp8275
I01
NI7
I28
Ng12
(g16
S',\xe3\xfe,\xa4\xe3\xe3?'
p8276
tp8277
Rp8278
(dp8279
g1735
g12
(g16
S'z\xe6\xcd\xedJ\xbb\xb3?'
p8280
tp8281
Rp8282
sg1739
g12
(g16
S'\x1f5\x8fw\x1c\x8a\xd6\xbf'
p8283
tp8284
Rp8285
sg1743
g12
(g16
S'e\x95\xc7\xe0\xf0\xd7\xe3?'
p8286
tp8287
Rp8288
sI14
Ntp8289
bI01
NF-inf
Finf
NNNg8272
Ntp8290
bag6
(g7
g8
Ntp8291
Rp8292
(g848
g6
(g7
g8
Ntp8293
Rp8294
(g851
I93610
I00
NF-inf
Finf
NI0
NI93610
Ntp8295
bI00
NF-inf
Finf
NNNg8294
Ntp8296
bag6
(g7
g8
Ntp8297
Rp8298
(g2397
g6
(g7
g8
Ntp8299
Rp8300
(g1735
g12
(g16
S'p\xab\xfd\xd7\x88\x04\x9c?'
p8301
tp8302
Rp8303
I01
NI0
I1
Ng12
(g16
S'B\xcf\x82\xab=\x11P?'
p8304
tp8305
Rp8306
(dp8307
g1739
g12
(g16
S'\xb5\xc3\x8c#A\xd7\xe3?'
p8308
tp8309
Rp8310
sg1727
g12
(g16
S'o\xe6\xcd\xedJ\xbb\xb3?'
p8311
tp8312
Rp8313
sg1743
g12
(g16
S'W\xe5\x05\x90g\x12\xc2?'
p8314
tp8315
Rp8316
sF0.5
Ntp8317
bI01
NF-inf
Finf
NNNg8300
Ntp8318
bag6
(g7
g8
Ntp8319
Rp8320
(g2961
g6
(g7
g8
Ntp8321
Rp8322
(g1739
g12
(g16
S'\xb5\x1a\xd9\xff\xff\xff;@'
p8323
tp8324
Rp8325
I01
NI7
I28
Ng12
(g16
S'\xc1^\xd0h\xd6\x0c\xe2?'
p8326
tp8327
Rp8328
(dp8329
g1735
g12
(g16
S'\xb5\xc3\x8c#A\xd7\xe3?'
p8330
tp8331
Rp8332
sg1727
g12
(g16
S'"5\x8fw\x1c\x8a\xd6\xbf'
p8333
tp8334
Rp8335
sg1743
g12
(g16
S'\xb2M\xc9KL\xb7\xb3?'
p8336
tp8337
Rp8338
sI14
Ntp8339
bI01
NF-inf
Finf
NNNg8322
Ntp8340
bag6
(g7
g8
Ntp8341
Rp8342
(g3085
g6
(g7
g8
Ntp8343
Rp8344
(g3088
I93659
I00
NF-inf
Finf
NI0
NI93659
Ntp8345
bI00
NF-inf
Finf
NNNg8344
Ntp8346
bag6
(g7
g8
Ntp8347
Rp8348
(g2269
g6
(g7
g8
Ntp8349
Rp8350
(g452
g12
(g16
S'\x10\xc8"\xf7-s\x92?'
p8351
tp8352
Rp8353
I01
NI0
I1
Ng12
(g16
S'L=MB\xb90D?'
p8354
tp8355
Rp8356
(dp8357
g448
g12
(g16
S'7?\x86\x11\xf0\xdd\xae\xbf'
p8358
tp8359
Rp8360
sg440
g12
(g16
S'\xdbj\xe4\rF/\xe4\xbf'
p8361
tp8362
Rp8363
sg456
g12
(g16
S'\xd5\x13U_\x0b\xa7\xc0?'
p8364
tp8365
Rp8366
sF0.5
Ntp8367
bI01
NF-inf
Finf
NNNg8350
Ntp8368
bag6
(g7
g8
Ntp8369
Rp8370
(g437
g6
(g7
g8
Ntp8371
Rp8372
(g440
g12
(g16
S'\x9c\x14\xff\xff\xff\xff;@'
p8373
tp8374
Rp8375
I01
NI7
I28
Ng12
(g16
S"E2\x131'R\xfa?"
p8376
tp8377
Rp8378
(dp8379
g448
g12
(g16
S'x\x05\x0c_\x198\xd6\xbf'
p8380
tp8381
Rp8382
sg452
g12
(g16
S'\xdaj\xe4\rF/\xe4\xbf'
p8383
tp8384
Rp8385
sg456
g12
(g16
S'\x95\x8f\x0c\xff\xfcF\xb0\xbf'
p8386
tp8387
Rp8388
sI14
Ntp8389
bI01
NF-inf
Finf
NNNg8372
Ntp8390
bag6
(g7
g8
Ntp8391
Rp8392
(g2916
g6
(g7
g8
Ntp8393
Rp8394
(g2919
I93731
I00
NF-inf
Finf
NI0
NI93731
Ntp8395
bI00
NF-inf
Finf
NNNg8394
Ntp8396
bag6
(g7
g8
Ntp8397
Rp8398
(g3018
g6
(g7
g8
Ntp8399
Rp8400
(g456
g12
(g16
S'\xc0\x7f\xd0\x85\x9f\xe4\x90?'
p8401
tp8402
Rp8403
I01
NI0
I1
Ng12
(g16
S'iy\x99\xe8\x030D?'
p8404
tp8405
Rp8406
(dp8407
g448
g12
(g16
S'P\xe1[\xfc\xdc"\xe4\xbf'
p8408
tp8409
Rp8410
sg452
g12
(g16
S'\xdc\x13U_\x0b\xa7\xc0?'
p8411
tp8412
Rp8413
sg440
g12
(g16
S'\xba\x8f\x0c\xff\xfcF\xb0\xbf'
p8414
tp8415
Rp8416
sF0.5
Ntp8417
bI01
NF-inf
Finf
NNNg8400
Ntp8418
bag6
(g7
g8
Ntp8419
Rp8420
(g3552
g6
(g7
g8
Ntp8421
Rp8422
(g448
g12
(g16
S'\xc1\x8e\x9e\xff\xff\xff;@'
p8423
tp8424
Rp8425
I01
NI7
I28
Ng12
(g16
S'\x15\xd3\xdfb\xee\xb7\xfc?'
p8426
tp8427
Rp8428
(dp8429
g456
g12
(g16
S'P\xe1[\xfc\xdc"\xe4\xbf'
p8430
tp8431
Rp8432
sg452
g12
(g16
S'\x83?\x86\x11\xf0\xdd\xae\xbf'
p8433
tp8434
Rp8435
sg440
g12
(g16
S'n\x05\x0c_\x198\xd6\xbf'
p8436
tp8437
Rp8438
sI14
Ntp8439
bI01
NF-inf
Finf
NNNg8422
Ntp8440
bag6
(g7
g8
Ntp8441
Rp8442
(g4005
g6
(g7
g8
Ntp8443
Rp8444
(g4008
I93782
I00
NF-inf
Finf
NI0
NI93782
Ntp8445
bI00
NF-inf
Finf
NNNg8444
Ntp8446
bag6
(g7
g8
Ntp8447
Rp8448
(g4466
g6
(g7
g8
Ntp8449
Rp8450
(g2832
g12
(g16
S'@\x002\x9c\xecR\x7f?'
p8451
tp8452
Rp8453
I01
NI0
I1
Ng12
(g16
S"\x93\xca\x82'\x14\x148?"
p8454
tp8455
Rp8456
(dp8457
g2840
g12
(g16
S'\xac\xabc\xbd\x0f\xa9\xe3\xbf'
p8458
tp8459
Rp8460
sg2836
g12
(g16
S'\xb4\xc1\xb2\xc0d\xfb\xc2?'
p8461
tp8462
Rp8463
sg2824
g12
(g16
S'X\x8db\xab14\xb6\xbf'
p8464
tp8465
Rp8466
sF0.5
Ntp8467
bI01
NF-inf
Finf
NNNg8450
Ntp8468
bag6
(g7
g8
Ntp8469
Rp8470
(g3887
g6
(g7
g8
Ntp8471
Rp8472
(g2840
g12
(g16
S'\r\x0b$\xef\xff\xff;@'
p8473
tp8474
Rp8475
I01
NI7
I28
Ng12
(g16
S'\x05\xb9\x90\xb8\xb6\xbe\x02@'
p8476
tp8477
Rp8478
(dp8479
g2832
g12
(g16
S'\xab\xabc\xbd\x0f\xa9\xe3\xbf'
p8480
tp8481
Rp8482
sg2836
g12
(g16
S'~\x15Y8\xc0;\xb6\xbf'
p8483
tp8484
Rp8485
sg2824
g12
(g16
S'n\xe2\xbb\xbe\x1b\xa0\xd6\xbf'
p8486
tp8487
Rp8488
sI14
Ntp8489
bI01
NF-inf
Finf
NNNg8472
Ntp8490
bag6
(g7
g8
Ntp8491
Rp8492
(g1432
g6
(g7
g8
Ntp8493
Rp8494
(g1435
I93853
I00
NF-inf
Finf
NI0
NI93853
Ntp8495
bI00
NF-inf
Finf
NNNg8494
Ntp8496
bag6
(g7
g8
Ntp8497
Rp8498
(g3160
g6
(g7
g8
Ntp8499
Rp8500
(g2836
g12
(g16
S'\x80_\xa1c?7{?'
p8501
tp8502
Rp8503
I01
NI0
I1
Ng12
(g16
S'\x83\x8b\xc3\t\xf4\x138?'
p8504
tp8505
Rp8506
(dp8507
g2832
g12
(g16
S'\xbd\xc1\xb2\xc0d\xfb\xc2?'
p8508
tp8509
Rp8510
sg2840
g12
(g16
S'\xb5\x15Y8\xc0;\xb6\xbf'
p8511
tp8512
Rp8513
sg2824
g12
(g16
S'J\xec\xe5\xe2\x7f\xa8\xe3\xbf'
p8514
tp8515
Rp8516
sF0.5
Ntp8517
bI01
NF-inf
Finf
NNNg8500
Ntp8518
bag6
(g7
g8
Ntp8519
Rp8520
(g2821
g6
(g7
g8
Ntp8521
Rp8522
(g2824
g12
(g16
S'=\x91\xd8\xfd\xff\xff;@'
p8523
tp8524
Rp8525
I01
NI7
I28
Ng12
(g16
S'\x8b\xef[\x0b\x85\x90\x05@'
p8526
tp8527
Rp8528
(dp8529
g2832
g12
(g16
S'`\x8db\xab14\xb6\xbf'
p8530
tp8531
Rp8532
sg2836
g12
(g16
S'O\xec\xe5\xe2\x7f\xa8\xe3\xbf'
p8533
tp8534
Rp8535
sg2840
g12
(g16
S'g\xe2\xbb\xbe\x1b\xa0\xd6\xbf'
p8536
tp8537
Rp8538
sI14
Ntp8539
bI01
NF-inf
Finf
NNNg8522
Ntp8540
bag6
(g7
g8
Ntp8541
Rp8542
(g1662
g6
(g7
g8
Ntp8543
Rp8544
(g1665
I93901
I00
NF-inf
Finf
NI0
NI93901
Ntp8545
bI00
NF-inf
Finf
NNNg8544
Ntp8546
bag6
(g7
g8
Ntp8547
Rp8548
(g908
g6
(g7
g8
Ntp8549
Rp8550
(g911
g12
(g16
S'\xa0o\xdb\xe3Vk\x90?'
p8551
tp8552
Rp8553
I01
NI0
I1
Ng12
(g16
S'\x7fl\xb9\x1b\xb462?'
p8554
tp8555
Rp8556
(dp8557
g919
g12
(g16
S'\t\x1b\xda%\xf1\xe2\xe6?'
p8558
tp8559
Rp8560
sF0.5
Ntp8561
bI01
NF-inf
Finf
NNNg8550
Ntp8562
bag6
(g7
g8
Ntp8563
Rp8564
(g4739
g6
(g7
g8
Ntp8565
Rp8566
(g919
g12
(g16
S'/\xe9\xbb\xff\xff\xff;@'
p8567
tp8568
Rp8569
I01
NI7
I28
Ng12
(g16
S'\xf7\x12\x8e\xf3\x9b\xd3\xf6?'
p8570
tp8571
Rp8572
(dp8573
g911
g12
(g16
S'\t\x1b\xda%\xf1\xe2\xe6?'
p8574
tp8575
Rp8576
sI14
Ntp8577
bI01
NF-inf
Finf
NNNg8566
Ntp8578
bag6
(g7
g8
Ntp8579
Rp8580
(g3080
g6
(g7
g8
Ntp8581
Rp8582
(g3083
I95106
I00
NF-inf
Finf
NI0
NI95106
Ntp8583
bI00
NF-inf
Finf
NNNg8582
Ntp8584
bag6
(g7
g8
Ntp8585
Rp8586
(g3188
g6
(g7
g8
Ntp8587
Rp8588
(g3191
g12
(g16
S'\x10o\xc7\xea\xefs\x9d?'
p8589
tp8590
Rp8591
I01
NI0
I1
Ng12
(g16
S'\xb4\xc2\x17\x17\xd4\x84A?'
p8592
tp8593
Rp8594
(dp8595
g3199
g12
(g16
S'V\xd6\x9cd(\xe4\xe6?'
p8596
tp8597
Rp8598
sF0.5
Ntp8599
bI01
NF-inf
Finf
NNNg8588
Ntp8600
bag6
(g7
g8
Ntp8601
Rp8602
(g3614
g6
(g7
g8
Ntp8603
Rp8604
(g3199
g12
(g16
S"m'\x00\xff\xff\xff;@"
p8605
tp8606
Rp8607
I01
NI7
I28
Ng12
(g16
S'\xf3\xe0\r!\xbf\xb4\x13@'
p8608
tp8609
Rp8610
(dp8611
g3191
g12
(g16
S'V\xd6\x9cd(\xe4\xe6?'
p8612
tp8613
Rp8614
sI14
Ntp8615
bI01
NF-inf
Finf
NNNg8604
Ntp8616
bag6
(g7
g8
Ntp8617
Rp8618
(g3949
g6
(g7
g8
Ntp8619
Rp8620
(g3952
I95225
I00
NF-inf
Finf
NI0
NI95225
Ntp8621
bI00
NF-inf
Finf
NNNg8620
Ntp8622
bag6
(g7
g8
Ntp8623
Rp8624
(g4189
g6
(g7
g8
Ntp8625
Rp8626
(g4192
g12
(g16
S'`\xe8\xba@A\xe9\x9f?'
p8627
tp8628
Rp8629
I01
NI0
I1
Ng12
(g16
S'r NQ\x08\xffB?'
p8630
tp8631
Rp8632
(dp8633
g4200
g12
(g16
S'\x84P\xd4_\xa2\xe6\xe6\xbf'
p8634
tp8635
Rp8636
sF0.5
Ntp8637
bI01
NF-inf
Finf
NNNg8626
Ntp8638
bag6
(g7
g8
Ntp8639
Rp8640
(g4611
g6
(g7
g8
Ntp8641
Rp8642
(g4200
g12
(g16
S'\x96\r\xf4\xff\xff\xff;@'
p8643
tp8644
Rp8645
I01
NI7
I28
Ng12
(g16
S'\xbb)\x13k\xaf\x95\xea?'
p8646
tp8647
Rp8648
(dp8649
g4192
g12
(g16
S'\x84P\xd4_\xa2\xe6\xe6\xbf'
p8650
tp8651
Rp8652
sI14
Ntp8653
bI01
NF-inf
Finf
NNNg8642
Ntp8654
bag6
(g7
g8
Ntp8655
Rp8656
(g1529
g6
(g7
g8
Ntp8657
Rp8658
(g1532
I95343
I00
NF-inf
Finf
NI0
NI95343
Ntp8659
bI00
NF-inf
Finf
NNNg8658
Ntp8660
bag6
(g7
g8
Ntp8661
Rp8662
(g690
g6
(g7
g8
Ntp8663
Rp8664
(g693
g12
(g16
S'\xf0s\xec\x85V$\x9a?'
p8665
tp8666
Rp8667
I01
NI0
I1
Ng12
(g16
S'\x86\xa9\xae\x95h\x19B?'
p8668
tp8669
Rp8670
(dp8671
g701
g12
(g16
S'\x8ea\xdf\xc7W\xe2\xe6?'
p8672
tp8673
Rp8674
sF0.5
Ntp8675
bI01
NF-inf
Finf
NNNg8664
Ntp8676
bag6
(g7
g8
Ntp8677
Rp8678
(g2794
g6
(g7
g8
Ntp8679
Rp8680
(g701
g12
(g16
S';T\xf7\xff\xff\xff;@'
p8681
tp8682
Rp8683
I01
NI7
I28
Ng12
(g16
S'\x16\x17\x96\xa8\x94\x96\xe3?'
p8684
tp8685
Rp8686
(dp8687
g693
g12
(g16
S'\x8ea\xdf\xc7W\xe2\xe6?'
p8688
tp8689
Rp8690
sI14
Ntp8691
bI01
NF-inf
Finf
NNNg8680
Ntp8692
bag6
(g7
g8
Ntp8693
Rp8694
(g3217
g6
(g7
g8
Ntp8695
Rp8696
(g3220
I95462
I00
NF-inf
Finf
NI0
NI95462
Ntp8697
bI00
NF-inf
Finf
NNNg8696
Ntp8698
bag6
(g7
g8
Ntp8699
Rp8700
(g783
g6
(g7
g8
Ntp8701
Rp8702
(g786
g12
(g16
S'\xe0\xd0M401\x8e?'
p8703
tp8704
Rp8705
I01
NI0
I1
Ng12
(g16
S'\xeam\xc9\xbb\xfe\x9a8?'
p8706
tp8707
Rp8708
(dp8709
g794
g12
(g16
S'\x8fGtK3\xe3\xe6?'
p8710
tp8711
Rp8712
sF0.5
Ntp8713
bI01
NF-inf
Finf
NNNg8702
Ntp8714
bag6
(g7
g8
Ntp8715
Rp8716
(g4412
g6
(g7
g8
Ntp8717
Rp8718
(g794
g12
(g16
S'\xcc\x0b\xd6\xfe\xff\xff;@'
p8719
tp8720
Rp8721
I01
NI7
I28
Ng12
(g16
S'\xc2\xc2\x18\xb1\xdf3 @'
p8722
tp8723
Rp8724
(dp8725
g786
g12
(g16
S'\x8fGtK3\xe3\xe6?'
p8726
tp8727
Rp8728
sI14
Ntp8729
bI01
NF-inf
Finf
NNNg8718
Ntp8730
bag6
(g7
g8
Ntp8731
Rp8732
(g3095
g6
(g7
g8
Ntp8733
Rp8734
(g3098
I95581
I00
NF-inf
Finf
NI0
NI95581
Ntp8735
bI00
NF-inf
Finf
NNNg8734
Ntp8736
bag6
(g7
g8
Ntp8737
Rp8738
(g2953
g6
(g7
g8
Ntp8739
Rp8740
(g2956
g12
(g16
S'\x80#\xa8\x0e\x1c1x?'
p8741
tp8742
Rp8743
I01
NI0
I1
NNNF0.5
Ntp8744
bI01
NF-inf
Finf
NNNg8740
Ntp8745
bag6
(g7
g8
Ntp8746
Rp8747
(g4379
g6
(g7
g8
Ntp8748
Rp8749
(g4382
g12
(g16
S'\x00\x00\x00\x00\x00\x00<@'
p8750
tp8751
Rp8752
I01
NI7
I28
NNNI14
Ntp8753
bI01
NF-inf
Finf
NNNg8749
Ntp8754
bag6
(g7
g8
Ntp8755
Rp8756
(g2850
g6
(g7
g8
Ntp8757
Rp8758
(g2853
I98704
I00
NF-inf
Finf
NNNI98704
Ntp8759
bI00
NF-inf
Finf
NNNg8758
Ntp8760
bag6
(g7
g8
Ntp8761
Rp8762
(g2365
g6
(g7
g8
Ntp8763
Rp8764
(g2368
g12
(g16
S'\x80\x80\x86\x19\x92\xeel?'
p8765
tp8766
Rp8767
I01
NI0
I1
NNNF0.5
Ntp8768
bI01
NF-inf
Finf
NNNg8764
Ntp8769
bag6
(g7
g8
Ntp8770
Rp8771
(g2155
g6
(g7
g8
Ntp8772
Rp8773
(g2158
g12
(g16
S'#\x90O\xfd\xf6\xff;@'
p8774
tp8775
Rp8776
I01
NI7
I28
NNNI14
Ntp8777
bI01
NF-inf
Finf
NNNg8773
Ntp8778
bag6
(g7
g8
Ntp8779
Rp8780
(g4096
g6
(g7
g8
Ntp8781
Rp8782
(g4099
I98729
I00
NF-inf
Finf
NNNI98729
Ntp8783
bI00
NF-inf
Finf
NNNg8782
Ntp8784
bag6
(g7
g8
Ntp8785
Rp8786
(g4269
g6
(g7
g8
Ntp8787
Rp8788
(g4272
g12
(g16
S' I\xa2L\x99\x95\x82?'
p8789
tp8790
Rp8791
I01
NI0
I1
NNNF0.5
Ntp8792
bI01
NF-inf
Finf
NNNg8788
Ntp8793
bag6
(g7
g8
Ntp8794
Rp8795
(g677
g6
(g7
g8
Ntp8796
Rp8797
(g680
g12
(g16
S'\xe1x\xfd\xff\xff\xff;@'
p8798
tp8799
Rp8800
I01
NI7
I28
NNNI14
Ntp8801
bI01
NF-inf
Finf
NNNg8797
Ntp8802
bag6
(g7
g8
Ntp8803
Rp8804
(g142
g6
(g7
g8
Ntp8805
Rp8806
(g145
I98759
I00
NF-inf
Finf
NNNI98759
Ntp8807
bI00
NF-inf
Finf
NNNg8806
Ntp8808
bag6
(g7
g8
Ntp8809
Rp8810
(g854
g6
(g7
g8
Ntp8811
Rp8812
(g224
g12
(g16
S'\x84\xf3\xfb|RZ\xbd?'
p8813
tp8814
Rp8815
I01
NI0
I1
Ng12
(g16
S'\xd3\r\xf6\x0f\x8fNg?'
p8816
tp8817
Rp8818
(dp8819
g216
g12
(g16
S'\x8e^G\x06$t\xe4\xbf'
p8820
tp8821
Rp8822
sF0.5
Ntp8823
bI01
NF-inf
Finf
NNNg8812
Ntp8824
bag6
(g7
g8
Ntp8825
Rp8826
(g213
g6
(g7
g8
Ntp8827
Rp8828
(g216
g12
(g16
S'\xd7\xe5\xc8\xfd\xff\xff;@'
p8829
tp8830
Rp8831
I01
NI7
I28
Ng12
(g16
S'\xf5\xb2\xc9\x9f\xfdB\xf5?'
p8832
tp8833
Rp8834
(dp8835
g224
g12
(g16
S'\x8e^G\x06$t\xe4\xbf'
p8836
tp8837
Rp8838
sI14
Ntp8839
bI01
NF-inf
Finf
NNNg8828
Ntp8840
bag6
(g7
g8
Ntp8841
Rp8842
(g2617
g6
(g7
g8
Ntp8843
Rp8844
(g2620
I98882
I00
NF-inf
Finf
NI0
NI98882
Ntp8845
bI00
NF-inf
Finf
NNNg8844
Ntp8846
bag6
(g7
g8
Ntp8847
Rp8848
(g55
g6
(g7
g8
Ntp8849
Rp8850
(g58
g12
(g16
S'\xf62(\xc8\xe3\x0c\xc9?'
p8851
tp8852
Rp8853
I01
NI0
I1
Ng12
(g16
S',\x10\xc5\x18X?p?'
p8854
tp8855
Rp8856
(dp8857
g66
g12
(g16
S'\xfcT\x07"\xea\x15\xb9\xbf'
p8858
tp8859
Rp8860
sg70
g12
(g16
S'\xb8\x02]Bas\xe3\xbf'
p8861
tp8862
Rp8863
sg74
g12
(g16
S'S\xc0\xed\x82\x10\xfe\xc3?'
p8864
tp8865
Rp8866
sF0.5
Ntp8867
bI01
NF-inf
Finf
NNNg8850
Ntp8868
bag6
(g7
g8
Ntp8869
Rp8870
(g4519
g6
(g7
g8
Ntp8871
Rp8872
(g70
g12
(g16
S'\x93\x0ec\xff\xff\xff;@'
p8873
tp8874
Rp8875
I01
NI7
I28
Ng12
(g16
S'kU\xbc,\x85\xb4\xef?'
p8876
tp8877
Rp8878
(dp8879
g58
g12
(g16
S'\xba\x02]Bas\xe3\xbf'
p8880
tp8881
Rp8882
sg66
g12
(g16
S'\xda&\x1b8w\xa7\xd6\xbf'
p8883
tp8884
Rp8885
sg74
g12
(g16
S'v6\x0bh\xee\x11\xb9\xbf'
p8886
tp8887
Rp8888
sI14
Ntp8889
bI01
NF-inf
Finf
NNNg8872
Ntp8890
bag6
(g7
g8
Ntp8891
Rp8892
(g2747
g6
(g7
g8
Ntp8893
Rp8894
(g2750
I98955
I00
NF-inf
Finf
NI0
NI98955
Ntp8895
bI00
NF-inf
Finf
NNNg8894
Ntp8896
bag6
(g7
g8
Ntp8897
Rp8898
(g1568
g6
(g7
g8
Ntp8899
Rp8900
(g74
g12
(g16
S'T\xd8g?\xd7}\xc9?'
p8901
tp8902
Rp8903
I01
NI0
I1
Ng12
(g16
S'\xdd\x02?\xf0YBp?'
p8904
tp8905
Rp8906
(dp8907
g58
g12
(g16
S'P\xc0\xed\x82\x10\xfe\xc3?'
p8908
tp8909
Rp8910
sg66
g12
(g16
S'\xdf\xb8\xdd\xe1\xcbw\xe3\xbf'
p8911
tp8912
Rp8913
sg70
g12
(g16
S'L6\x0bh\xee\x11\xb9\xbf'
p8914
tp8915
Rp8916
sF0.5
Ntp8917
bI01
NF-inf
Finf
NNNg8900
Ntp8918
bag6
(g7
g8
Ntp8919
Rp8920
(g3532
g6
(g7
g8
Ntp8921
Rp8922
(g66
g12
(g16
S'J\x16l\xfb\xff\xff;@'
p8923
tp8924
Rp8925
I01
NI7
I28
Ng12
(g16
S'\xd1\xa9V&\x1e7\xef?'
p8926
tp8927
Rp8928
(dp8929
g58
g12
(g16
S'\xfcT\x07"\xea\x15\xb9\xbf'
p8930
tp8931
Rp8932
sg70
g12
(g16
S'\xe2&\x1b8w\xa7\xd6\xbf'
p8933
tp8934
Rp8935
sg74
g12
(g16
S'\xdd\xb8\xdd\xe1\xcbw\xe3\xbf'
p8936
tp8937
Rp8938
sI14
Ntp8939
bI01
NF-inf
Finf
NNNg8922
Ntp8940
bag6
(g7
g8
Ntp8941
Rp8942
(g1469
g6
(g7
g8
Ntp8943
Rp8944
(g1472
I99002
I00
NF-inf
Finf
NI0
NI99002
Ntp8945
bI00
NF-inf
Finf
NNNg8944
Ntp8946
bag6
(g7
g8
Ntp8947
Rp8948
(g418
g6
(g7
g8
Ntp8949
Rp8950
(g298
g12
(g16
S'n\xc5\xcc\xa5\x85f\xcb?'
p8951
tp8952
Rp8953
I01
NI0
I1
Ng12
(g16
S'\x9f\xd2\x01Y\xca\x93w?'
p8954
tp8955
Rp8956
(dp8957
g290
g12
(g16
S'%\xbfp\xf7%\xe2\xe6?'
p8958
tp8959
Rp8960
sF0.5
Ntp8961
bI01
NF-inf
Finf
NNNg8950
Ntp8962
bag6
(g7
g8
Ntp8963
Rp8964
(g287
g6
(g7
g8
Ntp8965
Rp8966
(g290
g12
(g16
S'\xbb\xc2\xf3\xff\xff\xff;@'
p8967
tp8968
Rp8969
I01
NI7
I28
Ng12
(g16
S'#5\xda\xea?\x1f\xce?'
p8970
tp8971
Rp8972
(dp8973
g298
g12
(g16
S'%\xbfp\xf7%\xe2\xe6?'
p8974
tp8975
Rp8976
sI14
Ntp8977
bI01
NF-inf
Finf
NNNg8966
Ntp8978
bag6
(g7
g8
Ntp8979
Rp8980
(g147
g6
(g7
g8
Ntp8981
Rp8982
(g150
I99066
I00
NF-inf
Finf
NI0
NI99066
Ntp8983
bI00
NF-inf
Finf
NNNg8982
Ntp8984
bag6
(g7
g8
Ntp8985
Rp8986
(g3933
g6
(g7
g8
Ntp8987
Rp8988
(g3936
g12
(g16
S'L\x06y\xe0#$\xbf?'
p8989
tp8990
Rp8991
I01
NI0
I1
Ng12
(g16
S'l\xd5\xe9\xd7A0x?'
p8992
tp8993
Rp8994
(dp8995
g3944
g12
(g16
S'2\x801(\x19\xe2\xe6\xbf'
p8996
tp8997
Rp8998
sF0.5
Ntp8999
bI01
NF-inf
Finf
NNNg8988
Ntp9000
bag6
(g7
g8
Ntp9001
Rp9002
(g4661
g6
(g7
g8
Ntp9003
Rp9004
(g3944
g12
(g16
S'\xb8\x1d\x86\xf9\xff\xff;@'
p9005
tp9006
Rp9007
I01
NI7
I28
Ng12
(g16
S'7\xc4\xd0\xd9qQ\x01@'
p9008
tp9009
Rp9010
(dp9011
g3936
g12
(g16
S'2\x801(\x19\xe2\xe6\xbf'
p9012
tp9013
Rp9014
sI14
Ntp9015
bI01
NF-inf
Finf
NNNg9004
Ntp9016
bag6
(g7
g8
Ntp9017
Rp9018
(g3730
g6
(g7
g8
Ntp9019
Rp9020
(g3733
I99123
I00
NF-inf
Finf
NI0
NI99123
Ntp9021
bI00
NF-inf
Finf
NNNg9020
Ntp9022
bag6
(g7
g8
Ntp9023
Rp9024
(g3363
g6
(g7
g8
Ntp9025
Rp9026
(g195
g12
(g16
S'\xb0\x91\x04\xb3\xb7\xd0\x93?'
p9027
tp9028
Rp9029
I01
NI0
I1
Ng12
(g16
S'`\n\xd8\xe7\xadWd?'
p9030
tp9031
Rp9032
(dp9033
g199
g12
(g16
S'\xd2\x90\x10\xbe\xf8\xe3\xe1\xbf'
p9034
tp9035
Rp9036
sg187
g12
(g16
S'\x1d=4\xca\xe2\xd5\xbe?'
p9037
tp9038
Rp9039
sg203
g12
(g16
S'\x8c\xdb;\xe8\xa5\xc1\xd4?'
p9040
tp9041
Rp9042
sF0.5
Ntp9043
bI01
NF-inf
Finf
NNNg9026
Ntp9044
bag6
(g7
g8
Ntp9045
Rp9046
(g2168
g6
(g7
g8
Ntp9047
Rp9048
(g203
g12
(g16
S'\xe7\xf6\xb3\xfe\xff\xff;@'
p9049
tp9050
Rp9051
I01
NI7
I28
Ng12
(g16
S'G\xe9\xd8\xb7\xbd\xc3\x11@'
p9052
tp9053
Rp9054
(dp9055
g195
g12
(g16
S'\x89\xdb;\xe8\xa5\xc1\xd4?'
p9056
tp9057
Rp9058
sg199
g12
(g16
S'\xba\xf7\x16J\x96\x11\xc2?'
p9059
tp9060
Rp9061
sg187
g12
(g16
S'\xa2(\xb0b+\xe4\xe1?'
p9062
tp9063
Rp9064
sI14
Ntp9065
bI01
NF-inf
Finf
NNNg9048
Ntp9066
bag6
(g7
g8
Ntp9067
Rp9068
(g3604
g6
(g7
g8
Ntp9069
Rp9070
(g3607
I99207
I00
NF-inf
Finf
NI0
NI99207
Ntp9071
bI00
NF-inf
Finf
NNNg9070
Ntp9072
bag6
(g7
g8
Ntp9073
Rp9074
(g184
g6
(g7
g8
Ntp9075
Rp9076
(g187
g12
(g16
S'`\xf1\xb5\xa2\x8e\xa0\x87?'
p9077
tp9078
Rp9079
I01
NI0
I1
Ng12
(g16
S'\xc1\x9aP\xb1\x9bWd?'
p9080
tp9081
Rp9082
(dp9083
g195
g12
(g16
S'\x12=4\xca\xe2\xd5\xbe?'
p9084
tp9085
Rp9086
sg199
g12
(g16
S'\x8c\xbf\xe1n\xc5\xc0\xd4\xbf'
p9087
tp9088
Rp9089
sg203
g12
(g16
S'\xa3(\xb0b+\xe4\xe1?'
p9090
tp9091
Rp9092
sF0.5
Ntp9093
bI01
NF-inf
Finf
NNNg9076
Ntp9094
bag6
(g7
g8
Ntp9095
Rp9096
(g4633
g6
(g7
g8
Ntp9097
Rp9098
(g199
g12
(g16
S'\xc2\x02N\xf8\xff\xff;@'
p9099
tp9100
Rp9101
I01
NI7
I28
Ng12
(g16
S'\x1d\xe4~H=\xd1\x11@'
p9102
tp9103
Rp9104
(dp9105
g195
g12
(g16
S'\xd2\x90\x10\xbe\xf8\xe3\xe1\xbf'
p9106
tp9107
Rp9108
sg187
g12
(g16
S'\x90\xbf\xe1n\xc5\xc0\xd4\xbf'
p9109
tp9110
Rp9111
sg203
g12
(g16
S'\xb1\xf7\x16J\x96\x11\xc2?'
p9112
tp9113
Rp9114
sI14
Ntp9115
bI01
NF-inf
Finf
NNNg9098
Ntp9116
bag6
(g7
g8
Ntp9117
Rp9118
(g3090
g6
(g7
g8
Ntp9119
Rp9120
(g3093
I99230
I00
NF-inf
Finf
NI0
NI99230
Ntp9121
bI00
NF-inf
Finf
NNNg9120
Ntp9122
bag6
(g7
g8
Ntp9123
Rp9124
(g4277
g6
(g7
g8
Ntp9125
Rp9126
(g1764
g12
(g16
S'\xe0N \xf0V\x9f\x87?'
p9127
tp9128
Rp9129
I01
NI0
I1
Ng12
(g16
S'\xd5\x10T\xf5\xd6^L?'
p9130
tp9131
Rp9132
(dp9133
g1756
g12
(g16
S'\x07\xccD\xb4\x91\x02\xe4?'
p9134
tp9135
Rp9136
sg1768
g12
(g16
S"'g6\xfe\xed.\xc1?"
p9137
tp9138
Rp9139
sg1772
g12
(g16
S'\xd7\x91\xb2\xdc\x0cc\xb1\xbf'
p9140
tp9141
Rp9142
sF0.5
Ntp9143
bI01
NF-inf
Finf
NNNg9126
Ntp9144
bag6
(g7
g8
Ntp9145
Rp9146
(g1753
g6
(g7
g8
Ntp9147
Rp9148
(g1756
g12
(g16
S'\xbdF\xfe\xff\xff\xff;@'
p9149
tp9150
Rp9151
I01
NI7
I28
Ng12
(g16
S'\x02\xbe^e;x\xc1?'
p9152
tp9153
Rp9154
(dp9155
g1764
g12
(g16
S'\x07\xccD\xb4\x91\x02\xe4?'
p9156
tp9157
Rp9158
sg1768
g12
(g16
S')<\x85\xc2\x88i\xb1?'
p9159
tp9160
Rp9161
sg1772
g12
(g16
S'I\xc1\xd2\xcdjq\xd6?'
p9162
tp9163
Rp9164
sI14
Ntp9165
bI01
NF-inf
Finf
NNNg9148
Ntp9166
bag6
(g7
g8
Ntp9167
Rp9168
(g2864
g6
(g7
g8
Ntp9169
Rp9170
(g2867
I99290
I00
NF-inf
Finf
NI0
NI99290
Ntp9171
bI00
NF-inf
Finf
NNNg9170
Ntp9172
bag6
(g7
g8
Ntp9173
Rp9174
(g4445
g6
(g7
g8
Ntp9175
Rp9176
(g1768
g12
(g16
S'\xa0\xae:\xec\x10]\x83?'
p9177
tp9178
Rp9179
I01
NI0
I1
Ng12
(g16
S'\xba\x18\xa9\x96\x16^L?'
p9180
tp9181
Rp9182
(dp9183
g1764
g12
(g16
S'6g6\xfe\xed.\xc1?'
p9184
tp9185
Rp9186
sg1772
g12
(g16
S'\xf3\x9e6\xc3\x9e\x01\xe4\xbf'
p9187
tp9188
Rp9189
sg1756
g12
(g16
S'\x1d<\x85\xc2\x88i\xb1?'
p9190
tp9191
Rp9192
sF0.5
Ntp9193
bI01
NF-inf
Finf
NNNg9176
Ntp9194
bag6
(g7
g8
Ntp9195
Rp9196
(g3235
g6
(g7
g8
Ntp9197
Rp9198
(g1772
g12
(g16
S'\x10+\x87\xff\xff\xff;@'
p9199
tp9200
Rp9201
I01
NI7
I28
Ng12
(g16
S'\xccSa\t>\xe2\x02@'
p9202
tp9203
Rp9204
(dp9205
g1764
g12
(g16
S'\xec\x91\xb2\xdc\x0cc\xb1\xbf'
p9206
tp9207
Rp9208
sg1768
g12
(g16
S'\xf2\x9e6\xc3\x9e\x01\xe4\xbf'
p9209
tp9210
Rp9211
sg1756
g12
(g16
S'J\xc1\xd2\xcdjq\xd6?'
p9212
tp9213
Rp9214
sI14
Ntp9215
bI01
NF-inf
Finf
NNNg9198
Ntp9216
bag6
(g7
g8
Ntp9217
Rp9218
(g1205
g6
(g7
g8
Ntp9219
Rp9220
(g1208
I99340
I00
NF-inf
Finf
NI0
NI99340
Ntp9221
bI00
NF-inf
Finf
NNNg9220
Ntp9222
bag6
(g7
g8
Ntp9223
Rp9224
(g2001
g6
(g7
g8
Ntp9225
Rp9226
(g2004
g12
(g16
S' \xcd?\\\x84+\x81?'
p9227
tp9228
Rp9229
I01
NI0
I1
Ng12
(g16
S'\n\xa9\x12\x8a\\\xb23?'
p9230
tp9231
Rp9232
(dp9233
g2012
g12
(g16
S'\x14\xb2\x9b\xb0}\xe2\xe6?'
p9234
tp9235
Rp9236
sF0.5
Ntp9237
bI01
NF-inf
Finf
NNNg9226
Ntp9238
bag6
(g7
g8
Ntp9239
Rp9240
(g2351
g6
(g7
g8
Ntp9241
Rp9242
(g2012
g12
(g16
S'&6\xfc\xff\xff\xff;@'
p9243
tp9244
Rp9245
I01
NI7
I28
Ng12
(g16
S'\xae\x88\xe6}?\x8e\xd2?'
p9246
tp9247
Rp9248
(dp9249
g2004
g12
(g16
S'\x14\xb2\x9b\xb0}\xe2\xe6?'
p9250
tp9251
Rp9252
sI14
Ntp9253
bI01
NF-inf
Finf
NNNg9242
Ntp9254
bag6
(g7
g8
Ntp9255
Rp9256
(g2845
g6
(g7
g8
Ntp9257
Rp9258
(g2848
I103788
I00
NF-inf
Finf
NI0
NI103788
Ntp9259
bI00
NF-inf
Finf
NNNg9258
Ntp9260
bag6
(g7
g8
Ntp9261
Rp9262
(g4181
g6
(g7
g8
Ntp9263
Rp9264
(g4184
g12
(g16
S'@d\xcb\xed?Gy?'
p9265
tp9266
Rp9267
I01
NI0
I1
NNNF0.5
Ntp9268
bI01
NF-inf
Finf
NNNg9264
Ntp9269
bag6
(g7
g8
Ntp9270
Rp9271
(g4675
g6
(g7
g8
Ntp9272
Rp9273
(g4678
g12
(g16
S'\x00\x00\x00\x00\x00\x00<@'
p9274
tp9275
Rp9276
I01
NI7
I28
NNNI14
Ntp9277
bI01
NF-inf
Finf
NNNg9273
Ntp9278
bag6
(g7
g8
Ntp9279
Rp9280
(g274
g6
(g7
g8
Ntp9281
Rp9282
(g277
I104202
I00
NF-inf
Finf
NNNI104202
Ntp9283
bI00
NF-inf
Finf
NNNg9282
Ntp9284
bag6
(g7
g8
Ntp9285
Rp9286
(g1830
g6
(g7
g8
Ntp9287
Rp9288
(g1833
g12
(g16
S"\x80t\x04\xa0'\xa1u?"
p9289
tp9290
Rp9291
I01
NI0
I1
NNNF0.5
Ntp9292
bI01
NF-inf
Finf
NNNg9288
Ntp9293
bag6
(g7
g8
Ntp9294
Rp9295
(g3180
g6
(g7
g8
Ntp9296
Rp9297
(g3183
g12
(g16
S'\x00\x00\x00\x00\x00\x00<@'
p9298
tp9299
Rp9300
I01
NI7
I28
NNNI14
Ntp9301
bI01
NF-inf
Finf
NNNg9297
Ntp9302
bag6
(g7
g8
Ntp9303
Rp9304
(g2417
g6
(g7
g8
Ntp9305
Rp9306
(g2420
I104241
I00
NF-inf
Finf
NNNI104241
Ntp9307
bI00
NF-inf
Finf
NNNg9306
Ntp9308
bag6
(g7
g8
Ntp9309
Rp9310
(g3355
g6
(g7
g8
Ntp9311
Rp9312
(g3358
g12
(g16
S'\x80O\xb2\x93\xdc\x1en?'
p9313
tp9314
Rp9315
I01
NI0
I1
NNNF0.5
Ntp9316
bI01
NF-inf
Finf
NNNg9312
Ntp9317
bag6
(g7
g8
Ntp9318
Rp9319
(g1513
g6
(g7
g8
Ntp9320
Rp9321
(g1516
g12
(g16
S'\x00\x00\x00\x00\x00\x00<@'
p9322
tp9323
Rp9324
I01
NI7
I28
NNNI14
Ntp9325
bI01
NF-inf
Finf
NNNg9321
Ntp9326
bag6
(g7
g8
Ntp9327
Rp9328
(g3013
g6
(g7
g8
Ntp9329
Rp9330
(g3016
I104273
I00
NF-inf
Finf
NNNI104273
Ntp9331
bI00
NF-inf
Finf
NNNg9330
Ntp9332
bag6
(g7
g8
Ntp9333
Rp9334
(g1125
g6
(g7
g8
Ntp9335
Rp9336
(g1128
g12
(g16
S'@\xb3-\x83\xb9\xa5p?'
p9337
tp9338
Rp9339
I01
NI0
I1
NNNF0.5
Ntp9340
bI01
NF-inf
Finf
NNNg9336
Ntp9341
bag6
(g7
g8
Ntp9342
Rp9343
(g4653
g6
(g7
g8
Ntp9344
Rp9345
(g4656
g12
(g16
S'\x00\x00\x00\x00\x00\x00<@'
p9346
tp9347
Rp9348
I01
NI7
I28
NNNI14
Ntp9349
bI01
NF-inf
Finf
NNNg9345
Ntp9350
bag6
(g7
g8
Ntp9351
Rp9352
(g413
g6
(g7
g8
Ntp9353
Rp9354
(g416
I104290
I00
NF-inf
Finf
NNNI104290
Ntp9355
bI00
NF-inf
Finf
NNNg9354
Ntp9356
bag6
(g7
g8
Ntp9357
Rp9358
(g2813
g6
(g7
g8
Ntp9359
Rp9360
(g2816
g12
(g16
S'\x00\xfc \xcc\xa2\xef=?'
p9361
tp9362
Rp9363
I01
NI0
I1
NNNF0.5
Ntp9364
bI01
NF-inf
Finf
NNNg9360
Ntp9365
bag6
(g7
g8
Ntp9366
Rp9367
(g2682
g6
(g7
g8
Ntp9368
Rp9369
(g2685
g12
(g16
S'uH\xd9\x99\xb7W\x1c@'
p9370
tp9371
Rp9372
I01
NI7
I28
NNNI14
Ntp9373
bI01
NF-inf
Finf
NNNg9369
Ntp9374
bag6
(g7
g8
Ntp9375
Rp9376
(g1748
g6
(g7
g8
Ntp9377
Rp9378
(g1751
I104310
I00
NF-inf
Finf
NNNI104310
Ntp9379
bI00
NF-inf
Finf
NNNg9378
Ntp9380
bag6
(g7
g8
Ntp9381
Rp9382
(g1197
g6
(g7
g8
Ntp9383
Rp9384
(g1200
g12
(g16
S'\x80\x80C;#-\x82?'
p9385
tp9386
Rp9387
I01
NI0
I1
NNNF0.5
Ntp9388
bI01
NF-inf
Finf
NNNg9384
Ntp9389
bag6
(g7
g8
Ntp9390
Rp9391
(g3227
g6
(g7
g8
Ntp9392
Rp9393
(g3230
g12
(g16
S'\x00\x00\x00\x00\x00\x00<@'
p9394
tp9395
Rp9396
I01
NI7
I28
NNNI14
Ntp9397
bI01
NF-inf
Finf
NNNg9393
Ntp9398
bag6
(g7
g8
Ntp9399
Rp9400
(g540
g6
(g7
g8
Ntp9401
Rp9402
(g543
I104323
I00
NF-inf
Finf
NNNI104323
Ntp9403
bI00
NF-inf
Finf
NNNg9402
Ntp9404
bag6
(g7
g8
Ntp9405
Rp9406
(g2869
g6
(g7
g8
Ntp9407
Rp9408
(g2872
g12
(g16
S'`u\xaf\x82\x91\xde\x8a?'
p9409
tp9410
Rp9411
I01
NI0
I1
NNNF0.5
Ntp9412
bI01
NF-inf
Finf
NNNg9408
Ntp9413
bag6
(g7
g8
Ntp9414
Rp9415
(g1479
g6
(g7
g8
Ntp9416
Rp9417
(g1482
g12
(g16
S'"\xe3\xcd\xff\xff\xff;@'
p9418
tp9419
Rp9420
I01
NI7
I28
NNNI14
Ntp9421
bI01
NF-inf
Finf
NNNg9417
Ntp9422
bag6
(g7
g8
Ntp9423
Rp9424
(g3806
g6
(g7
g8
Ntp9425
Rp9426
(g3809
I104373
I00
NF-inf
Finf
NNNI104373
Ntp9427
bI00
NF-inf
Finf
NNNg9426
Ntp9428
bag6
(g7
g8
Ntp9429
Rp9430
(g4111
g6
(g7
g8
Ntp9431
Rp9432
(g4114
g12
(g16
S'\xa0\xccO\x89\x94\x96\x8b?'
p9433
tp9434
Rp9435
I01
NI0
I1
NNNF0.5
Ntp9436
bI01
NF-inf
Finf
NNNg9432
Ntp9437
bag6
(g7
g8
Ntp9438
Rp9439
(g266
g6
(g7
g8
Ntp9440
Rp9441
(g269
g12
(g16
S'\x00\x00\x00\x00\x00\x00<@'
p9442
tp9443
Rp9444
I01
NI7
I28
NNNI14
Ntp9445
bI01
NF-inf
Finf
NNNg9441
Ntp9446
bag6
(g7
g8
Ntp9447
Rp9448
(g817
g6
(g7
g8
Ntp9449
Rp9450
(g820
I104440
I00
NF-inf
Finf
NNNI104440
Ntp9451
bI00
NF-inf
Finf
NNNg9450
Ntp9452
bag6
(g7
g8
Ntp9453
Rp9454
(g2536
g6
(g7
g8
Ntp9455
Rp9456
(g2539
g12
(g16
S'\xc0\xb5\x81\x93hO{?'
p9457
tp9458
Rp9459
I01
NI0
I1
NNNF0.5
Ntp9460
bI01
NF-inf
Finf
NNNg9456
Ntp9461
bag6
(g7
g8
Ntp9462
Rp9463
(g1862
g6
(g7
g8
Ntp9464
Rp9465
(g1865
g12
(g16
S'\xa7\x9c\xe3\xef\xcf\xff;@'
p9466
tp9467
Rp9468
I01
NI7
I28
NNNI14
Ntp9469
bI01
NF-inf
Finf
NNNg9465
Ntp9470
bag6
(g7
g8
Ntp9471
Rp9472
(g3693
g6
(g7
g8
Ntp9473
Rp9474
(g3696
I104473
I00
NF-inf
Finf
NNNI104473
Ntp9475
bI00
NF-inf
Finf
NNNg9474
Ntp9476
bag6
(g7
g8
Ntp9477
Rp9478
(g2071
g6
(g7
g8
Ntp9479
Rp9480
(g2074
g12
(g16
S'\x80\xa8\r\xf2\xe0\xac\x86?'
p9481
tp9482
Rp9483
I01
NI0
I1
NNNF0.5
Ntp9484
bI01
NF-inf
Finf
NNNg9480
Ntp9485
bag6
(g7
g8
Ntp9486
Rp9487
(g2856
g6
(g7
g8
Ntp9488
Rp9489
(g2859
g12
(g16
S'\x00\x00\x00\x00\x00\x00<@'
p9490
tp9491
Rp9492
I01
NI7
I28
NNNI14
Ntp9493
bI01
NF-inf
Finf
NNNg9489
Ntp9494
bag6
(g7
g8
Ntp9495
Rp9496
(g318
g6
(g7
g8
Ntp9497
Rp9498
(g321
I104491
I00
NF-inf
Finf
NNNI104491
Ntp9499
bI00
NF-inf
Finf
NNNg9498
Ntp9500
bag6
(g7
g8
Ntp9501
Rp9502
(g1189
g6
(g7
g8
Ntp9503
Rp9504
(g1192
g12
(g16
S'\xe0\x96\xca\xd08Y\x84?'
p9505
tp9506
Rp9507
I01
NI0
I1
NNNF0.5
Ntp9508
bI01
NF-inf
Finf
NNNg9504
Ntp9509
bag6
(g7
g8
Ntp9510
Rp9511
(g3100
g6
(g7
g8
Ntp9512
Rp9513
(g3103
g12
(g16
S'\x00\x00\x00\x00\x00\x00<@'
p9514
tp9515
Rp9516
I01
NI7
I28
NNNI14
Ntp9517
bI01
NF-inf
Finf
NNNg9513
Ntp9518
bag6
(g7
g8
Ntp9519
Rp9520
(g1422
g6
(g7
g8
Ntp9521
Rp9522
(g1425
I104531
I00
NF-inf
Finf
NNNI104531
Ntp9523
bI00
NF-inf
Finf
NNNg9522
Ntp9524
bag6
(g7
g8
Ntp9525
Rp9526
(g664
g6
(g7
g8
Ntp9527
Rp9528
(g667
g12
(g16
S'\xc06W\x17`\xf4\x8a?'
p9529
tp9530
Rp9531
I01
NI0
I1
NNNF0.5
Ntp9532
bI01
NF-inf
Finf
NNNg9528
Ntp9533
bag6
(g7
g8
Ntp9534
Rp9535
(g1390
g6
(g7
g8
Ntp9536
Rp9537
(g1393
g12
(g16
S'\x00\x00\x00\x00\x00\x00<@'
p9538
tp9539
Rp9540
I01
NI7
I28
NNNI14
Ntp9541
bI01
NF-inf
Finf
NNNg9537
Ntp9542
bag6
(g7
g8
Ntp9543
Rp9544
(g1908
g6
(g7
g8
Ntp9545
Rp9546
(g1911
I104547
I00
NF-inf
Finf
NNNI104547
Ntp9547
bI00
NF-inf
Finf
NNNg9546
Ntp9548
bag6
(g7
g8
Ntp9549
Rp9550
(g4511
g6
(g7
g8
Ntp9551
Rp9552
(g4514
g12
(g16
S'x&!E\xe3{\xa9?'
p9553
tp9554
Rp9555
I01
NI0
I1
NNNF0.5
Ntp9556
bI01
NF-inf
Finf
NNNg9552
Ntp9557
bag6
(g7
g8
Ntp9558
Rp9559
(g532
g6
(g7
g8
Ntp9560
Rp9561
(g535
g12
(g16
S'\xb5\x91\xdc\xff\xff\xff;@'
p9562
tp9563
Rp9564
I01
NI7
I28
NNNI14
Ntp9565
bI01
NF-inf
Finf
NNNg9561
Ntp9566
bag6
(g7
g8
Ntp9567
Rp9568
(g84
g6
(g7
g8
Ntp9569
Rp9570
(g87
I104596
I00
NF-inf
Finf
NNNI104596
Ntp9571
bI00
NF-inf
Finf
NNNg9570
Ntp9572
bag6
(g7
g8
Ntp9573
Rp9574
(g3519
g6
(g7
g8
Ntp9575
Rp9576
(g3522
g12
(g16
S'@\xc6\x04\xd7\x1f\xf6\x9c?'
p9577
tp9578
Rp9579
I01
NI0
I1
NNNF0.5
Ntp9580
bI01
NF-inf
Finf
NNNg9576
Ntp9581
bag6
(g7
g8
Ntp9582
Rp9583
(g279
g6
(g7
g8
Ntp9584
Rp9585
(g282
g12
(g16
S'~mI\xf9\xff\xff;@'
p9586
tp9587
Rp9588
I01
NI7
I28
NNNI14
Ntp9589
bI01
NF-inf
Finf
NNNg9585
Ntp9590
bag6
(g7
g8
Ntp9591
Rp9592
(g2321
g6
(g7
g8
Ntp9593
Rp9594
(g2324
I104692
I00
NF-inf
Finf
NNNI104692
Ntp9595
bI00
NF-inf
Finf
NNNg9594
Ntp9596
bag6
(g7
g8
Ntp9597
Rp9598
(g3816
g6
(g7
g8
Ntp9599
Rp9600
(g3819
g12
(g16
S'\x00\x00\x00\x00\x00\x00\xf0?'
p9601
tp9602
Rp9603
I01
NI0
I1
NNNF0.5
Ntp9604
bI01
NF-inf
Finf
NNNg9600
Ntp9605
bag6
(g7
g8
Ntp9606
Rp9607
(g2137
g6
(g7
g8
Ntp9608
Rp9609
(g2140
g12
(g16
S'fH\xfc\xff\xff\xff;@'
p9610
tp9611
Rp9612
I01
NI7
I28
NNNI14
Ntp9613
bI01
NF-inf
Finf
NNNg9609
Ntp9614
bag6
(g7
g8
Ntp9615
Rp9616
(g4407
g6
(g7
g8
Ntp9617
Rp9618
(g4410
I104741
I00
NF-inf
Finf
NNNI104741
Ntp9619
bI00
NF-inf
Finf
NNNg9618
Ntp9620
bag6
(g7
g8
Ntp9621
Rp9622
(g1210
g6
(g7
g8
Ntp9623
Rp9624
(g1213
g12
(g16
S'@\xde\xd2\xcb\x94ap?'
p9625
tp9626
Rp9627
I01
NI0
I1
NNNF0.5
Ntp9628
bI01
NF-inf
Finf
NNNg9624
Ntp9629
bag6
(g7
g8
Ntp9630
Rp9631
(g2630
g6
(g7
g8
Ntp9632
Rp9633
(g2633
g12
(g16
S'p|[s\xaa\x00\x1c@'
p9634
tp9635
Rp9636
I01
NI7
I28
NNNI14
Ntp9637
bI01
NF-inf
Finf
NNNg9633
Ntp9638
bag6
(g7
g8
Ntp9639
Rp9640
(g3292
g6
(g7
g8
Ntp9641
Rp9642
(g3295
I104790
I00
NF-inf
Finf
NNNI104790
Ntp9643
bI00
NF-inf
Finf
NNNg9642
Ntp9644
bag6
(g7
g8
Ntp9645
Rp9646
(g3209
g6
(g7
g8
Ntp9647
Rp9648
(g3212
g12
(g16
S'\xa0\x84G\xae\xf0!\xa1?'
p9649
tp9650
Rp9651
I01
NI0
I1
NNNF0.5
Ntp9652
bI01
NF-inf
Finf
NNNg9648
Ntp9653
bag6
(g7
g8
Ntp9654
Rp9655
(g2595
g6
(g7
g8
Ntp9656
Rp9657
(g2598
g12
(g16
S'\x8dD*\x84\x7f\xff;@'
p9658
tp9659
Rp9660
I01
NI7
I28
NNNI14
Ntp9661
bI01
NF-inf
Finf
NNNg9657
Ntp9662
bag6
(g7
g8
Ntp9663
Rp9664
(g4426
g6
(g7
g8
Ntp9665
Rp9666
(g4429
I104806
I00
NF-inf
Finf
NNNI104806
Ntp9667
bI00
NF-inf
Finf
NNNg9666
Ntp9668
bag6
(g7
g8
Ntp9669
Rp9670
(g4597
g6
(g7
g8
Ntp9671
Rp9672
(g643
g12
(g16
S'\xc8\x8d\xff@k\x9d\xa5?'
p9673
tp9674
Rp9675
I01
NI0
I1
Ng12
(g16
S'\xf6SJ\x8a\xc6lq?'
p9676
tp9677
Rp9678
(dp9679
g635
g12
(g16
S'7i\x84J\xd3\xe3\xe6\xbf'
p9680
tp9681
Rp9682
sF0.5
Ntp9683
bI01
NF-inf
Finf
NNNg9672
Ntp9684
bag6
(g7
g8
Ntp9685
Rp9686
(g632
g6
(g7
g8
Ntp9687
Rp9688
(g635
g12
(g16
S'\xf3A;\xf0\xff\xff;@'
p9689
tp9690
Rp9691
I01
NI7
I28
Ng12
(g16
S'!\x07\x8c\xed\x98\xf9\x11@'
p9692
tp9693
Rp9694
(dp9695
g643
g12
(g16
S'7i\x84J\xd3\xe3\xe6\xbf'
p9696
tp9697
Rp9698
sI14
Ntp9699
bI01
NF-inf
Finf
NNNg9688
Ntp9700
bag6
(g7
g8
Ntp9701
Rp9702
(g4101
g6
(g7
g8
Ntp9703
Rp9704
(g4104
I104869
I00
NF-inf
Finf
NI0
NI104869
Ntp9705
bI00
NF-inf
Finf
NNNg9704
Ntp9706
bag6
(g7
g8
Ntp9707
Rp9708
(g2037
g6
(g7
g8
Ntp9709
Rp9710
(g1881
g12
(g16
S' \xd3\xfe~\xa3\x12\x96?'
p9711
tp9712
Rp9713
I01
NI0
I1
Ng12
(g16
S'\x17V\x9d\xd8<\xdde?'
p9714
tp9715
Rp9716
(dp9717
g1885
g12
(g16
S'B\x84\x9e\x02\xcc\x1e\xd3\xbf'
p9718
tp9719
Rp9720
sg1873
g12
(g16
S'\xcd\x9c\xac\xbb\x87D\xe2\xbf'
p9721
tp9722
Rp9723
sg1889
g12
(g16
S'\x91|\xeb\r\xee\xb6\xb4?'
p9724
tp9725
Rp9726
sF0.5
Ntp9727
bI01
NF-inf
Finf
NNNg9710
Ntp9728
bag6
(g7
g8
Ntp9729
Rp9730
(g4753
g6
(g7
g8
Ntp9731
Rp9732
(g1885
g12
(g16
S'\xba\xd1\x8a\xf7\xff\xff;@'
p9733
tp9734
Rp9735
I01
NI7
I28
Ng12
(g16
S'\xc3\xa8\x1d {\xbb\x16@'
p9736
tp9737
Rp9738
(dp9739
g1881
g12
(g16
S'F\x84\x9e\x02\xcc\x1e\xd3\xbf'
p9740
tp9741
Rp9742
sg1873
g12
(g16
S'&\xe4\xefIT\xae\xc1\xbf'
p9743
tp9744
Rp9745
sg1889
g12
(g16
S'\xe9\x05\x7f\x87GD\xe2\xbf'
p9746
tp9747
Rp9748
sI14
Ntp9749
bI01
NF-inf
Finf
NNNg9732
Ntp9750
bag6
(g7
g8
Ntp9751
Rp9752
(g1719
g6
(g7
g8
Ntp9753
Rp9754
(g1722
I104945
I00
NF-inf
Finf
NI0
NI104945
Ntp9755
bI00
NF-inf
Finf
NNNg9754
Ntp9756
bag6
(g7
g8
Ntp9757
Rp9758
(g3140
g6
(g7
g8
Ntp9759
Rp9760
(g1889
g12
(g16
S'p\xc8^\x8d\xcf\xea\x90?'
p9761
tp9762
Rp9763
I01
NI0
I1
Ng12
(g16
S'\x14\xb3b\xec\x1c\xdde?'
p9764
tp9765
Rp9766
(dp9767
g1881
g12
(g16
S'\x95|\xeb\r\xee\xb6\xb4?'
p9768
tp9769
Rp9770
sg1885
g12
(g16
S'\xe8\x05\x7f\x87GD\xe2\xbf'
p9771
tp9772
Rp9773
sg1873
g12
(g16
S'O\x192\xda\x1b\x1f\xd3\xbf'
p9774
tp9775
Rp9776
sF0.5
Ntp9777
bI01
NF-inf
Finf
NNNg9760
Ntp9778
bag6
(g7
g8
Ntp9779
Rp9780
(g1870
g6
(g7
g8
Ntp9781
Rp9782
(g1873
g12
(g16
S'\xc8\xc7\x95\xf3\xff\xff;@'
p9783
tp9784
Rp9785
I01
NI7
I28
Ng12
(g16
S'\x8b1)\x14T\xaa\x1d@'
p9786
tp9787
Rp9788
(dp9789
g1881
g12
(g16
S'\xcd\x9c\xac\xbb\x87D\xe2\xbf'
p9790
tp9791
Rp9792
sg1885
g12
(g16
S'0\xe4\xefIT\xae\xc1\xbf'
p9793
tp9794
Rp9795
sg1889
g12
(g16
S'J\x192\xda\x1b\x1f\xd3\xbf'
p9796
tp9797
Rp9798
sI14
Ntp9799
bI01
NF-inf
Finf
NNNg9782
Ntp9800
bag6
(g7
g8
Ntp9801
Rp9802
(g3070
g6
(g7
g8
Ntp9803
Rp9804
(g3073
I104967
I00
NF-inf
Finf
NI0
NI104967
Ntp9805
bI00
NF-inf
Finf
NNNg9804
Ntp9806
bag6
(g7
g8
Ntp9807
Rp9808
(g2115
g6
(g7
g8
Ntp9809
Rp9810
(g1498
g12
(g16
S'\xc0\xf4W\xb4C\xfcw?'
p9811
tp9812
Rp9813
I01
NI0
I1
Ng12
(g16
S'\x19:\x08\xd1\x04\x03\x17?'
p9814
tp9815
Rp9816
(dp9817
g1490
g12
(g16
S'\xf6\xf6K\x03<\xe2\xe6\xbf'
p9818
tp9819
Rp9820
sF0.5
Ntp9821
bI01
NF-inf
Finf
NNNg9810
Ntp9822
bag6
(g7
g8
Ntp9823
Rp9824
(g1487
g6
(g7
g8
Ntp9825
Rp9826
(g1490
g12
(g16
S'\x8am\xf1\xff\xff\xff;@'
p9827
tp9828
Rp9829
I01
NI7
I28
Ng12
(g16
S'"\xb4\xc8\xf1Ed\xe5?'
p9830
tp9831
Rp9832
(dp9833
g1498
g12
(g16
S'\xf6\xf6K\x03<\xe2\xe6\xbf'
p9834
tp9835
Rp9836
sI14
Ntp9837
bI01
NF-inf
Finf
NNNg9826
Ntp9838
bag6
(g7
g8
Ntp9839
Rp9840
(g3204
g6
(g7
g8
Ntp9841
Rp9842
(g3207
I105718
I00
NF-inf
Finf
NI0
NI105718
Ntp9843
bI00
NF-inf
Finf
NNNg9842
Ntp9844
basb.