(inmrglue.fileio.fileiobase
unit_conversion
p0
(dp1
S'_cplx'
p2
I01
sS'_first'
p3
F16.163688403819815
sS'_car'
p4
F2461.166543014315
sS'_obs'
p5
F400.1300098
sS'_delta'
p6
F-0.0001531051598681626
sS'_size'
p7
I130796
sS'_sw'
p8
F8012.82051282051
sb.