(lp0
(lp1
I69121
aI69122
aI69123
aI69124
aI69125
aI69126
aI69127
aI69128
aI69129
aI69130
aI69131
aI69132
aI69133
aI69134
aI69135
aI69136
aI69137
aI69138
aI69139
aI69140
aI69141
aI69142
aI69143
aI69144
aI69145
aI69146
aI69147
aI69148
aI69149
aI69150
aI69151
aI69152
aI69153
aI69154
aI69155
aI69156
aI69157
aI69158
aI69159
aI69160
aI69161
aI69162
aI69163
aI69164
aI69165
aI69166
aI69167
aI69168
aI69169
aI69170
aI69171
aI69172
aI69173
aI69174
aI69175
aI69176
aI69177
aa(lp2
I69184
aI69185
aI69186
aI69187
aI69188
aI69189
aI69190
aI69191
aI69192
aI69193
aI69194
aI69195
aI69196
aI69197
aI69198
aI69199
aI69200
aI69201
aI69202
aI69203
aI69204
aI69205
aI69206
aI69207
aI69208
aI69209
aI69210
aI69211
aI69212
aI69213
aI69214
aI69215
aI69216
aI69217
aI69218
aI69219
aI69220
aI69221
aI69222
aI69223
aI69224
aI69225
aI69226
aI69227
aI69228
aI69229
aI69230
aI69231
aI69232
aI69233
aI69234
aI69235
aI69236
aI69237
aI69238
aI69239
aI69240
aa(lp3
I69268
aI69269
aI69270
aI69271
aI69272
aI69273
aI69274
aI69275
aI69276
aI69277
aI69278
aI69279
aI69280
aI69281
aI69282
aI69283
aI69284
aI69285
aI69286
aI69287
aI69288
aI69289
aI69290
aI69291
aI69292
aI69293
aI69294
aI69295
aI69296
aI69297
aI69298
aI69299
aI69300
aI69301
aI69302
aI69303
aI69304
aI69305
aI69306
aI69307
aI69308
aI69309
aI69310
aI69311
aI69312
aI69313
aI69314
aI69315
aI69316
aI69317
aI69318
aI69319
aI69320
aI69321
aI69322
aI69323
aI69324
aI69325
aI69326
aI69327
aI69328
aI69329
aI69330
aI69331
aI69332
aI69333
aI69334
aI69335
aI69336
aI69337
aI69338
aI69339
aI69340
aI69341
aI69342
aI69343
aI69344
aI69345
aI69346
aI69347
aI69348
aI69349
aI69350
aI69351
aI69352
aI69353
aI69354
aI69355
aI69356
aI69357
aI69358
aI69359
aI69360
aI69361
aI69362
aI69363
aI69364
aI69365
aI69366
aI69367
aI69368
aI69369
aI69370
aI69371
aI69372
aI69373
aI69374
aI69375
aI69376
aI69377
aI69378
aI69379
aI69380
aI69381
aI69382
aI69383
aI69384
aI69385
aI69386
aI69387
aI69388
aI69389
aI69390
aI69391
aI69392
aI69393
aI69394
aI69395
aI69396
aI69397
aI69398
aI69399
aI69400
aI69401
aI69402
aI69403
aI69404
aI69405
aI69406
aI69407
aI69408
aI69409
aI69410
aI69411
aI69412
aI69413
aI69414
aI69415
aI69416
aI69417
aI69418
aI69419
aI69420
aI69421
aI69422
aI69423
aI69424
aI69425
aI69426
aI69427
aI69428
aI69429
aI69430
aI69431
aI69432
aI69433
aI69434
aI69435
aI69436
aI69437
aI69438
aI69439
aI69440
aI69441
aI69442
aI69443
aI69444
aI69445
aI69446
aI69447
aI69448
aI69449
aI69450
aI69451
aI69452
aI69453
aI69454
aI69455
aa(lp4
I69463
aI69464
aI69465
aI69466
aI69467
aI69468
aI69469
aI69470
aI69471
aI69472
aI69473
aI69474
aI69475
aI69476
aI69477
aI69478
aI69479
aI69480
aI69481
aI69482
aI69483
aI69484
aI69485
aI69486
aI69487
aI69488
aI69489
aI69490
aI69491
aI69492
aI69493
aI69494
aI69495
aI69496
aI69497
aI69498
aI69499
aI69500
aI69501
aI69502
aI69503
aI69504
aI69505
aI69506
aI69507
aI69508
aI69509
aI69510
aI69511
aI69512
aI69513
aI69514
aI69515
aI69516
aI69517
aI69518
aI69519
aI69520
aI69521
aI69522
aI69523
aI69524
aI69525
aI69526
aI69527
aI69528
aI69529
aI69530
aI69531
aI69532
aI69533
aI69534
aI69535
aI69536
aI69537
aI69538
aI69539
aI69540
aI69541
aI69542
aI69543
aI69544
aI69545
aa(lp5
I69574
aI69575
aI69576
aI69577
aI69578
aI69579
aI69580
aI69581
aI69582
aI69583
aI69584
aI69585
aI69586
aI69587
aI69588
aI69589
aI69590
aI69591
aI69592
aI69593
aI69594
aI69595
aI69596
aI69597
aI69598
aI69599
aI69600
aI69601
aI69602
aI69603
aI69604
aI69605
aI69606
aI69607
aI69608
aI69609
aI69610
aI69611
aI69612
aI69613
aI69614
aI69615
aI69616
aI69617
aI69618
aI69619
aI69620
aI69621
aI69622
aI69623
aI69624
aI69625
aI69626
aI69627
aI69628
aI69629
aI69630
aa(lp6
I69664
aI69665
aI69666
aI69667
aI69668
aI69669
aI69670
aI69671
aI69672
aI69673
aI69674
aI69675
aI69676
aI69677
aI69678
aI69679
aI69680
aI69681
aI69682
aI69683
aI69684
aI69685
aI69686
aI69687
aI69688
aI69689
aI69690
aI69691
aI69692
aI69693
aI69694
aI69695
aI69696
aI69697
aI69698
aI69699
aI69700
aI69701
aI69702
aI69703
aI69704
aI69705
aI69706
aI69707
aI69708
aI69709
aI69710
aI69711
aI69712
aI69713
aI69714
aI69715
aI69716
aI69717
aI69718
aI69719
aI69720
aa(lp7
I70856
aI70857
aI70858
aI70859
aI70860
aI70861
aI70862
aI70863
aI70864
aI70865
aI70866
aI70867
aI70868
aI70869
aI70870
aI70871
aI70872
aI70873
aI70874
aI70875
aI70876
aI70877
aI70878
aI70879
aI70880
aI70881
aI70882
aI70883
aI70884
aI70885
aI70886
aI70887
aI70888
aI70889
aI70890
aI70891
aI70892
aI70893
aI70894
aI70895
aI70896
aI70897
aI70898
aI70899
aI70900
aI70901
aI70902
aI70903
aI70904
aI70905
aI70906
aI70907
aI70908
aI70909
aI70910
aI70911
aI70912
aa(lp8
I70995
aI70996
aI70997
aI70998
aI70999
aI71000
aI71001
aI71002
aI71003
aI71004
aI71005
aI71006
aI71007
aI71008
aI71009
aI71010
aI71011
aI71012
aI71013
aI71014
aI71015
aI71016
aI71017
aI71018
aI71019
aI71020
aI71021
aI71022
aI71023
aI71024
aI71025
aI71026
aI71027
aI71028
aI71029
aI71030
aI71031
aI71032
aI71033
aI71034
aI71035
aI71036
aI71037
aI71038
aI71039
aI71040
aI71041
aI71042
aI71043
aI71044
aI71045
aI71046
aI71047
aI71048
aI71049
aI71050
aI71051
aa(lp9
I71057
aI71058
aI71059
aI71060
aI71061
aI71062
aI71063
aI71064
aI71065
aI71066
aI71067
aI71068
aI71069
aI71070
aI71071
aI71072
aI71073
aI71074
aI71075
aI71076
aI71077
aI71078
aI71079
aI71080
aI71081
aI71082
aI71083
aI71084
aI71085
aI71086
aI71087
aI71088
aI71089
aI71090
aI71091
aI71092
aI71093
aI71094
aI71095
aI71096
aI71097
aI71098
aI71099
aI71100
aI71101
aI71102
aI71103
aI71104
aI71105
aI71106
aI71107
aI71108
aI71109
aI71110
aI71111
aI71112
aI71113
aI71114
aI71115
aI71116
aI71117
aI71118
aI71119
aI71120
aI71121
aI71122
aI71123
aI71124
aI71125
aI71126
aI71127
aI71128
aI71129
aI71130
aI71131
aI71132
aI71133
aI71134
aI71135
aI71136
aI71137
aI71138
aI71139
aI71140
aI71141
aI71142
aI71143
aI71144
aI71145
aI71146
aI71147
aI71148
aI71149
aI71150
aI71151
aI71152
aI71153
aI71154
aI71155
aI71156
aI71157
aa(lp10
I71159
aI71160
aI71161
aI71162
aI71163
aI71164
aI71165
aI71166
aI71167
aI71168
aI71169
aI71170
aI71171
aI71172
aI71173
aI71174
aI71175
aI71176
aI71177
aI71178
aI71179
aI71180
aI71181
aI71182
aI71183
aI71184
aI71185
aI71186
aI71187
aI71188
aI71189
aI71190
aI71191
aI71192
aI71193
aI71194
aI71195
aI71196
aI71197
aI71198
aI71199
aI71200
aI71201
aI71202
aI71203
aI71204
aI71205
aI71206
aI71207
aI71208
aI71209
aI71210
aI71211
aI71212
aI71213
aI71214
aI71215
aI71216
aI71217
aI71218
aI71219
aI71220
aI71221
aI71222
aI71223
aI71224
aI71225
aI71226
aI71227
aI71228
aI71229
aI71230
aI71231
aI71232
aI71233
aI71234
aI71235
aI71236
aI71237
aI71238
aI71239
aI71240
aI71241
aI71242
aI71243
aI71244
aI71245
aI71246
aI71247
aI71248
aI71249
aI71250
aI71251
aI71252
aI71253
aI71254
aI71255
aI71256
aI71257
aI71258
aI71259
aI71260
aI71261
aI71262
aI71263
aI71264
aI71265
aI71266
aI71267
aI71268
aI71269
aI71270
aI71271
aI71272
aI71273
aI71274
aI71275
aI71276
aI71277
aI71278
aI71279
aI71280
aI71281
aI71282
aI71283
aI71284
aI71285
aI71286
aI71287
aI71288
aI71289
aI71290
aI71291
aI71292
aI71293
aI71294
aI71295
aI71296
aI71297
aI71298
aI71299
aI71300
aI71301
aI71302
aI71303
aI71304
aI71305
aI71306
aI71307
aI71308
aI71309
aI71310
aI71311
aI71312
aI71313
aI71314
aI71315
aI71316
aI71317
aI71318
aa(lp11
I71321
aI71322
aI71323
aI71324
aI71325
aI71326
aI71327
aI71328
aI71329
aI71330
aI71331
aI71332
aI71333
aI71334
aI71335
aI71336
aI71337
aI71338
aI71339
aI71340
aI71341
aI71342
aI71343
aI71344
aI71345
aI71346
aI71347
aI71348
aI71349
aI71350
aI71351
aI71352
aI71353
aI71354
aI71355
aI71356
aI71357
aI71358
aI71359
aI71360
aI71361
aI71362
aI71363
aI71364
aI71365
aI71366
aI71367
aI71368
aI71369
aI71370
aI71371
aI71372
aI71373
aI71374
aI71375
aI71376
aI71377
aI71378
aI71379
aI71380
aI71381
aI71382
aI71383
aI71384
aI71385
aI71386
aI71387
aa(lp12
I71445
aI71446
aI71447
aI71448
aI71449
aI71450
aI71451
aI71452
aI71453
aI71454
aI71455
aI71456
aI71457
aI71458
aI71459
aI71460
aI71461
aI71462
aI71463
aI71464
aI71465
aI71466
aI71467
aI71468
aI71469
aI71470
aI71471
aI71472
aI71473
aI71474
aI71475
aI71476
aI71477
aI71478
aI71479
aI71480
aI71481
aI71482
aI71483
aI71484
aI71485
aI71486
aI71487
aI71488
aI71489
aI71490
aI71491
aI71492
aI71493
aI71494
aI71495
aI71496
aI71497
aI71498
aI71499
aI71500
aI71501
aa(lp13
I71549
aI71550
aI71551
aI71552
aI71553
aI71554
aI71555
aI71556
aI71557
aI71558
aI71559
aI71560
aI71561
aI71562
aI71563
aI71564
aI71565
aI71566
aI71567
aI71568
aI71569
aI71570
aI71571
aI71572
aI71573
aI71574
aI71575
aI71576
aI71577
aI71578
aI71579
aI71580
aI71581
aI71582
aI71583
aI71584
aI71585
aI71586
aI71587
aI71588
aI71589
aI71590
aI71591
aI71592
aI71593
aI71594
aI71595
aI71596
aI71597
aI71598
aI71599
aI71600
aI71601
aI71602
aI71603
aI71604
aI71605
aa(lp14
I86365
aI86366
aI86367
aI86368
aI86369
aI86370
aI86371
aI86372
aI86373
aI86374
aI86375
aI86376
aI86377
aI86378
aI86379
aI86380
aI86381
aI86382
aI86383
aI86384
aI86385
aI86386
aI86387
aI86388
aI86389
aI86390
aI86391
aI86392
aI86393
aI86394
aI86395
aI86396
aI86397
aI86398
aI86399
aI86400
aI86401
aI86402
aI86403
aI86404
aI86405
aI86406
aI86407
aI86408
aI86409
aI86410
aI86411
aI86412
aI86413
aI86414
aI86415
aI86416
aI86417
aI86418
aI86419
aI86420
aI86421
aa(lp15
I86432
aI86433
aI86434
aI86435
aI86436
aI86437
aI86438
aI86439
aI86440
aI86441
aI86442
aI86443
aI86444
aI86445
aI86446
aI86447
aI86448
aI86449
aI86450
aI86451
aI86452
aI86453
aI86454
aI86455
aI86456
aI86457
aI86458
aI86459
aI86460
aI86461
aI86462
aI86463
aI86464
aI86465
aI86466
aI86467
aI86468
aI86469
aI86470
aI86471
aI86472
aI86473
aI86474
aI86475
aI86476
aI86477
aI86478
aI86479
aI86480
aI86481
aI86482
aI86483
aI86484
aI86485
aI86486
aI86487
aI86488
aa(lp16
I86596
aI86597
aI86598
aI86599
aI86600
aI86601
aI86602
aI86603
aI86604
aI86605
aI86606
aI86607
aI86608
aI86609
aI86610
aI86611
aI86612
aI86613
aI86614
aI86615
aI86616
aI86617
aI86618
aI86619
aI86620
aI86621
aI86622
aI86623
aI86624
aI86625
aI86626
aI86627
aI86628
aI86629
aI86630
aI86631
aI86632
aI86633
aI86634
aI86635
aI86636
aI86637
aI86638
aI86639
aI86640
aI86641
aI86642
aI86643
aI86644
aI86645
aI86646
aI86647
aI86648
aI86649
aI86650
aI86651
aI86652
aa(lp17
I86662
aI86663
aI86664
aI86665
aI86666
aI86667
aI86668
aI86669
aI86670
aI86671
aI86672
aI86673
aI86674
aI86675
aI86676
aI86677
aI86678
aI86679
aI86680
aI86681
aI86682
aI86683
aI86684
aI86685
aI86686
aI86687
aI86688
aI86689
aI86690
aI86691
aI86692
aI86693
aI86694
aI86695
aI86696
aI86697
aI86698
aI86699
aI86700
aI86701
aI86702
aI86703
aI86704
aI86705
aI86706
aI86707
aI86708
aI86709
aI86710
aI86711
aI86712
aI86713
aI86714
aI86715
aI86716
aI86717
aI86718
aa(lp18
I87209
aI87210
aI87211
aI87212
aI87213
aI87214
aI87215
aI87216
aI87217
aI87218
aI87219
aI87220
aI87221
aI87222
aI87223
aI87224
aI87225
aI87226
aI87227
aI87228
aI87229
aI87230
aI87231
aI87232
aI87233
aI87234
aI87235
aI87236
aI87237
aI87238
aI87239
aI87240
aI87241
aI87242
aI87243
aI87244
aI87245
aI87246
aI87247
aI87248
aI87249
aI87250
aI87251
aI87252
aI87253
aI87254
aI87255
aI87256
aI87257
aI87258
aI87259
aI87260
aI87261
aI87262
aI87263
aI87264
aI87265
aa(lp19
I87372
aI87373
aI87374
aI87375
aI87376
aI87377
aI87378
aI87379
aI87380
aI87381
aI87382
aI87383
aI87384
aI87385
aI87386
aI87387
aI87388
aI87389
aI87390
aI87391
aI87392
aI87393
aI87394
aI87395
aI87396
aI87397
aI87398
aI87399
aI87400
aI87401
aI87402
aI87403
aI87404
aI87405
aI87406
aI87407
aI87408
aI87409
aI87410
aI87411
aI87412
aI87413
aI87414
aI87415
aI87416
aI87417
aI87418
aI87419
aI87420
aI87421
aI87422
aI87423
aI87424
aI87425
aI87426
aI87427
aI87428
aa(lp20
I87601
aI87602
aI87603
aI87604
aI87605
aI87606
aI87607
aI87608
aI87609
aI87610
aI87611
aI87612
aI87613
aI87614
aI87615
aI87616
aI87617
aI87618
aI87619
aI87620
aI87621
aI87622
aI87623
aI87624
aI87625
aI87626
aI87627
aI87628
aI87629
aI87630
aI87631
aI87632
aI87633
aI87634
aI87635
aI87636
aI87637
aI87638
aI87639
aI87640
aI87641
aI87642
aI87643
aI87644
aI87645
aI87646
aI87647
aI87648
aI87649
aI87650
aI87651
aI87652
aI87653
aI87654
aI87655
aI87656
aI87657
aa(lp21
I87776
aI87777
aI87778
aI87779
aI87780
aI87781
aI87782
aI87783
aI87784
aI87785
aI87786
aI87787
aI87788
aI87789
aI87790
aI87791
aI87792
aI87793
aI87794
aI87795
aI87796
aI87797
aI87798
aI87799
aI87800
aI87801
aI87802
aI87803
aI87804
aI87805
aI87806
aI87807
aI87808
aI87809
aI87810
aI87811
aI87812
aI87813
aI87814
aI87815
aI87816
aI87817
aI87818
aI87819
aI87820
aI87821
aI87822
aI87823
aI87824
aI87825
aI87826
aI87827
aI87828
aI87829
aI87830
aI87831
aI87832
aa(lp22
I87919
aI87920
aI87921
aI87922
aI87923
aI87924
aI87925
aI87926
aI87927
aI87928
aI87929
aI87930
aI87931
aI87932
aI87933
aI87934
aI87935
aI87936
aI87937
aI87938
aI87939
aI87940
aI87941
aI87942
aI87943
aI87944
aI87945
aI87946
aI87947
aI87948
aI87949
aI87950
aI87951
aI87952
aI87953
aI87954
aI87955
aI87956
aI87957
aI87958
aI87959
aI87960
aI87961
aI87962
aI87963
aI87964
aI87965
aI87966
aI87967
aI87968
aI87969
aI87970
aI87971
aI87972
aI87973
aI87974
aI87975
aI87976
aI87977
aI87978
aI87979
aI87980
aI87981
aI87982
aI87983
aI87984
aI87985
aI87986
aI87987
aI87988
aI87989
aI87990
aI87991
aI87992
aI87993
aI87994
aI87995
aI87996
aI87997
aI87998
aI87999
aI88000
aI88001
aI88002
aI88003
aI88004
aI88005
aI88006
aI88007
aI88008
aI88009
aI88010
aI88011
aI88012
aI88013
aI88014
aI88015
aI88016
aI88017
aI88018
aI88019
aI88020
aI88021
aI88022
aI88023
aI88024
aI88025
aI88026
aI88027
aI88028
aI88029
aI88030
aI88031
aI88032
aI88033
aI88034
aI88035
aI88036
aI88037
aI88038
aI88039
aI88040
aI88041
aI88042
aI88043
aI88044
aI88045
aI88046
aI88047
aI88048
aI88049
aI88050
aI88051
aI88052
aI88053
aI88054
aI88055
aI88056
aI88057
aI88058
aI88059
aI88060
aI88061
aI88062
aI88063
aI88064
aI88065
aI88066
aI88067
aI88068
aI88069
aI88070
aI88071
aI88072
aI88073
aI88074
aI88075
aI88076
aI88077
aI88078
aI88079
aI88080
aI88081
aa(lp23
I88093
aI88094
aI88095
aI88096
aI88097
aI88098
aI88099
aI88100
aI88101
aI88102
aI88103
aI88104
aI88105
aI88106
aI88107
aI88108
aI88109
aI88110
aI88111
aI88112
aI88113
aI88114
aI88115
aI88116
aI88117
aI88118
aI88119
aI88120
aI88121
aI88122
aI88123
aI88124
aI88125
aI88126
aI88127
aI88128
aI88129
aI88130
aI88131
aI88132
aI88133
aI88134
aI88135
aI88136
aI88137
aI88138
aI88139
aI88140
aI88141
aI88142
aI88143
aI88144
aI88145
aI88146
aI88147
aI88148
aI88149
aI88150
aI88151
aI88152
aI88153
aI88154
aI88155
aI88156
aI88157
aI88158
aI88159
aI88160
aI88161
aI88162
aI88163
aI88164
aI88165
aI88166
aI88167
aI88168
aI88169
aI88170
aI88171
aI88172
aI88173
aI88174
aI88175
aI88176
aI88177
aI88178
aI88179
aI88180
aI88181
aI88182
aI88183
aI88184
aI88185
aI88186
aI88187
aI88188
aI88189
aI88190
aI88191
aI88192
aa(lp24
I88204
aI88205
aI88206
aI88207
aI88208
aI88209
aI88210
aI88211
aI88212
aI88213
aI88214
aI88215
aI88216
aI88217
aI88218
aI88219
aI88220
aI88221
aI88222
aI88223
aI88224
aI88225
aI88226
aI88227
aI88228
aI88229
aI88230
aI88231
aI88232
aI88233
aI88234
aI88235
aI88236
aI88237
aI88238
aI88239
aI88240
aI88241
aI88242
aI88243
aI88244
aI88245
aI88246
aI88247
aI88248
aI88249
aI88250
aI88251
aI88252
aI88253
aI88254
aI88255
aI88256
aI88257
aI88258
aI88259
aI88260
aa(lp25
I88292
aI88293
aI88294
aI88295
aI88296
aI88297
aI88298
aI88299
aI88300
aI88301
aI88302
aI88303
aI88304
aI88305
aI88306
aI88307
aI88308
aI88309
aI88310
aI88311
aI88312
aI88313
aI88314
aI88315
aI88316
aI88317
aI88318
aI88319
aI88320
aI88321
aI88322
aI88323
aI88324
aI88325
aI88326
aI88327
aI88328
aI88329
aI88330
aI88331
aI88332
aI88333
aI88334
aI88335
aI88336
aI88337
aI88338
aI88339
aI88340
aI88341
aI88342
aI88343
aI88344
aI88345
aI88346
aI88347
aI88348
aI88349
aI88350
aI88351
aI88352
aI88353
aI88354
aI88355
aI88356
aI88357
aI88358
aI88359
aI88360
aI88361
aI88362
aI88363
aI88364
aI88365
aI88366
aI88367
aI88368
aI88369
aI88370
aI88371
aI88372
aI88373
aI88374
aI88375
aI88376
aI88377
aI88378
aI88379
aI88380
aI88381
aI88382
aI88383
aI88384
aI88385
aI88386
aI88387
aI88388
aI88389
aI88390
aI88391
aI88392
aI88393
aI88394
aI88395
aI88396
aa(lp26
I88447
aI88448
aI88449
aI88450
aI88451
aI88452
aI88453
aI88454
aI88455
aI88456
aI88457
aI88458
aI88459
aI88460
aI88461
aI88462
aI88463
aI88464
aI88465
aI88466
aI88467
aI88468
aI88469
aI88470
aI88471
aI88472
aI88473
aI88474
aI88475
aI88476
aI88477
aI88478
aI88479
aI88480
aI88481
aI88482
aI88483
aI88484
aI88485
aI88486
aI88487
aI88488
aI88489
aI88490
aI88491
aI88492
aI88493
aI88494
aI88495
aI88496
aI88497
aI88498
aI88499
aI88500
aI88501
aI88502
aI88503
aa(lp27
I88756
aI88757
aI88758
aI88759
aI88760
aI88761
aI88762
aI88763
aI88764
aI88765
aI88766
aI88767
aI88768
aI88769
aI88770
aI88771
aI88772
aI88773
aI88774
aI88775
aI88776
aI88777
aI88778
aI88779
aI88780
aI88781
aI88782
aI88783
aI88784
aI88785
aI88786
aI88787
aI88788
aI88789
aI88790
aI88791
aI88792
aI88793
aI88794
aI88795
aI88796
aI88797
aI88798
aI88799
aI88800
aI88801
aI88802
aI88803
aI88804
aI88805
aI88806
aI88807
aI88808
aI88809
aI88810
aI88811
aI88812
aa(lp28
I88865
aI88866
aI88867
aI88868
aI88869
aI88870
aI88871
aI88872
aI88873
aI88874
aI88875
aI88876
aI88877
aI88878
aI88879
aI88880
aI88881
aI88882
aI88883
aI88884
aI88885
aI88886
aI88887
aI88888
aI88889
aI88890
aI88891
aI88892
aI88893
aI88894
aI88895
aI88896
aI88897
aI88898
aI88899
aI88900
aI88901
aI88902
aI88903
aI88904
aI88905
aI88906
aI88907
aI88908
aI88909
aI88910
aI88911
aI88912
aI88913
aI88914
aI88915
aI88916
aI88917
aI88918
aI88919
aI88920
aI88921
aI88922
aI88923
aI88924
aI88925
aI88926
aI88927
aI88928
aI88929
aI88930
aI88931
aI88932
aI88933
aI88934
aI88935
aI88936
aI88937
aI88938
aI88939
aI88940
aI88941
aI88942
aI88943
aI88944
aI88945
aI88946
aI88947
aI88948
aI88949
aI88950
aI88951
aI88952
aI88953
aI88954
aa(lp29
I89006
aI89007
aI89008
aI89009
aI89010
aI89011
aI89012
aI89013
aI89014
aI89015
aI89016
aI89017
aI89018
aI89019
aI89020
aI89021
aI89022
aI89023
aI89024
aI89025
aI89026
aI89027
aI89028
aI89029
aI89030
aI89031
aI89032
aI89033
aI89034
aI89035
aI89036
aI89037
aI89038
aI89039
aI89040
aI89041
aI89042
aI89043
aI89044
aI89045
aI89046
aI89047
aI89048
aI89049
aI89050
aI89051
aI89052
aI89053
aI89054
aI89055
aI89056
aI89057
aI89058
aI89059
aI89060
aI89061
aI89062
aa(lp30
I89072
aI89073
aI89074
aI89075
aI89076
aI89077
aI89078
aI89079
aI89080
aI89081
aI89082
aI89083
aI89084
aI89085
aI89086
aI89087
aI89088
aI89089
aI89090
aI89091
aI89092
aI89093
aI89094
aI89095
aI89096
aI89097
aI89098
aI89099
aI89100
aI89101
aI89102
aI89103
aI89104
aI89105
aI89106
aI89107
aI89108
aI89109
aI89110
aI89111
aI89112
aI89113
aI89114
aI89115
aI89116
aI89117
aI89118
aI89119
aI89120
aI89121
aI89122
aI89123
aI89124
aI89125
aI89126
aI89127
aI89128
aa(lp31
I89397
aI89398
aI89399
aI89400
aI89401
aI89402
aI89403
aI89404
aI89405
aI89406
aI89407
aI89408
aI89409
aI89410
aI89411
aI89412
aI89413
aI89414
aI89415
aI89416
aI89417
aI89418
aI89419
aI89420
aI89421
aI89422
aI89423
aI89424
aI89425
aI89426
aI89427
aI89428
aI89429
aI89430
aI89431
aI89432
aI89433
aI89434
aI89435
aI89436
aI89437
aI89438
aI89439
aI89440
aI89441
aI89442
aI89443
aI89444
aI89445
aI89446
aI89447
aI89448
aI89449
aI89450
aI89451
aI89452
aI89453
aI89454
aI89455
aI89456
aI89457
aI89458
aI89459
aI89460
aI89461
aI89462
aI89463
aI89464
aI89465
aI89466
aI89467
aI89468
aI89469
aI89470
aI89471
aI89472
aI89473
aI89474
aI89475
aI89476
aI89477
aI89478
aI89479
aI89480
aI89481
aI89482
aI89483
aI89484
aI89485
aI89486
aI89487
aI89488
aI89489
aI89490
aI89491
aI89492
aI89493
aI89494
aI89495
aI89496
aI89497
aI89498
aI89499
aI89500
aI89501
aI89502
aI89503
aI89504
aI89505
aI89506
aI89507
aI89508
aI89509
aI89510
aI89511
aI89512
aI89513
aI89514
aI89515
aI89516
aI89517
aI89518
aI89519
aa(lp32
I93852
aI93853
aI93854
aI93855
aI93856
aI93857
aI93858
aI93859
aI93860
aI93861
aI93862
aI93863
aI93864
aI93865
aI93866
aI93867
aI93868
aI93869
aI93870
aI93871
aI93872
aI93873
aI93874
aI93875
aI93876
aI93877
aI93878
aI93879
aI93880
aI93881
aI93882
aI93883
aI93884
aI93885
aI93886
aI93887
aI93888
aI93889
aI93890
aI93891
aI93892
aI93893
aI93894
aI93895
aI93896
aI93897
aI93898
aI93899
aI93900
aI93901
aI93902
aI93903
aI93904
aI93905
aI93906
aI93907
aI93908
aa(lp33
I93915
aI93916
aI93917
aI93918
aI93919
aI93920
aI93921
aI93922
aI93923
aI93924
aI93925
aI93926
aI93927
aI93928
aI93929
aI93930
aI93931
aI93932
aI93933
aI93934
aI93935
aI93936
aI93937
aI93938
aI93939
aI93940
aI93941
aI93942
aI93943
aI93944
aI93945
aI93946
aI93947
aI93948
aI93949
aI93950
aI93951
aI93952
aI93953
aI93954
aI93955
aI93956
aI93957
aI93958
aI93959
aI93960
aI93961
aI93962
aI93963
aI93964
aI93965
aI93966
aI93967
aI93968
aI93969
aI93970
aI93971
aI93972
aI93973
aI93974
aI93975
aI93976
aI93977
aI93978
aI93979
aI93980
aI93981
aI93982
aI93983
aI93984
aI93985
aI93986
aI93987
aI93988
aI93989
aI93990
aI93991
aI93992
aI93993
aI93994
aI93995
aI93996
aI93997
aI93998
aI93999
aI94000
aI94001
aI94002
aI94003
aI94004
aI94005
aI94006
aI94007
aI94008
aI94009
aI94010
aI94011
aI94012
aI94013
aI94014
aI94015
aI94016
aI94017
aI94018
aI94019
aI94020
aI94021
aI94022
aI94023
aI94024
aa(lp34
I94025
aI94026
aI94027
aI94028
aI94029
aI94030
aI94031
aI94032
aI94033
aI94034
aI94035
aI94036
aI94037
aI94038
aI94039
aI94040
aI94041
aI94042
aI94043
aI94044
aI94045
aI94046
aI94047
aI94048
aI94049
aI94050
aI94051
aI94052
aI94053
aI94054
aI94055
aI94056
aI94057
aI94058
aI94059
aI94060
aI94061
aI94062
aI94063
aI94064
aI94065
aI94066
aI94067
aI94068
aI94069
aI94070
aI94071
aI94072
aI94073
aI94074
aI94075
aI94076
aI94077
aI94078
aI94079
aI94080
aI94081
aa(lp35
I94089
aI94090
aI94091
aI94092
aI94093
aI94094
aI94095
aI94096
aI94097
aI94098
aI94099
aI94100
aI94101
aI94102
aI94103
aI94104
aI94105
aI94106
aI94107
aI94108
aI94109
aI94110
aI94111
aI94112
aI94113
aI94114
aI94115
aI94116
aI94117
aI94118
aI94119
aI94120
aI94121
aI94122
aI94123
aI94124
aI94125
aI94126
aI94127
aI94128
aI94129
aI94130
aI94131
aI94132
aI94133
aI94134
aI94135
aI94136
aI94137
aI94138
aI94139
aI94140
aI94141
aI94142
aI94143
aI94144
aI94145
aI94146
aI94147
aI94148
aI94149
aI94150
aI94151
aI94152
aI94153
aI94154
aI94155
aI94156
aI94157
aI94158
aI94159
aI94160
aI94161
aI94162
aI94163
aI94164
aI94165
aI94166
aI94167
aI94168
aI94169
aI94170
aI94171
aI94172
aI94173
aI94174
aI94175
aI94176
aI94177
aI94178
aI94179
aI94180
aI94181
aI94182
aI94183
aI94184
aI94185
aI94186
aI94187
aI94188
aI94189
aI94190
aI94191
aI94192
aI94193
aI94194
aI94195
aI94196
aI94197
aI94198
aI94199
aI94200
aa(lp36
I94236
aI94237
aI94238
aI94239
aI94240
aI94241
aI94242
aI94243
aI94244
aI94245
aI94246
aI94247
aI94248
aI94249
aI94250
aI94251
aI94252
aI94253
aI94254
aI94255
aI94256
aI94257
aI94258
aI94259
aI94260
aI94261
aI94262
aI94263
aI94264
aI94265
aI94266
aI94267
aI94268
aI94269
aI94270
aI94271
aI94272
aI94273
aI94274
aI94275
aI94276
aI94277
aI94278
aI94279
aI94280
aI94281
aI94282
aI94283
aI94284
aI94285
aI94286
aI94287
aI94288
aI94289
aI94290
aI94291
aI94292
aa(lp37
I94326
aI94327
aI94328
aI94329
aI94330
aI94331
aI94332
aI94333
aI94334
aI94335
aI94336
aI94337
aI94338
aI94339
aI94340
aI94341
aI94342
aI94343
aI94344
aI94345
aI94346
aI94347
aI94348
aI94349
aI94350
aI94351
aI94352
aI94353
aI94354
aI94355
aI94356
aI94357
aI94358
aI94359
aI94360
aI94361
aI94362
aI94363
aI94364
aI94365
aI94366
aI94367
aI94368
aI94369
aI94370
aI94371
aI94372
aI94373
aI94374
aI94375
aI94376
aI94377
aI94378
aI94379
aI94380
aI94381
aI94382
aa(lp38
I95286
aI95287
aI95288
aI95289
aI95290
aI95291
aI95292
aI95293
aI95294
aI95295
aI95296
aI95297
aI95298
aI95299
aI95300
aI95301
aI95302
aI95303
aI95304
aI95305
aI95306
aI95307
aI95308
aI95309
aI95310
aI95311
aI95312
aI95313
aI95314
aI95315
aI95316
aI95317
aI95318
aI95319
aI95320
aI95321
aI95322
aI95323
aI95324
aI95325
aI95326
aI95327
aI95328
aI95329
aI95330
aI95331
aI95332
aI95333
aI95334
aI95335
aI95336
aI95337
aI95338
aI95339
aI95340
aI95341
aI95342
aa(lp39
I97844
aI97845
aI97846
aI97847
aI97848
aI97849
aI97850
aI97851
aI97852
aI97853
aI97854
aI97855
aI97856
aI97857
aI97858
aI97859
aI97860
aI97861
aI97862
aI97863
aI97864
aI97865
aI97866
aI97867
aI97868
aI97869
aI97870
aI97871
aI97872
aI97873
aI97874
aI97875
aI97876
aI97877
aI97878
aI97879
aI97880
aI97881
aI97882
aI97883
aI97884
aI97885
aI97886
aI97887
aI97888
aI97889
aI97890
aI97891
aI97892
aI97893
aI97894
aI97895
aI97896
aI97897
aI97898
aI97899
aI97900
aI97901
aI97902
aI97903
aI97904
aI97905
aI97906
aI97907
aI97908
aI97909
aI97910
aI97911
aI97912
aI97913
aI97914
aI97915
aI97916
aI97917
aI97918
aI97919
aI97920
aI97921
aI97922
aI97923
aI97924
aI97925
aI97926
aI97927
aI97928
aI97929
aI97930
aI97931
aI97932
aI97933
aI97934
aI97935
aI97936
aI97937
aI97938
aI97939
aI97940
aI97941
aI97942
aI97943
aI97944
aI97945
aI97946
aI97947
aI97948
aI97949
aI97950
aI97951
aI97952
aI97953
aI97954
aI97955
aI97956
aI97957
aI97958
aI97959
aI97960
aI97961
aI97962
aI97963
aI97964
aI97965
aI97966
aI97967
aI97968
aI97969
aI97970
aI97971
aI97972
aI97973
aI97974
aI97975
aI97976
aI97977
aI97978
aI97979
aI97980
aI97981
aI97982
aI97983
aI97984
aI97985
aI97986
aI97987
aI97988
aI97989
aI97990
aI97991
aI97992
aI97993
aI97994
aI97995
aI97996
aI97997
aI97998
aI97999
aI98000
aI98001
aI98002
aI98003
aI98004
aI98005
aI98006
aI98007
aI98008
aI98009
aI98010
aI98011
aI98012
aI98013
aI98014
aI98015
aI98016
aI98017
aI98018
aI98019
aI98020
aI98021
aI98022
aI98023
aI98024
aI98025
aI98026
aI98027
aI98028
aI98029
aI98030
aI98031
aI98032
aI98033
aI98034
aI98035
aI98036
aI98037
aI98038
aI98039
aI98040
aI98041
aI98042
aI98043
aI98044
aI98045
aI98046
aI98047
aI98048
aI98049
aI98050
aI98051
aI98052
aI98053
aI98054
aI98055
aI98056
aI98057
aI98058
aI98059
aI98060
aI98061
aI98062
aI98063
aI98064
aI98065
aI98066
aI98067
aI98068
aI98069
aI98070
aI98071
aI98072
aI98073
aI98074
aI98075
aI98076
aI98077
aI98078
aI98079
aI98080
aI98081
aI98082
aI98083
aI98084
aI98085
aI98086
aI98087
aI98088
aI98089
aI98090
aI98091
aI98092
aI98093
aI98094
aI98095
aI98096
aa(lp40
I98097
aI98098
aI98099
aI98100
aI98101
aI98102
aI98103
aI98104
aI98105
aI98106
aI98107
aI98108
aI98109
aI98110
aI98111
aI98112
aI98113
aI98114
aI98115
aI98116
aI98117
aI98118
aI98119
aI98120
aI98121
aI98122
aI98123
aI98124
aI98125
aI98126
aI98127
aI98128
aI98129
aI98130
aI98131
aI98132
aI98133
aI98134
aI98135
aI98136
aI98137
aI98138
aI98139
aI98140
aI98141
aI98142
aI98143
aI98144
aI98145
aI98146
aI98147
aI98148
aI98149
aI98150
aI98151
aI98152
aI98153
aI98154
aI98155
aI98156
aI98157
aI98158
aI98159
aI98160
aI98161
aI98162
aI98163
aI98164
aI98165
aI98166
aI98167
aI98168
aI98169
aI98170
aI98171
aI98172
aI98173
aI98174
aI98175
aI98176
aI98177
aI98178
aI98179
aI98180
aI98181
aI98182
aI98183
aI98184
aI98185
aI98186
aI98187
aI98188
aI98189
aI98190
aa(lp41
I98192
aI98193
aI98194
aI98195
aI98196
aI98197
aI98198
aI98199
aI98200
aI98201
aI98202
aI98203
aI98204
aI98205
aI98206
aI98207
aI98208
aI98209
aI98210
aI98211
aI98212
aI98213
aI98214
aI98215
aI98216
aI98217
aI98218
aI98219
aI98220
aI98221
aI98222
aI98223
aI98224
aI98225
aI98226
aI98227
aI98228
aI98229
aI98230
aI98231
aI98232
aI98233
aI98234
aI98235
aI98236
aI98237
aI98238
aI98239
aI98240
aI98241
aI98242
aI98243
aI98244
aI98245
aI98246
aI98247
aI98248
aI98249
aI98250
aI98251
aI98252
aI98253
aI98254
aI98255
aI98256
aI98257
aI98258
aI98259
aI98260
aI98261
aI98262
aI98263
aI98264
aI98265
aI98266
aI98267
aI98268
aI98269
aI98270
aI98271
aI98272
aI98273
aI98274
aI98275
aI98276
aI98277
aI98278
aI98279
aI98280
aI98281
aI98282
aI98283
aI98284
aI98285
aI98286
aI98287
aI98288
aI98289
aI98290
aI98291
aI98292
aI98293
aI98294
aI98295
aI98296
aI98297
aI98298
aI98299
aI98300
aI98301
aI98302
aI98303
aI98304
aI98305
aI98306
aI98307
aI98308
aI98309
aI98310
aI98311
aI98312
aI98313
aI98314
aI98315
aI98316
aI98317
aI98318
aI98319
aI98320
aI98321
aI98322
aI98323
aI98324
aI98325
aI98326
aI98327
aI98328
aI98329
aI98330
aI98331
aI98332
aI98333
aI98334
aI98335
aI98336
aI98337
aI98338
aI98339
aI98340
aI98341
aI98342
aI98343
aI98344
aa(lp42
I98352
aI98353
aI98354
aI98355
aI98356
aI98357
aI98358
aI98359
aI98360
aI98361
aI98362
aI98363
aI98364
aI98365
aI98366
aI98367
aI98368
aI98369
aI98370
aI98371
aI98372
aI98373
aI98374
aI98375
aI98376
aI98377
aI98378
aI98379
aI98380
aI98381
aI98382
aI98383
aI98384
aI98385
aI98386
aI98387
aI98388
aI98389
aI98390
aI98391
aI98392
aI98393
aI98394
aI98395
aI98396
aI98397
aI98398
aI98399
aI98400
aI98401
aI98402
aI98403
aI98404
aI98405
aI98406
aI98407
aI98408
aI98409
aI98410
aI98411
aI98412
aI98413
aI98414
aI98415
aI98416
aI98417
aI98418
aI98419
aI98420
aI98421
aI98422
aI98423
aI98424
aI98425
aI98426
aI98427
aI98428
aI98429
aI98430
aI98431
aI98432
aI98433
aI98434
aI98435
aI98436
aI98437
aI98438
aI98439
aI98440
aI98441
aI98442
aI98443
aI98444
aI98445
aI98446
aI98447
aI98448
aI98449
aI98450
aI98451
aI98452
aI98453
aI98454
aI98455
aI98456
aI98457
aI98458
aI98459
aI98460
aI98461
aI98462
aI98463
aI98464
aI98465
aI98466
aI98467
aI98468
aI98469
aI98470
aI98471
aI98472
aI98473
aI98474
aI98475
aI98476
aI98477
aI98478
aI98479
aI98480
aI98481
aI98482
aI98483
aI98484
aI98485
aI98486
aI98487
aI98488
aI98489
aI98490
aI98491
aI98492
aI98493
aI98494
aI98495
aI98496
aI98497
aI98498
aI98499
aI98500
aI98501
aI98502
aI98503
aI98504
aI98505
aI98506
aI98507
aI98508
aI98509
aI98510
aI98511
aI98512
aI98513
aI98514
aI98515
aI98516
aI98517
aI98518
aI98519
aI98520
aI98521
aI98522
aI98523
aI98524
aI98525
aI98526
aI98527
aI98528
aI98529
aI98530
aI98531
aI98532
aI98533
aI98534
aI98535
aI98536
aI98537
aI98538
aI98539
aI98540
aI98541
aI98542
aI98543
aI98544
aI98545
aI98546
aI98547
aI98548
aI98549
aI98550
aI98551
aI98552
aI98553
aI98554
aI98555
aI98556
aI98557
aI98558
aI98559
aI98560
aI98561
aI98562
aI98563
aI98564
aI98565
aI98566
aI98567
aI98568
aI98569
aI98570
aI98571
aI98572
aI98573
aI98574
aI98575
aI98576
aI98577
aI98578
aI98579
aI98580
aI98581
aI98582
aI98583
aI98584
aI98585
aI98586
aI98587
aI98588
aI98589
aI98590
aI98591
aI98592
aI98593
aI98594
aI98595
aI98596
aI98597
aI98598
aI98599
aI98600
aI98601
aI98602
aI98603
aI98604
aI98605
aI98606
aI98607
aI98608
aI98609
aI98610
aI98611
aI98612
aI98613
aI98614
aI98615
aI98616
aI98617
aI98618
aI98619
aI98620
aI98621
aI98622
aI98623
aI98624
aI98625
aI98626
aI98627
aI98628
aI98629
aI98630
aI98631
aI98632
aI98633
aI98634
aI98635
aI98636
aI98637
aI98638
aI98639
aI98640
aI98641
aI98642
aI98643
aI98644
aI98645
aI98646
aI98647
aI98648
aI98649
aa(lp43
I98912
aI98913
aI98914
aI98915
aI98916
aI98917
aI98918
aI98919
aI98920
aI98921
aI98922
aI98923
aI98924
aI98925
aI98926
aI98927
aI98928
aI98929
aI98930
aI98931
aI98932
aI98933
aI98934
aI98935
aI98936
aI98937
aI98938
aI98939
aI98940
aI98941
aI98942
aI98943
aI98944
aI98945
aI98946
aI98947
aI98948
aI98949
aI98950
aI98951
aI98952
aI98953
aI98954
aI98955
aI98956
aI98957
aI98958
aI98959
aI98960
aI98961
aI98962
aI98963
aI98964
aI98965
aI98966
aI98967
aI98968
aa(lp44
I98985
aI98986
aI98987
aI98988
aI98989
aI98990
aI98991
aI98992
aI98993
aI98994
aI98995
aI98996
aI98997
aI98998
aI98999
aI99000
aI99001
aI99002
aI99003
aI99004
aI99005
aI99006
aI99007
aI99008
aI99009
aI99010
aI99011
aI99012
aI99013
aI99014
aI99015
aI99016
aI99017
aI99018
aI99019
aI99020
aI99021
aI99022
aI99023
aI99024
aI99025
aI99026
aI99027
aI99028
aI99029
aI99030
aI99031
aI99032
aI99033
aI99034
aI99035
aI99036
aI99037
aI99038
aI99039
aI99040
aI99041
aI99042
aI99043
aI99044
aI99045
aI99046
aI99047
aI99048
aI99049
aI99050
aI99051
aI99052
aI99053
aI99054
aI99055
aI99056
aI99057
aI99058
aI99059
aI99060
aI99061
aI99062
aI99063
aI99064
aI99065
aI99066
aI99067
aa(lp45
I99080
aI99081
aI99082
aI99083
aI99084
aI99085
aI99086
aI99087
aI99088
aI99089
aI99090
aI99091
aI99092
aI99093
aI99094
aI99095
aI99096
aI99097
aI99098
aI99099
aI99100
aI99101
aI99102
aI99103
aI99104
aI99105
aI99106
aI99107
aI99108
aI99109
aI99110
aI99111
aI99112
aI99113
aI99114
aI99115
aI99116
aI99117
aI99118
aI99119
aI99120
aI99121
aI99122
aI99123
aI99124
aI99125
aI99126
aI99127
aI99128
aI99129
aI99130
aI99131
aI99132
aI99133
aI99134
aI99135
aI99136
aI99137
aI99138
aI99139
aI99140
aI99141
aI99142
aI99143
aI99144
aI99145
aI99146
aI99147
aI99148
aI99149
aI99150
aI99151
aI99152
aI99153
aI99154
aI99155
aI99156
aI99157
aI99158
aI99159
aI99160
aI99161
aI99162
aI99163
aI99164
aa(lp46
I99177
aI99178
aI99179
aI99180
aI99181
aI99182
aI99183
aI99184
aI99185
aI99186
aI99187
aI99188
aI99189
aI99190
aI99191
aI99192
aI99193
aI99194
aI99195
aI99196
aI99197
aI99198
aI99199
aI99200
aI99201
aI99202
aI99203
aI99204
aI99205
aI99206
aI99207
aI99208
aI99209
aI99210
aI99211
aI99212
aI99213
aI99214
aI99215
aI99216
aI99217
aI99218
aI99219
aI99220
aI99221
aI99222
aI99223
aI99224
aI99225
aI99226
aI99227
aI99228
aI99229
aI99230
aI99231
aI99232
aI99233
aI99234
aI99235
aI99236
aI99237
aI99238
aI99239
aI99240
aI99241
aI99242
aI99243
aI99244
aI99245
aI99246
aI99247
aI99248
aI99249
aI99250
aI99251
aI99252
aI99253
aI99254
aI99255
aI99256
aI99257
aI99258
aI99259
aI99260
aa(lp47
I99273
aI99274
aI99275
aI99276
aI99277
aI99278
aI99279
aI99280
aI99281
aI99282
aI99283
aI99284
aI99285
aI99286
aI99287
aI99288
aI99289
aI99290
aI99291
aI99292
aI99293
aI99294
aI99295
aI99296
aI99297
aI99298
aI99299
aI99300
aI99301
aI99302
aI99303
aI99304
aI99305
aI99306
aI99307
aI99308
aI99309
aI99310
aI99311
aI99312
aI99313
aI99314
aI99315
aI99316
aI99317
aI99318
aI99319
aI99320
aI99321
aI99322
aI99323
aI99324
aI99325
aI99326
aI99327
aI99328
aI99329
aI99330
aI99331
aI99332
aI99333
aI99334
aI99335
aI99336
aI99337
aI99338
aI99339
aI99340
aI99341
aI99342
aI99343
aI99344
aI99345
aI99346
aI99347
aI99348
aI99349
aI99350
aI99351
aI99352
aI99353
aI99354
aI99355
aI99356
aa(lp48
I99370
aI99371
aI99372
aI99373
aI99374
aI99375
aI99376
aI99377
aI99378
aI99379
aI99380
aI99381
aI99382
aI99383
aI99384
aI99385
aI99386
aI99387
aI99388
aI99389
aI99390
aI99391
aI99392
aI99393
aI99394
aI99395
aI99396
aI99397
aI99398
aI99399
aI99400
aI99401
aI99402
aI99403
aI99404
aI99405
aI99406
aI99407
aI99408
aI99409
aI99410
aI99411
aI99412
aI99413
aI99414
aI99415
aI99416
aI99417
aI99418
aI99419
aI99420
aI99421
aI99422
aI99423
aI99424
aI99425
aI99426
aI99427
aI99428
aI99429
aI99430
aI99431
aI99432
aI99433
aI99434
aI99435
aI99436
aI99437
aI99438
aI99439
aI99440
aI99441
aI99442
aI99443
aI99444
aI99445
aI99446
aI99447
aI99448
aI99449
aI99450
aI99451
aI99452
aI99453
aI99454
aI99455
aI99456
aI99457
aI99458
aI99459
aI99460
aI99461
aI99462
aI99463
aI99464
aI99465
aI99466
aI99467
aI99468
aI99469
aI99470
aI99471
aI99472
aI99473
aI99474
aI99475
aI99476
aI99477
aI99478
aI99479
aI99480
aI99481
aI99482
aI99483
aI99484
aI99485
aI99486
aI99487
aI99488
aI99489
aI99490
aI99491
aI99492
aI99493
aI99494
aI99495
aI99496
aI99497
aI99498
aI99499
aI99500
aI99501
aI99502
aI99503
aI99504
aI99505
aI99506
aI99507
aI99508
aI99509
aI99510
aI99511
aI99512
aI99513
aI99514
aI99515
aI99516
aI99517
aI99518
aI99519
aI99520
aI99521
aI99522
aI99523
aI99524
aI99525
aI99526
aI99527
aI99528
aI99529
aI99530
aI99531
aI99532
aI99533
aI99534
aI99535
aI99536
aI99537
aI99538
aI99539
aI99540
aI99541
aI99542
aI99543
aI99544
aI99545
aI99546
aI99547
aI99548
aI99549
aI99550
aI99551
aI99552
aI99553
aI99554
aI99555
aI99556
aI99557
aI99558
aI99559
aI99560
aI99561
aI99562
aI99563
aI99564
aI99565
aI99566
aI99567
aI99568
aI99569
aI99570
aI99571
aI99572
aI99573
aI99574
aI99575
aI99576
aa(lp49
I99682
aI99683
aI99684
aI99685
aI99686
aI99687
aI99688
aI99689
aI99690
aI99691
aI99692
aI99693
aI99694
aI99695
aI99696
aI99697
aI99698
aI99699
aI99700
aI99701
aI99702
aI99703
aI99704
aI99705
aI99706
aI99707
aI99708
aI99709
aI99710
aI99711
aI99712
aI99713
aI99714
aI99715
aI99716
aI99717
aI99718
aI99719
aI99720
aI99721
aI99722
aI99723
aI99724
aI99725
aI99726
aI99727
aI99728
aI99729
aI99730
aI99731
aI99732
aI99733
aI99734
aI99735
aI99736
aI99737
aI99738
aa(lp50
I100403
aI100404
aI100405
aI100406
aI100407
aI100408
aI100409
aI100410
aI100411
aI100412
aI100413
aI100414
aI100415
aI100416
aI100417
aI100418
aI100419
aI100420
aI100421
aI100422
aI100423
aI100424
aI100425
aI100426
aI100427
aI100428
aI100429
aI100430
aI100431
aI100432
aI100433
aI100434
aI100435
aI100436
aI100437
aI100438
aI100439
aI100440
aI100441
aI100442
aI100443
aI100444
aI100445
aI100446
aI100447
aI100448
aI100449
aI100450
aI100451
aI100452
aI100453
aI100454
aI100455
aI100456
aI100457
aI100458
aI100459
aa(lp51
I100495
aI100496
aI100497
aI100498
aI100499
aI100500
aI100501
aI100502
aI100503
aI100504
aI100505
aI100506
aI100507
aI100508
aI100509
aI100510
aI100511
aI100512
aI100513
aI100514
aI100515
aI100516
aI100517
aI100518
aI100519
aI100520
aI100521
aI100522
aI100523
aI100524
aI100525
aI100526
aI100527
aI100528
aI100529
aI100530
aI100531
aI100532
aI100533
aI100534
aI100535
aI100536
aI100537
aI100538
aI100539
aI100540
aI100541
aI100542
aI100543
aI100544
aI100545
aI100546
aI100547
aI100548
aI100549
aI100550
aI100551
aa(lp52
I100602
aI100603
aI100604
aI100605
aI100606
aI100607
aI100608
aI100609
aI100610
aI100611
aI100612
aI100613
aI100614
aI100615
aI100616
aI100617
aI100618
aI100619
aI100620
aI100621
aI100622
aI100623
aI100624
aI100625
aI100626
aI100627
aI100628
aI100629
aI100630
aI100631
aI100632
aI100633
aI100634
aI100635
aI100636
aI100637
aI100638
aI100639
aI100640
aI100641
aI100642
aI100643
aI100644
aI100645
aI100646
aI100647
aI100648
aI100649
aI100650
aI100651
aI100652
aI100653
aI100654
aI100655
aI100656
aI100657
aI100658
aa(lp53
I101842
aI101843
aI101844
aI101845
aI101846
aI101847
aI101848
aI101849
aI101850
aI101851
aI101852
aI101853
aI101854
aI101855
aI101856
aI101857
aI101858
aI101859
aI101860
aI101861
aI101862
aI101863
aI101864
aI101865
aI101866
aI101867
aI101868
aI101869
aI101870
aI101871
aI101872
aI101873
aI101874
aI101875
aI101876
aI101877
aI101878
aI101879
aI101880
aI101881
aI101882
aI101883
aI101884
aI101885
aI101886
aI101887
aI101888
aI101889
aI101890
aI101891
aI101892
aI101893
aI101894
aI101895
aI101896
aI101897
aI101898
aa(lp54
I101936
aI101937
aI101938
aI101939
aI101940
aI101941
aI101942
aI101943
aI101944
aI101945
aI101946
aI101947
aI101948
aI101949
aI101950
aI101951
aI101952
aI101953
aI101954
aI101955
aI101956
aI101957
aI101958
aI101959
aI101960
aI101961
aI101962
aI101963
aI101964
aI101965
aI101966
aI101967
aI101968
aI101969
aI101970
aI101971
aI101972
aI101973
aI101974
aI101975
aI101976
aI101977
aI101978
aI101979
aI101980
aI101981
aI101982
aI101983
aI101984
aI101985
aI101986
aI101987
aI101988
aI101989
aI101990
aI101991
aI101992
aa(lp55
I102028
aI102029
aI102030
aI102031
aI102032
aI102033
aI102034
aI102035
aI102036
aI102037
aI102038
aI102039
aI102040
aI102041
aI102042
aI102043
aI102044
aI102045
aI102046
aI102047
aI102048
aI102049
aI102050
aI102051
aI102052
aI102053
aI102054
aI102055
aI102056
aI102057
aI102058
aI102059
aI102060
aI102061
aI102062
aI102063
aI102064
aI102065
aI102066
aI102067
aI102068
aI102069
aI102070
aI102071
aI102072
aI102073
aI102074
aI102075
aI102076
aI102077
aI102078
aI102079
aI102080
aI102081
aI102082
aI102083
aI102084
aa(lp56
I102309
aI102310
aI102311
aI102312
aI102313
aI102314
aI102315
aI102316
aI102317
aI102318
aI102319
aI102320
aI102321
aI102322
aI102323
aI102324
aI102325
aI102326
aI102327
aI102328
aI102329
aI102330
aI102331
aI102332
aI102333
aI102334
aI102335
aI102336
aI102337
aI102338
aI102339
aI102340
aI102341
aI102342
aI102343
aI102344
aI102345
aI102346
aI102347
aI102348
aI102349
aI102350
aI102351
aI102352
aI102353
aI102354
aI102355
aI102356
aI102357
aI102358
aI102359
aI102360
aI102361
aI102362
aI102363
aI102364
aI102365
aa(lp57
I102406
aI102407
aI102408
aI102409
aI102410
aI102411
aI102412
aI102413
aI102414
aI102415
aI102416
aI102417
aI102418
aI102419
aI102420
aI102421
aI102422
aI102423
aI102424
aI102425
aI102426
aI102427
aI102428
aI102429
aI102430
aI102431
aI102432
aI102433
aI102434
aI102435
aI102436
aI102437
aI102438
aI102439
aI102440
aI102441
aI102442
aI102443
aI102444
aI102445
aI102446
aI102447
aI102448
aI102449
aI102450
aI102451
aI102452
aI102453
aI102454
aI102455
aI102456
aI102457
aI102458
aI102459
aI102460
aI102461
aI102462
aI102463
aI102464
aI102465
aI102466
aI102467
aI102468
aI102469
aI102470
aI102471
aI102472
aI102473
aI102474
aI102475
aI102476
aI102477
aI102478
aI102479
aI102480
aI102481
aI102482
aI102483
aI102484
aI102485
aI102486
aI102487
aI102488
aI102489
aI102490
aI102491
aI102492
aI102493
aI102494
aI102495
aI102496
aI102497
aI102498
aI102499
aI102500
aI102501
aI102502
aI102503
aI102504
aI102505
aI102506
aI102507
aI102508
aI102509
aI102510
aI102511
aI102512
aI102513
aI102514
aI102515
aI102516
aI102517
aI102518
aI102519
aI102520
aI102521
aI102522
aI102523
aI102524
aI102525
aI102526
aI102527
aI102528
aI102529
aI102530
aI102531
aI102532
aI102533
aI102534
aI102535
aI102536
aa(lp58
I102540
aI102541
aI102542
aI102543
aI102544
aI102545
aI102546
aI102547
aI102548
aI102549
aI102550
aI102551
aI102552
aI102553
aI102554
aI102555
aI102556
aI102557
aI102558
aI102559
aI102560
aI102561
aI102562
aI102563
aI102564
aI102565
aI102566
aI102567
aI102568
aI102569
aI102570
aI102571
aI102572
aI102573
aI102574
aI102575
aI102576
aI102577
aI102578
aI102579
aI102580
aI102581
aI102582
aI102583
aI102584
aI102585
aI102586
aI102587
aI102588
aI102589
aI102590
aI102591
aI102592
aI102593
aI102594
aI102595
aI102596
aa(lp59
I102638
aI102639
aI102640
aI102641
aI102642
aI102643
aI102644
aI102645
aI102646
aI102647
aI102648
aI102649
aI102650
aI102651
aI102652
aI102653
aI102654
aI102655
aI102656
aI102657
aI102658
aI102659
aI102660
aI102661
aI102662
aI102663
aI102664
aI102665
aI102666
aI102667
aI102668
aI102669
aI102670
aI102671
aI102672
aI102673
aI102674
aI102675
aI102676
aI102677
aI102678
aI102679
aI102680
aI102681
aI102682
aI102683
aI102684
aI102685
aI102686
aI102687
aI102688
aI102689
aI102690
aI102691
aI102692
aI102693
aI102694
aI102695
aI102696
aI102697
aI102698
aI102699
aI102700
aI102701
aI102702
aI102703
aI102704
aI102705
aI102706
aI102707
aI102708
aI102709
aI102710
aI102711
aI102712
aI102713
aI102714
aI102715
aI102716
aI102717
aI102718
aI102719
aI102720
aI102721
aI102722
aI102723
aI102724
aI102725
aI102726
aI102727
aI102728
aI102729
aa(lp60
I102741
aI102742
aI102743
aI102744
aI102745
aI102746
aI102747
aI102748
aI102749
aI102750
aI102751
aI102752
aI102753
aI102754
aI102755
aI102756
aI102757
aI102758
aI102759
aI102760
aI102761
aI102762
aI102763
aI102764
aI102765
aI102766
aI102767
aI102768
aI102769
aI102770
aI102771
aI102772
aI102773
aI102774
aI102775
aI102776
aI102777
aI102778
aI102779
aI102780
aI102781
aI102782
aI102783
aI102784
aI102785
aI102786
aI102787
aI102788
aI102789
aI102790
aI102791
aI102792
aI102793
aI102794
aI102795
aI102796
aI102797
aI102798
aI102799
aI102800
aI102801
aI102802
aI102803
aI102804
aI102805
aI102806
aI102807
aI102808
aI102809
aI102810
aI102811
aI102812
aI102813
aI102814
aI102815
aI102816
aI102817
aI102818
aI102819
aI102820
aI102821
aI102822
aI102823
aI102824
aI102825
aI102826
aI102827
aI102828
aI102829
aI102830
aI102831
aI102832
aI102833
aI102834
aI102835
aI102836
aI102837
aI102838
aI102839
aI102840
aI102841
aI102842
aI102843
aI102844
aI102845
aI102846
aI102847
aI102848
aI102849
aI102850
aI102851
aI102852
aI102853
aI102854
aI102855
aI102856
aI102857
aI102858
aI102859
aI102860
aI102861
aI102862
aI102863
aI102864
aI102865
aI102866
aI102867
aI102868
aI102869
aI102870
aI102871
aI102872
aI102873
aI102874
aI102875
aI102876
aI102877
aI102878
aI102879
aI102880
aI102881
aI102882
aI102883
aI102884
aI102885
aI102886
aI102887
aI102888
aI102889
aI102890
aI102891
aa(lp61
I102903
aI102904
aI102905
aI102906
aI102907
aI102908
aI102909
aI102910
aI102911
aI102912
aI102913
aI102914
aI102915
aI102916
aI102917
aI102918
aI102919
aI102920
aI102921
aI102922
aI102923
aI102924
aI102925
aI102926
aI102927
aI102928
aI102929
aI102930
aI102931
aI102932
aI102933
aI102934
aI102935
aI102936
aI102937
aI102938
aI102939
aI102940
aI102941
aI102942
aI102943
aI102944
aI102945
aI102946
aI102947
aI102948
aI102949
aI102950
aI102951
aI102952
aI102953
aI102954
aI102955
aI102956
aI102957
aI102958
aI102959
aI102960
aI102961
aI102962
aI102963
aI102964
aI102965
aI102966
aI102967
aI102968
aI102969
aI102970
aI102971
aI102972
aI102973
aI102974
aI102975
aI102976
aI102977
aI102978
aI102979
aI102980
aI102981
aI102982
aI102983
aI102984
aI102985
aI102986
aI102987
aI102988
aa(lp62
I102998
aI102999
aI103000
aI103001
aI103002
aI103003
aI103004
aI103005
aI103006
aI103007
aI103008
aI103009
aI103010
aI103011
aI103012
aI103013
aI103014
aI103015
aI103016
aI103017
aI103018
aI103019
aI103020
aI103021
aI103022
aI103023
aI103024
aI103025
aI103026
aI103027
aI103028
aI103029
aI103030
aI103031
aI103032
aI103033
aI103034
aI103035
aI103036
aI103037
aI103038
aI103039
aI103040
aI103041
aI103042
aI103043
aI103044
aI103045
aI103046
aI103047
aI103048
aI103049
aI103050
aI103051
aI103052
aI103053
aI103054
aa(lp63
I106785
aI106786
aI106787
aI106788
aI106789
aI106790
aI106791
aI106792
aI106793
aI106794
aI106795
aI106796
aI106797
aI106798
aI106799
aI106800
aI106801
aI106802
aI106803
aI106804
aI106805
aI106806
aI106807
aI106808
aI106809
aI106810
aI106811
aI106812
aI106813
aI106814
aI106815
aI106816
aI106817
aI106818
aI106819
aI106820
aI106821
aI106822
aI106823
aI106824
aI106825
aI106826
aI106827
aI106828
aI106829
aI106830
aI106831
aI106832
aI106833
aI106834
aI106835
aI106836
aI106837
aI106838
aI106839
aI106840
aI106841
aa.