(inmrglue.fileio.fileiobase
unit_conversion
p0
(dp1
S'_cplx'
p2
I01
sS'_first'
p3
F20.495938819937894
sS'_car'
p4
F3201.0400000217487
sS'_obs'
p5
F400.13
sS'_delta'
p6
F-0.00019107524419528945
sS'_size'
p7
I130796
sS'_sw'
p8
I10000
sb.