(lp0
(lp1
I58152
aa(lp2
I67257
aa(lp3
I67351
aI67393
aI67425
aa(lp4
I67486
aI67520
aI67531
aI67562
aa(lp5
I67640
aI67654
aI67673
aI67705
aa(lp6
I67766
aI67798
aI67841
aa(lp7
I67934
aa(lp8
I71876
aI71908
aa(lp9
I72042
aI72069
aI72089
aa(lp10
I72237
aI72263
aI72286
aa(lp11
I72492
aI72519
aI72545
aI72566
aa(lp12
I79752
aI79803
aa(lp13
I79873
aI79922
aI79972
aa(lp14
I80041
aI80093
aa(lp15
I86705
aa(lp16
I86970
aa(lp17
I89610
aI89630
aa(lp18
I89871
aI89894
aa(lp19
I89992
aI90007
aa(lp20
I90098
aI90114
aI90134
aI90152
aa(lp21
I90220
aI90234
aI90254
aI90270
aa(lp22
I92207
aa(lp23
I92341
aa(lp24
I92432
aa(lp25
I92569
aa(lp26
I93149
aa(lp27
I93261
aI93317
aI93373
aI93428
aa(lp28
I93490
aI93542
aa(lp29
I93610
aI93659
aa(lp30
I93731
aI93782
aa(lp31
I93853
aI93901
aa(lp32
I95106
aa(lp33
I95225
aa(lp34
I95343
aa(lp35
I95462
aa(lp36
I95581
aa(lp37
I98704
aI98729
aI98759
aa(lp38
I98882
aa(lp39
I98955
aI99002
aa(lp40
I99066
aa(lp41
I99123
aa(lp42
I99207
aI99230
aa(lp43
I99290
aI99340
aa(lp44
I103788
aa(lp45
I104202
aI104241
aI104273
aI104290
aI104310
aI104323
aI104373
aa(lp46
I104440
aI104473
aI104491
aI104531
aI104547
aI104596
aa(lp47
I104692
aI104741
aI104790
aI104806
aa(lp48
I104869
aa(lp49
I104945
aI104967
aa(lp50
I105718
aa.