(lp0
I58152
aI67257
aI67351
aI67393
aI67425
aI67486
aI67520
aI67531
aI67562
aI67640
aI67654
aI67673
aI67705
aI67766
aI67798
aI67841
aI67934
aI71876
aI71908
aI72042
aI72069
aI72089
aI72237
aI72263
aI72286
aI72492
aI72519
aI72545
aI72566
aI79752
aI79803
aI79873
aI79922
aI79972
aI80041
aI80093
aI86705
aI86970
aI89610
aI89630
aI89871
aI89894
aI89992
aI90007
aI90098
aI90114
aI90134
aI90152
aI90220
aI90234
aI90254
aI90270
aI92207
aI92341
aI92432
aI92569
aI93149
aI93261
aI93317
aI93373
aI93428
aI93490
aI93542
aI93610
aI93659
aI93731
aI93782
aI93853
aI93901
aI95106
aI95225
aI95343
aI95462
aI95581
aI98704
aI98729
aI98759
aI98882
aI98955
aI99002
aI99066
aI99123
aI99207
aI99230
aI99290
aI99340
aI103788
aI104202
aI104241
aI104273
aI104290
aI104310
aI104323
aI104373
aI104440
aI104473
aI104491
aI104531
aI104547
aI104596
aI104692
aI104741
aI104790
aI104806
aI104869
aI104945
aI104967
aI105718
a.